ARM GAS  C:\Users\inspiron\AppData\Local\Temp\ccI2FbJy.s 			page 1


   1              		.syntax unified
   2              		.cpu cortex-m0plus
   3              		.fpu softvfp
   4              		.eabi_attribute 20, 1
   5              		.eabi_attribute 21, 1
   6              		.eabi_attribute 23, 3
   7              		.eabi_attribute 24, 1
   8              		.eabi_attribute 25, 1
   9              		.eabi_attribute 26, 1
  10              		.eabi_attribute 30, 1
  11              		.eabi_attribute 34, 0
  12              		.eabi_attribute 18, 4
  13              		.thumb
  14              		.syntax unified
  15              		.file	"CapSense_Structure.c"
  16              		.text
  17              	.Ltext0:
  18              		.cfi_sections	.debug_frame
  19              		.section	.text.DsParseParamId,"ax",%progbits
  20              		.align	2
  21              		.code	16
  22              		.thumb_func
  23              		.type	DsParseParamId, %function
  24              	DsParseParamId:
  25              	.LFB2:
  26              		.file 1 "Generated_Source\\PSoC4\\CapSense_Structure.c"
   1:Generated_Source\PSoC4/CapSense_Structure.c **** /***************************************************************************//**
   2:Generated_Source\PSoC4/CapSense_Structure.c **** * \file CapSense_Structure.c
   3:Generated_Source\PSoC4/CapSense_Structure.c **** * \version 7.0
   4:Generated_Source\PSoC4/CapSense_Structure.c **** *
   5:Generated_Source\PSoC4/CapSense_Structure.c **** * \brief
   6:Generated_Source\PSoC4/CapSense_Structure.c **** *   This file defines the data structure global variables and provides implementation
   7:Generated_Source\PSoC4/CapSense_Structure.c **** *   for the high-level and low-level APIs of the Data Structure module.
   8:Generated_Source\PSoC4/CapSense_Structure.c **** *
   9:Generated_Source\PSoC4/CapSense_Structure.c **** * \see CapSense v7.0 Datasheet
  10:Generated_Source\PSoC4/CapSense_Structure.c **** *
  11:Generated_Source\PSoC4/CapSense_Structure.c **** *//*****************************************************************************
  12:Generated_Source\PSoC4/CapSense_Structure.c **** * Copyright (2016-2019), Cypress Semiconductor Corporation.
  13:Generated_Source\PSoC4/CapSense_Structure.c **** ********************************************************************************
  14:Generated_Source\PSoC4/CapSense_Structure.c **** * This software is owned by Cypress Semiconductor Corporation (Cypress) and is
  15:Generated_Source\PSoC4/CapSense_Structure.c **** * protected by and subject to worldwide patent protection (United States and
  16:Generated_Source\PSoC4/CapSense_Structure.c **** * foreign), United States copyright laws and international treaty provisions.
  17:Generated_Source\PSoC4/CapSense_Structure.c **** * Cypress hereby grants to licensee a personal, non-exclusive, non-transferable
  18:Generated_Source\PSoC4/CapSense_Structure.c **** * license to copy, use, modify, create derivative works of, and compile the
  19:Generated_Source\PSoC4/CapSense_Structure.c **** * Cypress Source Code and derivative works for the sole purpose of creating
  20:Generated_Source\PSoC4/CapSense_Structure.c **** * custom software in support of licensee product to be used only in conjunction
  21:Generated_Source\PSoC4/CapSense_Structure.c **** * with a Cypress integrated circuit as specified in the applicable agreement.
  22:Generated_Source\PSoC4/CapSense_Structure.c **** * Any reproduction, modification, translation, compilation, or representation of
  23:Generated_Source\PSoC4/CapSense_Structure.c **** * this software except as specified above is prohibited without the express
  24:Generated_Source\PSoC4/CapSense_Structure.c **** * written permission of Cypress.
  25:Generated_Source\PSoC4/CapSense_Structure.c **** *
  26:Generated_Source\PSoC4/CapSense_Structure.c **** * Disclaimer: CYPRESS MAKES NO WARRANTY OF ANY KIND, EXPRESS OR IMPLIED, WITH
  27:Generated_Source\PSoC4/CapSense_Structure.c **** * REGARD TO THIS MATERIAL, INCLUDING, BUT NOT LIMITED TO, THE IMPLIED
  28:Generated_Source\PSoC4/CapSense_Structure.c **** * WARRANTIES OF MERCHANTABILITY AND FITNESS FOR A PARTICULAR PURPOSE.
  29:Generated_Source\PSoC4/CapSense_Structure.c **** * Cypress reserves the right to make changes without further notice to the
  30:Generated_Source\PSoC4/CapSense_Structure.c **** * materials described herein. Cypress does not assume any liability arising out
  31:Generated_Source\PSoC4/CapSense_Structure.c **** * of the application or use of any product or circuit described herein. Cypress
ARM GAS  C:\Users\inspiron\AppData\Local\Temp\ccI2FbJy.s 			page 2


  32:Generated_Source\PSoC4/CapSense_Structure.c **** * does not authorize its products for use as critical components in life-support
  33:Generated_Source\PSoC4/CapSense_Structure.c **** * systems where a malfunction or failure may reasonably be expected to result in
  34:Generated_Source\PSoC4/CapSense_Structure.c **** * significant injury to the user. The inclusion of Cypress' product in a life-
  35:Generated_Source\PSoC4/CapSense_Structure.c **** * support systems application implies that the manufacturer assumes all risk of
  36:Generated_Source\PSoC4/CapSense_Structure.c **** * such use and in doing so indemnifies Cypress against all charges. Use may be
  37:Generated_Source\PSoC4/CapSense_Structure.c **** * limited by and subject to the applicable Cypress software license agreement.
  38:Generated_Source\PSoC4/CapSense_Structure.c **** *******************************************************************************/
  39:Generated_Source\PSoC4/CapSense_Structure.c **** 
  40:Generated_Source\PSoC4/CapSense_Structure.c **** #include <cytypes.h>
  41:Generated_Source\PSoC4/CapSense_Structure.c **** #include "CyLib.h"
  42:Generated_Source\PSoC4/CapSense_Structure.c **** #include "CapSense_Structure.h"
  43:Generated_Source\PSoC4/CapSense_Structure.c **** #include "CapSense_Configuration.h"
  44:Generated_Source\PSoC4/CapSense_Structure.c **** 
  45:Generated_Source\PSoC4/CapSense_Structure.c **** #if (0u != CapSense_ADC_EN)
  46:Generated_Source\PSoC4/CapSense_Structure.c ****     #include "CapSense_Adc.h"
  47:Generated_Source\PSoC4/CapSense_Structure.c **** #endif /* (0u != CapSense_ADC_EN) */
  48:Generated_Source\PSoC4/CapSense_Structure.c **** 
  49:Generated_Source\PSoC4/CapSense_Structure.c **** #if (CapSense_ENABLE == CapSense_SELF_TEST_EN)
  50:Generated_Source\PSoC4/CapSense_Structure.c ****     #include "CapSense_SelfTest.h"
  51:Generated_Source\PSoC4/CapSense_Structure.c **** #endif
  52:Generated_Source\PSoC4/CapSense_Structure.c **** 
  53:Generated_Source\PSoC4/CapSense_Structure.c **** #if (CapSense_ENABLE == CapSense_CENTROID_5X5_CSD_EN)
  54:Generated_Source\PSoC4/CapSense_Structure.c ****     #include "CapSense_AdvancedCentroid_LL.h"
  55:Generated_Source\PSoC4/CapSense_Structure.c **** #endif
  56:Generated_Source\PSoC4/CapSense_Structure.c **** 
  57:Generated_Source\PSoC4/CapSense_Structure.c **** #if (CapSense_ENABLE == CapSense_GES_GLOBAL_EN)
  58:Generated_Source\PSoC4/CapSense_Structure.c ****     #include "CapSense_Gesture.h"
  59:Generated_Source\PSoC4/CapSense_Structure.c **** #endif /* (CapSense_ENABLE == CapSense_GES_GLOBAL_EN) */
  60:Generated_Source\PSoC4/CapSense_Structure.c **** 
  61:Generated_Source\PSoC4/CapSense_Structure.c **** /*******************************************************************************
  62:Generated_Source\PSoC4/CapSense_Structure.c **** * Defines the RAM Data Structure variables and their init data in flash
  63:Generated_Source\PSoC4/CapSense_Structure.c **** *******************************************************************************/
  64:Generated_Source\PSoC4/CapSense_Structure.c **** /**
  65:Generated_Source\PSoC4/CapSense_Structure.c **** * \cond SECTION_GLOBAL_VARIABLES
  66:Generated_Source\PSoC4/CapSense_Structure.c **** * \addtogroup group_global_variables
  67:Generated_Source\PSoC4/CapSense_Structure.c **** * \{
  68:Generated_Source\PSoC4/CapSense_Structure.c **** */
  69:Generated_Source\PSoC4/CapSense_Structure.c **** 
  70:Generated_Source\PSoC4/CapSense_Structure.c **** /**
  71:Generated_Source\PSoC4/CapSense_Structure.c **** * The variable that contains the CapSense configuration, settings and
  72:Generated_Source\PSoC4/CapSense_Structure.c **** * scanning results. CapSense_dsRam represents RAM Data Structure.
  73:Generated_Source\PSoC4/CapSense_Structure.c **** */
  74:Generated_Source\PSoC4/CapSense_Structure.c **** CapSense_RAM_STRUCT CapSense_dsRam;
  75:Generated_Source\PSoC4/CapSense_Structure.c **** /** \}
  76:Generated_Source\PSoC4/CapSense_Structure.c **** * \endcond */
  77:Generated_Source\PSoC4/CapSense_Structure.c **** 
  78:Generated_Source\PSoC4/CapSense_Structure.c **** /*******************************************************************************
  79:Generated_Source\PSoC4/CapSense_Structure.c **** * Declares Widget's De-bounce Counters
  80:Generated_Source\PSoC4/CapSense_Structure.c **** *******************************************************************************/
  81:Generated_Source\PSoC4/CapSense_Structure.c **** static uint8 CapSense_debounceTouchpad0[1u];
  82:Generated_Source\PSoC4/CapSense_Structure.c **** 
  83:Generated_Source\PSoC4/CapSense_Structure.c **** 
  84:Generated_Source\PSoC4/CapSense_Structure.c **** /***************************************************************************//**
  85:Generated_Source\PSoC4/CapSense_Structure.c **** * Centroid positions history
  86:Generated_Source\PSoC4/CapSense_Structure.c **** *******************************************************************************/
  87:Generated_Source\PSoC4/CapSense_Structure.c **** static CapSense_TOUCHPAD_POS_HISTORY_STRUCT CapSense_posHistoryTouchpad0[CapSense_NUM_CENTROIDS];
  88:Generated_Source\PSoC4/CapSense_Structure.c **** 
ARM GAS  C:\Users\inspiron\AppData\Local\Temp\ccI2FbJy.s 			page 3


  89:Generated_Source\PSoC4/CapSense_Structure.c **** /*******************************************************************************
  90:Generated_Source\PSoC4/CapSense_Structure.c **** * Defines and initializes the Flash Data Structure
  91:Generated_Source\PSoC4/CapSense_Structure.c **** *******************************************************************************/
  92:Generated_Source\PSoC4/CapSense_Structure.c **** 
  93:Generated_Source\PSoC4/CapSense_Structure.c **** 
  94:Generated_Source\PSoC4/CapSense_Structure.c **** 
  95:Generated_Source\PSoC4/CapSense_Structure.c **** /**
  96:Generated_Source\PSoC4/CapSense_Structure.c **** * \cond SECTION_API_CONSTANTS
  97:Generated_Source\PSoC4/CapSense_Structure.c **** * \addtogroup group_api_constants
  98:Generated_Source\PSoC4/CapSense_Structure.c **** * \{
  99:Generated_Source\PSoC4/CapSense_Structure.c **** */
 100:Generated_Source\PSoC4/CapSense_Structure.c **** /**
 101:Generated_Source\PSoC4/CapSense_Structure.c **** * Constant for the FLASH Data Structure
 102:Generated_Source\PSoC4/CapSense_Structure.c **** */
 103:Generated_Source\PSoC4/CapSense_Structure.c **** const CapSense_FLASH_STRUCT CapSense_dsFlash =
 104:Generated_Source\PSoC4/CapSense_Structure.c **** {
 105:Generated_Source\PSoC4/CapSense_Structure.c ****     /* Flash Widget Initialization Data */
 106:Generated_Source\PSoC4/CapSense_Structure.c ****     {
 107:Generated_Source\PSoC4/CapSense_Structure.c ****         { /* Touchpad0 */
 108:Generated_Source\PSoC4/CapSense_Structure.c ****             &CapSense_ioList[0u],
 109:Generated_Source\PSoC4/CapSense_Structure.c ****             (void *)&CapSense_dsRam.wdgtList.touchpad0,
 110:Generated_Source\PSoC4/CapSense_Structure.c ****             CapSense_dsRam.snsList.touchpad0,
 111:Generated_Source\PSoC4/CapSense_Structure.c ****             (void *)0u,
 112:Generated_Source\PSoC4/CapSense_Structure.c ****             CapSense_debounceTouchpad0,
 113:Generated_Source\PSoC4/CapSense_Structure.c ****             CapSense_TOUCHPAD0_STATIC_CONFIG,
 114:Generated_Source\PSoC4/CapSense_Structure.c ****             CapSense_TOUCHPAD0_NUM_COLS + CapSense_TOUCHPAD0_NUM_ROWS,
 115:Generated_Source\PSoC4/CapSense_Structure.c ****             (uint8)CapSense_WD_TOUCHPAD_E,
 116:Generated_Source\PSoC4/CapSense_Structure.c ****             CapSense_TOUCHPAD0_NUM_COLS,
 117:Generated_Source\PSoC4/CapSense_Structure.c ****             CapSense_TOUCHPAD0_NUM_ROWS,
 118:Generated_Source\PSoC4/CapSense_Structure.c ****             CapSense_TOUCHPAD0_X_RESOLUTION,
 119:Generated_Source\PSoC4/CapSense_Structure.c ****             CapSense_TOUCHPAD0_Y_RESOLUTION,
 120:Generated_Source\PSoC4/CapSense_Structure.c ****             CapSense_TOUCHPAD0_X_CENT_MULT,
 121:Generated_Source\PSoC4/CapSense_Structure.c ****             CapSense_TOUCHPAD0_Y_CENT_MULT,
 122:Generated_Source\PSoC4/CapSense_Structure.c ****             (void *)&CapSense_posHistoryTouchpad0,
 123:Generated_Source\PSoC4/CapSense_Structure.c ****             CapSense_TOUCHPAD0_IIR_FILTER_COEFF,
 124:Generated_Source\PSoC4/CapSense_Structure.c ****         },
 125:Generated_Source\PSoC4/CapSense_Structure.c ****     },
 126:Generated_Source\PSoC4/CapSense_Structure.c **** };
 127:Generated_Source\PSoC4/CapSense_Structure.c **** 
 128:Generated_Source\PSoC4/CapSense_Structure.c **** /**
 129:Generated_Source\PSoC4/CapSense_Structure.c **** * The array of the pointers to the electrode specific register.
 130:Generated_Source\PSoC4/CapSense_Structure.c **** */
 131:Generated_Source\PSoC4/CapSense_Structure.c **** const CapSense_FLASH_IO_STRUCT CapSense_ioList[CapSense_TOTAL_ELECTRODES] =
 132:Generated_Source\PSoC4/CapSense_Structure.c **** {
 133:Generated_Source\PSoC4/CapSense_Structure.c ****     { /* 0: Touchpad0_Col0 */
 134:Generated_Source\PSoC4/CapSense_Structure.c ****         (reg32 *)CapSense_Sns__0__HSIOM,
 135:Generated_Source\PSoC4/CapSense_Structure.c ****         (reg32 *)CapSense_Sns__0__PC,
 136:Generated_Source\PSoC4/CapSense_Structure.c ****         (reg32 *)CapSense_Sns__0__DR,
 137:Generated_Source\PSoC4/CapSense_Structure.c ****         (reg32 *)CapSense_Sns__0__PS,
 138:Generated_Source\PSoC4/CapSense_Structure.c ****         CapSense_Sns__0__HSIOM_MASK,
 139:Generated_Source\PSoC4/CapSense_Structure.c ****         CapSense_Sns__0__MASK,
 140:Generated_Source\PSoC4/CapSense_Structure.c ****         CapSense_Sns__0__HSIOM_SHIFT,
 141:Generated_Source\PSoC4/CapSense_Structure.c ****         (uint8)CapSense_Sns__0__SHIFT,
 142:Generated_Source\PSoC4/CapSense_Structure.c ****         (uint8)CapSense_Sns__0__SHIFT * 3u,
 143:Generated_Source\PSoC4/CapSense_Structure.c ****     },
 144:Generated_Source\PSoC4/CapSense_Structure.c ****     { /* 1: Touchpad0_Col1 */
 145:Generated_Source\PSoC4/CapSense_Structure.c ****         (reg32 *)CapSense_Sns__1__HSIOM,
ARM GAS  C:\Users\inspiron\AppData\Local\Temp\ccI2FbJy.s 			page 4


 146:Generated_Source\PSoC4/CapSense_Structure.c ****         (reg32 *)CapSense_Sns__1__PC,
 147:Generated_Source\PSoC4/CapSense_Structure.c ****         (reg32 *)CapSense_Sns__1__DR,
 148:Generated_Source\PSoC4/CapSense_Structure.c ****         (reg32 *)CapSense_Sns__1__PS,
 149:Generated_Source\PSoC4/CapSense_Structure.c ****         CapSense_Sns__1__HSIOM_MASK,
 150:Generated_Source\PSoC4/CapSense_Structure.c ****         CapSense_Sns__1__MASK,
 151:Generated_Source\PSoC4/CapSense_Structure.c ****         CapSense_Sns__1__HSIOM_SHIFT,
 152:Generated_Source\PSoC4/CapSense_Structure.c ****         (uint8)CapSense_Sns__1__SHIFT,
 153:Generated_Source\PSoC4/CapSense_Structure.c ****         (uint8)CapSense_Sns__1__SHIFT * 3u,
 154:Generated_Source\PSoC4/CapSense_Structure.c ****     },
 155:Generated_Source\PSoC4/CapSense_Structure.c ****     { /* 2: Touchpad0_Col2 */
 156:Generated_Source\PSoC4/CapSense_Structure.c ****         (reg32 *)CapSense_Sns__2__HSIOM,
 157:Generated_Source\PSoC4/CapSense_Structure.c ****         (reg32 *)CapSense_Sns__2__PC,
 158:Generated_Source\PSoC4/CapSense_Structure.c ****         (reg32 *)CapSense_Sns__2__DR,
 159:Generated_Source\PSoC4/CapSense_Structure.c ****         (reg32 *)CapSense_Sns__2__PS,
 160:Generated_Source\PSoC4/CapSense_Structure.c ****         CapSense_Sns__2__HSIOM_MASK,
 161:Generated_Source\PSoC4/CapSense_Structure.c ****         CapSense_Sns__2__MASK,
 162:Generated_Source\PSoC4/CapSense_Structure.c ****         CapSense_Sns__2__HSIOM_SHIFT,
 163:Generated_Source\PSoC4/CapSense_Structure.c ****         (uint8)CapSense_Sns__2__SHIFT,
 164:Generated_Source\PSoC4/CapSense_Structure.c ****         (uint8)CapSense_Sns__2__SHIFT * 3u,
 165:Generated_Source\PSoC4/CapSense_Structure.c ****     },
 166:Generated_Source\PSoC4/CapSense_Structure.c ****     { /* 3: Touchpad0_Col3 */
 167:Generated_Source\PSoC4/CapSense_Structure.c ****         (reg32 *)CapSense_Sns__3__HSIOM,
 168:Generated_Source\PSoC4/CapSense_Structure.c ****         (reg32 *)CapSense_Sns__3__PC,
 169:Generated_Source\PSoC4/CapSense_Structure.c ****         (reg32 *)CapSense_Sns__3__DR,
 170:Generated_Source\PSoC4/CapSense_Structure.c ****         (reg32 *)CapSense_Sns__3__PS,
 171:Generated_Source\PSoC4/CapSense_Structure.c ****         CapSense_Sns__3__HSIOM_MASK,
 172:Generated_Source\PSoC4/CapSense_Structure.c ****         CapSense_Sns__3__MASK,
 173:Generated_Source\PSoC4/CapSense_Structure.c ****         CapSense_Sns__3__HSIOM_SHIFT,
 174:Generated_Source\PSoC4/CapSense_Structure.c ****         (uint8)CapSense_Sns__3__SHIFT,
 175:Generated_Source\PSoC4/CapSense_Structure.c ****         (uint8)CapSense_Sns__3__SHIFT * 3u,
 176:Generated_Source\PSoC4/CapSense_Structure.c ****     },
 177:Generated_Source\PSoC4/CapSense_Structure.c ****     { /* 4: Touchpad0_Col4 */
 178:Generated_Source\PSoC4/CapSense_Structure.c ****         (reg32 *)CapSense_Sns__4__HSIOM,
 179:Generated_Source\PSoC4/CapSense_Structure.c ****         (reg32 *)CapSense_Sns__4__PC,
 180:Generated_Source\PSoC4/CapSense_Structure.c ****         (reg32 *)CapSense_Sns__4__DR,
 181:Generated_Source\PSoC4/CapSense_Structure.c ****         (reg32 *)CapSense_Sns__4__PS,
 182:Generated_Source\PSoC4/CapSense_Structure.c ****         CapSense_Sns__4__HSIOM_MASK,
 183:Generated_Source\PSoC4/CapSense_Structure.c ****         CapSense_Sns__4__MASK,
 184:Generated_Source\PSoC4/CapSense_Structure.c ****         CapSense_Sns__4__HSIOM_SHIFT,
 185:Generated_Source\PSoC4/CapSense_Structure.c ****         (uint8)CapSense_Sns__4__SHIFT,
 186:Generated_Source\PSoC4/CapSense_Structure.c ****         (uint8)CapSense_Sns__4__SHIFT * 3u,
 187:Generated_Source\PSoC4/CapSense_Structure.c ****     },
 188:Generated_Source\PSoC4/CapSense_Structure.c ****     { /* 5: Touchpad0_Col5 */
 189:Generated_Source\PSoC4/CapSense_Structure.c ****         (reg32 *)CapSense_Sns__5__HSIOM,
 190:Generated_Source\PSoC4/CapSense_Structure.c ****         (reg32 *)CapSense_Sns__5__PC,
 191:Generated_Source\PSoC4/CapSense_Structure.c ****         (reg32 *)CapSense_Sns__5__DR,
 192:Generated_Source\PSoC4/CapSense_Structure.c ****         (reg32 *)CapSense_Sns__5__PS,
 193:Generated_Source\PSoC4/CapSense_Structure.c ****         CapSense_Sns__5__HSIOM_MASK,
 194:Generated_Source\PSoC4/CapSense_Structure.c ****         CapSense_Sns__5__MASK,
 195:Generated_Source\PSoC4/CapSense_Structure.c ****         CapSense_Sns__5__HSIOM_SHIFT,
 196:Generated_Source\PSoC4/CapSense_Structure.c ****         (uint8)CapSense_Sns__5__SHIFT,
 197:Generated_Source\PSoC4/CapSense_Structure.c ****         (uint8)CapSense_Sns__5__SHIFT * 3u,
 198:Generated_Source\PSoC4/CapSense_Structure.c ****     },
 199:Generated_Source\PSoC4/CapSense_Structure.c ****     { /* 6: Touchpad0_Col6 */
 200:Generated_Source\PSoC4/CapSense_Structure.c ****         (reg32 *)CapSense_Sns__6__HSIOM,
 201:Generated_Source\PSoC4/CapSense_Structure.c ****         (reg32 *)CapSense_Sns__6__PC,
 202:Generated_Source\PSoC4/CapSense_Structure.c ****         (reg32 *)CapSense_Sns__6__DR,
ARM GAS  C:\Users\inspiron\AppData\Local\Temp\ccI2FbJy.s 			page 5


 203:Generated_Source\PSoC4/CapSense_Structure.c ****         (reg32 *)CapSense_Sns__6__PS,
 204:Generated_Source\PSoC4/CapSense_Structure.c ****         CapSense_Sns__6__HSIOM_MASK,
 205:Generated_Source\PSoC4/CapSense_Structure.c ****         CapSense_Sns__6__MASK,
 206:Generated_Source\PSoC4/CapSense_Structure.c ****         CapSense_Sns__6__HSIOM_SHIFT,
 207:Generated_Source\PSoC4/CapSense_Structure.c ****         (uint8)CapSense_Sns__6__SHIFT,
 208:Generated_Source\PSoC4/CapSense_Structure.c ****         (uint8)CapSense_Sns__6__SHIFT * 3u,
 209:Generated_Source\PSoC4/CapSense_Structure.c ****     },
 210:Generated_Source\PSoC4/CapSense_Structure.c ****     { /* 7: Touchpad0_Row0 */
 211:Generated_Source\PSoC4/CapSense_Structure.c ****         (reg32 *)CapSense_Sns__7__HSIOM,
 212:Generated_Source\PSoC4/CapSense_Structure.c ****         (reg32 *)CapSense_Sns__7__PC,
 213:Generated_Source\PSoC4/CapSense_Structure.c ****         (reg32 *)CapSense_Sns__7__DR,
 214:Generated_Source\PSoC4/CapSense_Structure.c ****         (reg32 *)CapSense_Sns__7__PS,
 215:Generated_Source\PSoC4/CapSense_Structure.c ****         CapSense_Sns__7__HSIOM_MASK,
 216:Generated_Source\PSoC4/CapSense_Structure.c ****         CapSense_Sns__7__MASK,
 217:Generated_Source\PSoC4/CapSense_Structure.c ****         CapSense_Sns__7__HSIOM_SHIFT,
 218:Generated_Source\PSoC4/CapSense_Structure.c ****         (uint8)CapSense_Sns__7__SHIFT,
 219:Generated_Source\PSoC4/CapSense_Structure.c ****         (uint8)CapSense_Sns__7__SHIFT * 3u,
 220:Generated_Source\PSoC4/CapSense_Structure.c ****     },
 221:Generated_Source\PSoC4/CapSense_Structure.c ****     { /* 8: Touchpad0_Row1 */
 222:Generated_Source\PSoC4/CapSense_Structure.c ****         (reg32 *)CapSense_Sns__8__HSIOM,
 223:Generated_Source\PSoC4/CapSense_Structure.c ****         (reg32 *)CapSense_Sns__8__PC,
 224:Generated_Source\PSoC4/CapSense_Structure.c ****         (reg32 *)CapSense_Sns__8__DR,
 225:Generated_Source\PSoC4/CapSense_Structure.c ****         (reg32 *)CapSense_Sns__8__PS,
 226:Generated_Source\PSoC4/CapSense_Structure.c ****         CapSense_Sns__8__HSIOM_MASK,
 227:Generated_Source\PSoC4/CapSense_Structure.c ****         CapSense_Sns__8__MASK,
 228:Generated_Source\PSoC4/CapSense_Structure.c ****         CapSense_Sns__8__HSIOM_SHIFT,
 229:Generated_Source\PSoC4/CapSense_Structure.c ****         (uint8)CapSense_Sns__8__SHIFT,
 230:Generated_Source\PSoC4/CapSense_Structure.c ****         (uint8)CapSense_Sns__8__SHIFT * 3u,
 231:Generated_Source\PSoC4/CapSense_Structure.c ****     },
 232:Generated_Source\PSoC4/CapSense_Structure.c ****     { /* 9: Touchpad0_Row2 */
 233:Generated_Source\PSoC4/CapSense_Structure.c ****         (reg32 *)CapSense_Sns__9__HSIOM,
 234:Generated_Source\PSoC4/CapSense_Structure.c ****         (reg32 *)CapSense_Sns__9__PC,
 235:Generated_Source\PSoC4/CapSense_Structure.c ****         (reg32 *)CapSense_Sns__9__DR,
 236:Generated_Source\PSoC4/CapSense_Structure.c ****         (reg32 *)CapSense_Sns__9__PS,
 237:Generated_Source\PSoC4/CapSense_Structure.c ****         CapSense_Sns__9__HSIOM_MASK,
 238:Generated_Source\PSoC4/CapSense_Structure.c ****         CapSense_Sns__9__MASK,
 239:Generated_Source\PSoC4/CapSense_Structure.c ****         CapSense_Sns__9__HSIOM_SHIFT,
 240:Generated_Source\PSoC4/CapSense_Structure.c ****         (uint8)CapSense_Sns__9__SHIFT,
 241:Generated_Source\PSoC4/CapSense_Structure.c ****         (uint8)CapSense_Sns__9__SHIFT * 3u,
 242:Generated_Source\PSoC4/CapSense_Structure.c ****     },
 243:Generated_Source\PSoC4/CapSense_Structure.c ****     { /* 10: Touchpad0_Row3 */
 244:Generated_Source\PSoC4/CapSense_Structure.c ****         (reg32 *)CapSense_Sns__10__HSIOM,
 245:Generated_Source\PSoC4/CapSense_Structure.c ****         (reg32 *)CapSense_Sns__10__PC,
 246:Generated_Source\PSoC4/CapSense_Structure.c ****         (reg32 *)CapSense_Sns__10__DR,
 247:Generated_Source\PSoC4/CapSense_Structure.c ****         (reg32 *)CapSense_Sns__10__PS,
 248:Generated_Source\PSoC4/CapSense_Structure.c ****         CapSense_Sns__10__HSIOM_MASK,
 249:Generated_Source\PSoC4/CapSense_Structure.c ****         CapSense_Sns__10__MASK,
 250:Generated_Source\PSoC4/CapSense_Structure.c ****         CapSense_Sns__10__HSIOM_SHIFT,
 251:Generated_Source\PSoC4/CapSense_Structure.c ****         (uint8)CapSense_Sns__10__SHIFT,
 252:Generated_Source\PSoC4/CapSense_Structure.c ****         (uint8)CapSense_Sns__10__SHIFT * 3u,
 253:Generated_Source\PSoC4/CapSense_Structure.c ****     },
 254:Generated_Source\PSoC4/CapSense_Structure.c ****     { /* 11: Touchpad0_Row4 */
 255:Generated_Source\PSoC4/CapSense_Structure.c ****         (reg32 *)CapSense_Sns__11__HSIOM,
 256:Generated_Source\PSoC4/CapSense_Structure.c ****         (reg32 *)CapSense_Sns__11__PC,
 257:Generated_Source\PSoC4/CapSense_Structure.c ****         (reg32 *)CapSense_Sns__11__DR,
 258:Generated_Source\PSoC4/CapSense_Structure.c ****         (reg32 *)CapSense_Sns__11__PS,
 259:Generated_Source\PSoC4/CapSense_Structure.c ****         CapSense_Sns__11__HSIOM_MASK,
ARM GAS  C:\Users\inspiron\AppData\Local\Temp\ccI2FbJy.s 			page 6


 260:Generated_Source\PSoC4/CapSense_Structure.c ****         CapSense_Sns__11__MASK,
 261:Generated_Source\PSoC4/CapSense_Structure.c ****         CapSense_Sns__11__HSIOM_SHIFT,
 262:Generated_Source\PSoC4/CapSense_Structure.c ****         (uint8)CapSense_Sns__11__SHIFT,
 263:Generated_Source\PSoC4/CapSense_Structure.c ****         (uint8)CapSense_Sns__11__SHIFT * 3u,
 264:Generated_Source\PSoC4/CapSense_Structure.c ****     },
 265:Generated_Source\PSoC4/CapSense_Structure.c ****     { /* 12: Touchpad0_Row5 */
 266:Generated_Source\PSoC4/CapSense_Structure.c ****         (reg32 *)CapSense_Sns__12__HSIOM,
 267:Generated_Source\PSoC4/CapSense_Structure.c ****         (reg32 *)CapSense_Sns__12__PC,
 268:Generated_Source\PSoC4/CapSense_Structure.c ****         (reg32 *)CapSense_Sns__12__DR,
 269:Generated_Source\PSoC4/CapSense_Structure.c ****         (reg32 *)CapSense_Sns__12__PS,
 270:Generated_Source\PSoC4/CapSense_Structure.c ****         CapSense_Sns__12__HSIOM_MASK,
 271:Generated_Source\PSoC4/CapSense_Structure.c ****         CapSense_Sns__12__MASK,
 272:Generated_Source\PSoC4/CapSense_Structure.c ****         CapSense_Sns__12__HSIOM_SHIFT,
 273:Generated_Source\PSoC4/CapSense_Structure.c ****         (uint8)CapSense_Sns__12__SHIFT,
 274:Generated_Source\PSoC4/CapSense_Structure.c ****         (uint8)CapSense_Sns__12__SHIFT * 3u,
 275:Generated_Source\PSoC4/CapSense_Structure.c ****     },
 276:Generated_Source\PSoC4/CapSense_Structure.c ****     { /* 13: Touchpad0_Row6 */
 277:Generated_Source\PSoC4/CapSense_Structure.c ****         (reg32 *)CapSense_Sns__13__HSIOM,
 278:Generated_Source\PSoC4/CapSense_Structure.c ****         (reg32 *)CapSense_Sns__13__PC,
 279:Generated_Source\PSoC4/CapSense_Structure.c ****         (reg32 *)CapSense_Sns__13__DR,
 280:Generated_Source\PSoC4/CapSense_Structure.c ****         (reg32 *)CapSense_Sns__13__PS,
 281:Generated_Source\PSoC4/CapSense_Structure.c ****         CapSense_Sns__13__HSIOM_MASK,
 282:Generated_Source\PSoC4/CapSense_Structure.c ****         CapSense_Sns__13__MASK,
 283:Generated_Source\PSoC4/CapSense_Structure.c ****         CapSense_Sns__13__HSIOM_SHIFT,
 284:Generated_Source\PSoC4/CapSense_Structure.c ****         (uint8)CapSense_Sns__13__SHIFT,
 285:Generated_Source\PSoC4/CapSense_Structure.c ****         (uint8)CapSense_Sns__13__SHIFT * 3u,
 286:Generated_Source\PSoC4/CapSense_Structure.c ****     },
 287:Generated_Source\PSoC4/CapSense_Structure.c **** };
 288:Generated_Source\PSoC4/CapSense_Structure.c **** 
 289:Generated_Source\PSoC4/CapSense_Structure.c **** 
 290:Generated_Source\PSoC4/CapSense_Structure.c **** 
 291:Generated_Source\PSoC4/CapSense_Structure.c **** /** \}
 292:Generated_Source\PSoC4/CapSense_Structure.c **** * \endcond */
 293:Generated_Source\PSoC4/CapSense_Structure.c **** 
 294:Generated_Source\PSoC4/CapSense_Structure.c **** /* Initialization data for RAM widget list */
 295:Generated_Source\PSoC4/CapSense_Structure.c **** const CapSense_RAM_WD_LIST_STRUCT CapSense_ramWidgetInit =
 296:Generated_Source\PSoC4/CapSense_Structure.c **** {
 297:Generated_Source\PSoC4/CapSense_Structure.c ****     { /* Touchpad0 */
 298:Generated_Source\PSoC4/CapSense_Structure.c ****         CapSense_TOUCHPAD0_RESOLUTION,
 299:Generated_Source\PSoC4/CapSense_Structure.c ****         CapSense_TOUCHPAD0_FINGER_TH,
 300:Generated_Source\PSoC4/CapSense_Structure.c ****         CapSense_TOUCHPAD0_NOISE_TH,
 301:Generated_Source\PSoC4/CapSense_Structure.c ****         CapSense_TOUCHPAD0_NNOISE_TH,
 302:Generated_Source\PSoC4/CapSense_Structure.c ****         CapSense_TOUCHPAD0_HYSTERESIS,
 303:Generated_Source\PSoC4/CapSense_Structure.c ****         CapSense_TOUCHPAD0_ON_DEBOUNCE,
 304:Generated_Source\PSoC4/CapSense_Structure.c ****         CapSense_TOUCHPAD0_LOW_BSLN_RST,
 305:Generated_Source\PSoC4/CapSense_Structure.c ****         {
 306:Generated_Source\PSoC4/CapSense_Structure.c ****             CapSense_TOUCHPAD0_IDAC_MOD0,
 307:Generated_Source\PSoC4/CapSense_Structure.c ****         },
 308:Generated_Source\PSoC4/CapSense_Structure.c ****         {
 309:Generated_Source\PSoC4/CapSense_Structure.c ****             CapSense_TOUCHPAD0_ROW_IDAC_MOD0,
 310:Generated_Source\PSoC4/CapSense_Structure.c ****         },
 311:Generated_Source\PSoC4/CapSense_Structure.c ****         CapSense_TOUCHPAD0_IDAC_GAIN_INDEX,
 312:Generated_Source\PSoC4/CapSense_Structure.c ****         CapSense_TOUCHPAD0_SNS_CLK,
 313:Generated_Source\PSoC4/CapSense_Structure.c ****         CapSense_TOUCHPAD0_ROW_SNS_CLK,
 314:Generated_Source\PSoC4/CapSense_Structure.c ****         CapSense_TOUCHPAD0_SNS_CLK_SOURCE,
 315:Generated_Source\PSoC4/CapSense_Structure.c ****         CapSense_TOUCHPAD0_ROW_SNS_CLK_SOURCE,
 316:Generated_Source\PSoC4/CapSense_Structure.c ****         CapSense_NO_GESTURE,
ARM GAS  C:\Users\inspiron\AppData\Local\Temp\ccI2FbJy.s 			page 7


 317:Generated_Source\PSoC4/CapSense_Structure.c ****         CapSense_TOUCHPAD0_POS_X,
 318:Generated_Source\PSoC4/CapSense_Structure.c ****         CapSense_TOUCHPAD0_POS_Y,
 319:Generated_Source\PSoC4/CapSense_Structure.c ****     },
 320:Generated_Source\PSoC4/CapSense_Structure.c **** };
 321:Generated_Source\PSoC4/CapSense_Structure.c **** 
 322:Generated_Source\PSoC4/CapSense_Structure.c **** 
 323:Generated_Source\PSoC4/CapSense_Structure.c **** /* IDAC Initialization Data */
 324:Generated_Source\PSoC4/CapSense_Structure.c **** const uint8 CapSense_ramIdacInit[CapSense_TOTAL_SENSORS] =
 325:Generated_Source\PSoC4/CapSense_Structure.c **** {
 326:Generated_Source\PSoC4/CapSense_Structure.c ****     /* Touchpad0 */
 327:Generated_Source\PSoC4/CapSense_Structure.c ****     CapSense_TOUCHPAD0_COL0_IDAC_COMP0,
 328:Generated_Source\PSoC4/CapSense_Structure.c ****     CapSense_TOUCHPAD0_COL1_IDAC_COMP0,
 329:Generated_Source\PSoC4/CapSense_Structure.c ****     CapSense_TOUCHPAD0_COL2_IDAC_COMP0,
 330:Generated_Source\PSoC4/CapSense_Structure.c ****     CapSense_TOUCHPAD0_COL3_IDAC_COMP0,
 331:Generated_Source\PSoC4/CapSense_Structure.c ****     CapSense_TOUCHPAD0_COL4_IDAC_COMP0,
 332:Generated_Source\PSoC4/CapSense_Structure.c ****     CapSense_TOUCHPAD0_COL5_IDAC_COMP0,
 333:Generated_Source\PSoC4/CapSense_Structure.c ****     CapSense_TOUCHPAD0_COL6_IDAC_COMP0,
 334:Generated_Source\PSoC4/CapSense_Structure.c ****     CapSense_TOUCHPAD0_ROW0_IDAC_COMP0,
 335:Generated_Source\PSoC4/CapSense_Structure.c ****     CapSense_TOUCHPAD0_ROW1_IDAC_COMP0,
 336:Generated_Source\PSoC4/CapSense_Structure.c ****     CapSense_TOUCHPAD0_ROW2_IDAC_COMP0,
 337:Generated_Source\PSoC4/CapSense_Structure.c ****     CapSense_TOUCHPAD0_ROW3_IDAC_COMP0,
 338:Generated_Source\PSoC4/CapSense_Structure.c ****     CapSense_TOUCHPAD0_ROW4_IDAC_COMP0,
 339:Generated_Source\PSoC4/CapSense_Structure.c ****     CapSense_TOUCHPAD0_ROW5_IDAC_COMP0,
 340:Generated_Source\PSoC4/CapSense_Structure.c ****     CapSense_TOUCHPAD0_ROW6_IDAC_COMP0,
 341:Generated_Source\PSoC4/CapSense_Structure.c **** };
 342:Generated_Source\PSoC4/CapSense_Structure.c **** 
 343:Generated_Source\PSoC4/CapSense_Structure.c **** 
 344:Generated_Source\PSoC4/CapSense_Structure.c **** 
 345:Generated_Source\PSoC4/CapSense_Structure.c **** /* Gesture Initialization Data */
 346:Generated_Source\PSoC4/CapSense_Structure.c **** const CapSense_TMG_CONFIG_STRUCT CapSense_ramGesturesInit =
 347:Generated_Source\PSoC4/CapSense_Structure.c **** {
 348:Generated_Source\PSoC4/CapSense_Structure.c ****     sizeof(CapSense_TMG_CONFIG_STRUCT),
 349:Generated_Source\PSoC4/CapSense_Structure.c ****     8u,
 350:Generated_Source\PSoC4/CapSense_Structure.c ****     8u,
 351:Generated_Source\PSoC4/CapSense_Structure.c ****     CapSense_TOUCHPAD0_DTZM_XPOS_TH,
 352:Generated_Source\PSoC4/CapSense_Structure.c ****     CapSense_TOUCHPAD0_DTZM_YPOS_TH,
 353:Generated_Source\PSoC4/CapSense_Structure.c ****     CapSense_TOUCHPAD0_STFK_POS_TH,
 354:Generated_Source\PSoC4/CapSense_Structure.c ****     CapSense_TOUCHPAD0_STFK_YPOS_TH,
 355:Generated_Source\PSoC4/CapSense_Structure.c ****     CapSense_TOUCHPAD0_STSL_XPOS_TH1,
 356:Generated_Source\PSoC4/CapSense_Structure.c ****     CapSense_TOUCHPAD0_STSL_XPOS_TH2,
 357:Generated_Source\PSoC4/CapSense_Structure.c ****     CapSense_TOUCHPAD0_STSL_XPOS_TH3,
 358:Generated_Source\PSoC4/CapSense_Structure.c ****     CapSense_TOUCHPAD0_STSL_XPOS_TH4,
 359:Generated_Source\PSoC4/CapSense_Structure.c ****     CapSense_TOUCHPAD0_STSL_YPOS_TH1,
 360:Generated_Source\PSoC4/CapSense_Structure.c ****     CapSense_TOUCHPAD0_STSL_YPOS_TH2,
 361:Generated_Source\PSoC4/CapSense_Structure.c ****     CapSense_TOUCHPAD0_STSL_YPOS_TH3,
 362:Generated_Source\PSoC4/CapSense_Structure.c ****     CapSense_TOUCHPAD0_STSL_YPOS_TH4,
 363:Generated_Source\PSoC4/CapSense_Structure.c ****     CapSense_TOUCHPAD0_STSL_SCROLL_STEP1,
 364:Generated_Source\PSoC4/CapSense_Structure.c ****     CapSense_TOUCHPAD0_STSL_SCROLL_STEP2,
 365:Generated_Source\PSoC4/CapSense_Structure.c ****     CapSense_TOUCHPAD0_STSL_SCROLL_STEP3,
 366:Generated_Source\PSoC4/CapSense_Structure.c ****     CapSense_TOUCHPAD0_STSL_SCROLL_STEP4,
 367:Generated_Source\PSoC4/CapSense_Structure.c ****     CapSense_TOUCHPAD0_STSL_DEBOUNCE,
 368:Generated_Source\PSoC4/CapSense_Structure.c ****     CapSense_TOUCHPAD0_DTSL_XPOS_TH1,
 369:Generated_Source\PSoC4/CapSense_Structure.c ****     CapSense_TOUCHPAD0_DTSL_XPOS_TH2,
 370:Generated_Source\PSoC4/CapSense_Structure.c ****     CapSense_TOUCHPAD0_DTSL_XPOS_TH3,
 371:Generated_Source\PSoC4/CapSense_Structure.c ****     CapSense_TOUCHPAD0_DTSL_XPOS_TH4,
 372:Generated_Source\PSoC4/CapSense_Structure.c ****     CapSense_TOUCHPAD0_DTSL_YPOS_TH1,
 373:Generated_Source\PSoC4/CapSense_Structure.c ****     CapSense_TOUCHPAD0_DTSL_YPOS_TH2,
ARM GAS  C:\Users\inspiron\AppData\Local\Temp\ccI2FbJy.s 			page 8


 374:Generated_Source\PSoC4/CapSense_Structure.c ****     CapSense_TOUCHPAD0_DTSL_YPOS_TH3,
 375:Generated_Source\PSoC4/CapSense_Structure.c ****     CapSense_TOUCHPAD0_DTSL_YPOS_TH4,
 376:Generated_Source\PSoC4/CapSense_Structure.c ****     CapSense_TOUCHPAD0_DTSL_SCROLL_STEP1,
 377:Generated_Source\PSoC4/CapSense_Structure.c ****     CapSense_TOUCHPAD0_DTSL_SCROLL_STEP2,
 378:Generated_Source\PSoC4/CapSense_Structure.c ****     CapSense_TOUCHPAD0_DTSL_SCROLL_STEP3,
 379:Generated_Source\PSoC4/CapSense_Structure.c ****     CapSense_TOUCHPAD0_DTSL_SCROLL_STEP4,
 380:Generated_Source\PSoC4/CapSense_Structure.c ****     CapSense_TOUCHPAD0_DTSL_DEBOUNCE,
 381:Generated_Source\PSoC4/CapSense_Structure.c ****     CapSense_TOUCHPAD0_DTZM_SCROLL_ZOOM_DEBOUNCE,
 382:Generated_Source\PSoC4/CapSense_Structure.c ****     CapSense_TOUCHPAD0_STSL_XPOS_TH,
 383:Generated_Source\PSoC4/CapSense_Structure.c ****     CapSense_TOUCHPAD0_STSL_YPOS_TH,
 384:Generated_Source\PSoC4/CapSense_Structure.c ****     CapSense_TOUCHPAD0_STSL_COUNT_LEVEL,
 385:Generated_Source\PSoC4/CapSense_Structure.c ****     CapSense_TOUCHPAD0_DTSL_XPOS_TH,
 386:Generated_Source\PSoC4/CapSense_Structure.c ****     CapSense_TOUCHPAD0_DTSL_YPOS_TH,
 387:Generated_Source\PSoC4/CapSense_Structure.c ****     CapSense_TOUCHPAD0_DTSL_COUNT_LEVEL,
 388:Generated_Source\PSoC4/CapSense_Structure.c ****     CapSense_TOUCHPAD0_STES_POS_TH,
 389:Generated_Source\PSoC4/CapSense_Structure.c ****     CapSense_TOUCHPAD0_STES_TOP_ANGLE_TH,
 390:Generated_Source\PSoC4/CapSense_Structure.c ****     CapSense_TOUCHPAD0_STES_BOTTOM_ANGLE_TH,
 391:Generated_Source\PSoC4/CapSense_Structure.c ****     CapSense_TOUCHPAD0_STES_DISAM_AREA_WIDTH,
 392:Generated_Source\PSoC4/CapSense_Structure.c ****     3u,
 393:Generated_Source\PSoC4/CapSense_Structure.c ****     CapSense_TOUCHPAD0_DTZM_DEBOUNCE,
 394:Generated_Source\PSoC4/CapSense_Structure.c ****     CapSense_TOUCHPAD0_DTZM_DEBOUNCE,
 395:Generated_Source\PSoC4/CapSense_Structure.c ****     3u,
 396:Generated_Source\PSoC4/CapSense_Structure.c ****     CapSense_TOUCHPAD0_STRT_ROTATE_DEBOUNCE,
 397:Generated_Source\PSoC4/CapSense_Structure.c ****     0u,
 398:Generated_Source\PSoC4/CapSense_Structure.c ****     CapSense_TOUCHPAD0_STDC_MAX_RADIUS_DISPLACEMENT,
 399:Generated_Source\PSoC4/CapSense_Structure.c ****     CapSense_TOUCHPAD0_STSC_XMAX_POS_DISPLACEMENT,
 400:Generated_Source\PSoC4/CapSense_Structure.c ****     CapSense_TOUCHPAD0_STSC_YMAX_POS_DISPLACEMENT,
 401:Generated_Source\PSoC4/CapSense_Structure.c ****     CapSense_TOUCHPAD0_DT_SETTLING_TIME,
 402:Generated_Source\PSoC4/CapSense_Structure.c ****     CapSense_TOUCHPAD0_X_RESOLUTION,
 403:Generated_Source\PSoC4/CapSense_Structure.c ****     CapSense_TOUCHPAD0_Y_RESOLUTION,
 404:Generated_Source\PSoC4/CapSense_Structure.c ****     CapSense_TOUCHPAD0_STFK_MAX_SAMPLE_INTERVAL,
 405:Generated_Source\PSoC4/CapSense_Structure.c ****     CapSense_TOUCHPAD0_STES_TIMEOUT_INTERVAL,
 406:Generated_Source\PSoC4/CapSense_Structure.c ****     CapSense_TOUCHPAD0_DTSC_MAX_TOUCH_DURATION,
 407:Generated_Source\PSoC4/CapSense_Structure.c ****     CapSense_TOUCHPAD0_DTSC_MIN_TOUCH_DURATION,
 408:Generated_Source\PSoC4/CapSense_Structure.c ****     CapSense_TOUCHPAD0_STSC_MAX_TOUCH_DURATION,
 409:Generated_Source\PSoC4/CapSense_Structure.c ****     CapSense_TOUCHPAD0_STSC_MIN_TOUCH_DURATION,
 410:Generated_Source\PSoC4/CapSense_Structure.c ****     CapSense_TOUCHPAD0_STDC_MAX_TOUCH_INTERVAL,
 411:Generated_Source\PSoC4/CapSense_Structure.c ****     CapSense_TOUCHPAD0_STDC_MIN_TOUCH_INTERVAL,
 412:Generated_Source\PSoC4/CapSense_Structure.c ****     240u,
 413:Generated_Source\PSoC4/CapSense_Structure.c ****     40u,
 414:Generated_Source\PSoC4/CapSense_Structure.c ****     41u,
 415:Generated_Source\PSoC4/CapSense_Structure.c ****     48u,
 416:Generated_Source\PSoC4/CapSense_Structure.c ****     63u,
 417:Generated_Source\PSoC4/CapSense_Structure.c ****     72u,
 418:Generated_Source\PSoC4/CapSense_Structure.c ****     73u,
 419:Generated_Source\PSoC4/CapSense_Structure.c ****     144u,
 420:Generated_Source\PSoC4/CapSense_Structure.c ****     159u,
 421:Generated_Source\PSoC4/CapSense_Structure.c **** };
 422:Generated_Source\PSoC4/CapSense_Structure.c **** 
 423:Generated_Source\PSoC4/CapSense_Structure.c **** 
 424:Generated_Source\PSoC4/CapSense_Structure.c **** 
 425:Generated_Source\PSoC4/CapSense_Structure.c **** /*******************************************************************************
 426:Generated_Source\PSoC4/CapSense_Structure.c **** * Defines internal data types and statements
 427:Generated_Source\PSoC4/CapSense_Structure.c **** *******************************************************************************/
 428:Generated_Source\PSoC4/CapSense_Structure.c **** #define PARAM_TYPE_OFFSET       (30u)
 429:Generated_Source\PSoC4/CapSense_Structure.c **** #define PARAM_TYPE_MASK         (3Lu << PARAM_TYPE_OFFSET)
 430:Generated_Source\PSoC4/CapSense_Structure.c **** #define PARAM_RWBIT_OFFSET      (29u)
ARM GAS  C:\Users\inspiron\AppData\Local\Temp\ccI2FbJy.s 			page 9


 431:Generated_Source\PSoC4/CapSense_Structure.c **** #define PARAM_RWBIT_MASK        (1Lu << PARAM_RWBIT_OFFSET)
 432:Generated_Source\PSoC4/CapSense_Structure.c **** #define PARAM_FBIT_OFFSET       (28u)
 433:Generated_Source\PSoC4/CapSense_Structure.c **** #define PARAM_FBIT_MASK         (1Lu << PARAM_FBIT_OFFSET)
 434:Generated_Source\PSoC4/CapSense_Structure.c **** #define PARAM_UBIT_OFFSET       (23u)
 435:Generated_Source\PSoC4/CapSense_Structure.c **** #define PARAM_UBIT_MASK         (1Lu << PARAM_UBIT_OFFSET)
 436:Generated_Source\PSoC4/CapSense_Structure.c **** #define PARAM_WDID_OFFSET       (16u)
 437:Generated_Source\PSoC4/CapSense_Structure.c **** #define PARAM_WDID_MASK         (0x7FLu << PARAM_WDID_OFFSET)
 438:Generated_Source\PSoC4/CapSense_Structure.c **** #define PARAM_CRC_OFFSET        (24u)
 439:Generated_Source\PSoC4/CapSense_Structure.c **** #define PARAM_CRC_MASK          (0x0FLu << PARAM_CRC_OFFSET)
 440:Generated_Source\PSoC4/CapSense_Structure.c **** 
 441:Generated_Source\PSoC4/CapSense_Structure.c **** /* Defines align masks for uint16 and uint32 */
 442:Generated_Source\PSoC4/CapSense_Structure.c **** #define UINT16_ALIGN_MASK       (1Lu)
 443:Generated_Source\PSoC4/CapSense_Structure.c **** #define UINT32_ALIGN_MASK       (3Lu)
 444:Generated_Source\PSoC4/CapSense_Structure.c **** 
 445:Generated_Source\PSoC4/CapSense_Structure.c **** /* Defines supported parameter types */
 446:Generated_Source\PSoC4/CapSense_Structure.c **** #define DS_PARAM_TYPE_UINT8     (0x01u)
 447:Generated_Source\PSoC4/CapSense_Structure.c **** #define DS_PARAM_TYPE_UINT16    (0x02u)
 448:Generated_Source\PSoC4/CapSense_Structure.c **** #define DS_PARAM_TYPE_UINT32    (0x03u)
 449:Generated_Source\PSoC4/CapSense_Structure.c **** 
 450:Generated_Source\PSoC4/CapSense_Structure.c **** 
 451:Generated_Source\PSoC4/CapSense_Structure.c **** /* Defines PARAM_ID structure */
 452:Generated_Source\PSoC4/CapSense_Structure.c **** typedef struct
 453:Generated_Source\PSoC4/CapSense_Structure.c **** {
 454:Generated_Source\PSoC4/CapSense_Structure.c ****     uint16 offset;      /* parameter offset */
 455:Generated_Source\PSoC4/CapSense_Structure.c ****     uint8  widgetId;    /* widget Id parameter belongs to */
 456:Generated_Source\PSoC4/CapSense_Structure.c ****     uint8  affectsCrc;  /* parameter affects widget CRC */
 457:Generated_Source\PSoC4/CapSense_Structure.c ****     uint8  crc;         /* parameter CRC */
 458:Generated_Source\PSoC4/CapSense_Structure.c ****     uint8  flash;       /* parameter located in FLASH flag */
 459:Generated_Source\PSoC4/CapSense_Structure.c ****     uint8  rw;          /* parameter is read/write flag */
 460:Generated_Source\PSoC4/CapSense_Structure.c ****     uint8  type;        /* parameter type: uint8/uint16/uint32 */
 461:Generated_Source\PSoC4/CapSense_Structure.c **** } PARAM_ID_STRUCT;
 462:Generated_Source\PSoC4/CapSense_Structure.c **** 
 463:Generated_Source\PSoC4/CapSense_Structure.c **** 
 464:Generated_Source\PSoC4/CapSense_Structure.c **** /*******************************************************************************
 465:Generated_Source\PSoC4/CapSense_Structure.c **** * Static Function Prototypes
 466:Generated_Source\PSoC4/CapSense_Structure.c **** *******************************************************************************/
 467:Generated_Source\PSoC4/CapSense_Structure.c **** /**
 468:Generated_Source\PSoC4/CapSense_Structure.c **** * \cond SECTION_C_INTERNAL
 469:Generated_Source\PSoC4/CapSense_Structure.c **** * \addtogroup group_c_internal
 470:Generated_Source\PSoC4/CapSense_Structure.c **** * \{
 471:Generated_Source\PSoC4/CapSense_Structure.c **** */
 472:Generated_Source\PSoC4/CapSense_Structure.c **** 
 473:Generated_Source\PSoC4/CapSense_Structure.c **** 
 474:Generated_Source\PSoC4/CapSense_Structure.c **** 
 475:Generated_Source\PSoC4/CapSense_Structure.c **** static cystatus DsParseParamId(uint32 paramId, PARAM_ID_STRUCT *pData);
 476:Generated_Source\PSoC4/CapSense_Structure.c **** 
 477:Generated_Source\PSoC4/CapSense_Structure.c **** /** \}
 478:Generated_Source\PSoC4/CapSense_Structure.c **** * \endcond */
 479:Generated_Source\PSoC4/CapSense_Structure.c **** 
 480:Generated_Source\PSoC4/CapSense_Structure.c **** 
 481:Generated_Source\PSoC4/CapSense_Structure.c **** /*******************************************************************************
 482:Generated_Source\PSoC4/CapSense_Structure.c **** * Function Name: CapSense_DsInitialize
 483:Generated_Source\PSoC4/CapSense_Structure.c **** ****************************************************************************//**
 484:Generated_Source\PSoC4/CapSense_Structure.c **** *
 485:Generated_Source\PSoC4/CapSense_Structure.c **** * \brief
 486:Generated_Source\PSoC4/CapSense_Structure.c **** *   This function initializes the Data Structure storage.
 487:Generated_Source\PSoC4/CapSense_Structure.c **** *
ARM GAS  C:\Users\inspiron\AppData\Local\Temp\ccI2FbJy.s 			page 10


 488:Generated_Source\PSoC4/CapSense_Structure.c **** * \details
 489:Generated_Source\PSoC4/CapSense_Structure.c **** *   This function copies the default widget configuration parameters
 490:Generated_Source\PSoC4/CapSense_Structure.c **** *   from the Flash storage into the RAM Data Structure.
 491:Generated_Source\PSoC4/CapSense_Structure.c **** *
 492:Generated_Source\PSoC4/CapSense_Structure.c **** *******************************************************************************/
 493:Generated_Source\PSoC4/CapSense_Structure.c **** void CapSense_DsInitialize(void)
 494:Generated_Source\PSoC4/CapSense_Structure.c **** {
 495:Generated_Source\PSoC4/CapSense_Structure.c ****     #if ((CapSense_ENABLE == CapSense_CSX_EN) || \
 496:Generated_Source\PSoC4/CapSense_Structure.c ****          (CapSense_ENABLE == CapSense_CSD_IDAC_COMP_EN) || \
 497:Generated_Source\PSoC4/CapSense_Structure.c ****         ((CapSense_ENABLE == CapSense_CSX_EN) && \
 498:Generated_Source\PSoC4/CapSense_Structure.c ****          (CapSense_ENABLE == CapSense_CSX_SKIP_OVSMPL_SPECIFIC_NODES)))
 499:Generated_Source\PSoC4/CapSense_Structure.c ****         uint32 snsId;
 500:Generated_Source\PSoC4/CapSense_Structure.c ****         uint32 wdgtId;
 501:Generated_Source\PSoC4/CapSense_Structure.c ****         CapSense_RAM_SNS_STRUCT * ptrSnsTmp;
 502:Generated_Source\PSoC4/CapSense_Structure.c ****         CapSense_FLASH_WD_STRUCT const * ptrFlashWdgt;
 503:Generated_Source\PSoC4/CapSense_Structure.c ****     #endif
 504:Generated_Source\PSoC4/CapSense_Structure.c **** 
 505:Generated_Source\PSoC4/CapSense_Structure.c ****     #if ((CapSense_ENABLE == CapSense_CSX_EN) && \
 506:Generated_Source\PSoC4/CapSense_Structure.c ****          (CapSense_ENABLE == CapSense_CSX_SKIP_OVSMPL_SPECIFIC_NODES))
 507:Generated_Source\PSoC4/CapSense_Structure.c ****         uint16 subConvNumber;
 508:Generated_Source\PSoC4/CapSense_Structure.c ****     #endif
 509:Generated_Source\PSoC4/CapSense_Structure.c **** 
 510:Generated_Source\PSoC4/CapSense_Structure.c ****     #if ((0u != CapSense_CSX_EN) || (0 != CapSense_CSD_IDAC_COMP_EN))
 511:Generated_Source\PSoC4/CapSense_Structure.c ****         uint8 const * ptrIdacInit = CapSense_ramIdacInit;
 512:Generated_Source\PSoC4/CapSense_Structure.c ****     #endif
 513:Generated_Source\PSoC4/CapSense_Structure.c **** 
 514:Generated_Source\PSoC4/CapSense_Structure.c ****     /* Reset RAM data structure content */
 515:Generated_Source\PSoC4/CapSense_Structure.c ****     (void)memset(&CapSense_dsRam, 0, sizeof(CapSense_dsRam));
 516:Generated_Source\PSoC4/CapSense_Structure.c **** 
 517:Generated_Source\PSoC4/CapSense_Structure.c ****     /* Initialize configId, deviceId and hwClock registers */
 518:Generated_Source\PSoC4/CapSense_Structure.c ****     CapSense_dsRam.configId = CapSense_CONFIG_ID;
 519:Generated_Source\PSoC4/CapSense_Structure.c ****     CapSense_dsRam.deviceId = CapSense_DEVICE_ID;
 520:Generated_Source\PSoC4/CapSense_Structure.c ****     CapSense_dsRam.hwClock = CapSense_HW_CLOCK;
 521:Generated_Source\PSoC4/CapSense_Structure.c **** 
 522:Generated_Source\PSoC4/CapSense_Structure.c ****     /* Initialize global RAM data */
 523:Generated_Source\PSoC4/CapSense_Structure.c ****     CapSense_dsRam.csd0Config = CapSense_CSD0_CONFIG;
 524:Generated_Source\PSoC4/CapSense_Structure.c **** 
 525:Generated_Source\PSoC4/CapSense_Structure.c ****     CapSense_dsRam.scanCurrentISC = CapSense_SNS_CONNECTION_UNDEFINED;
 526:Generated_Source\PSoC4/CapSense_Structure.c ****     #if (0u != CapSense_TOTAL_CSD_WIDGETS)
 527:Generated_Source\PSoC4/CapSense_Structure.c ****         CapSense_dsRam.modCsdClk = CapSense_CSD_SCANSPEED_DIVIDER;
 528:Generated_Source\PSoC4/CapSense_Structure.c ****         CapSense_dsRam.scanCsdISC = CapSense_CSD_INACTIVE_SNS_CONNECTION;
 529:Generated_Source\PSoC4/CapSense_Structure.c **** 
 530:Generated_Source\PSoC4/CapSense_Structure.c ****         #if (0u != CapSense_CSD_COMMON_SNS_CLK_EN)
 531:Generated_Source\PSoC4/CapSense_Structure.c ****             CapSense_dsRam.snsCsdClk = CapSense_CSD_SNS_CLK_DIVIDER;
 532:Generated_Source\PSoC4/CapSense_Structure.c ****         #endif /* #if (0u != CapSense_CSD_COMMON_SNS_CLK_EN) */
 533:Generated_Source\PSoC4/CapSense_Structure.c ****     #endif /* #if (0u != CapSense_TOTAL_CSD_WIDGETS) */
 534:Generated_Source\PSoC4/CapSense_Structure.c **** 
 535:Generated_Source\PSoC4/CapSense_Structure.c ****     #if (CapSense_ENABLE == CapSense_CSX_EN)
 536:Generated_Source\PSoC4/CapSense_Structure.c ****         CapSense_dsRam.modCsxClk = CapSense_CSX_SCANSPEED_DIVIDER;
 537:Generated_Source\PSoC4/CapSense_Structure.c ****         CapSense_dsRam.scanCsxISC = CapSense_CSX_INACTIVE_SNS_CONNECTION;
 538:Generated_Source\PSoC4/CapSense_Structure.c **** 
 539:Generated_Source\PSoC4/CapSense_Structure.c ****         #if (0u != CapSense_CSX_COMMON_TX_CLK_EN)
 540:Generated_Source\PSoC4/CapSense_Structure.c ****             CapSense_dsRam.snsCsxClk = CapSense_CSX_TX_CLK_DIVIDER;
 541:Generated_Source\PSoC4/CapSense_Structure.c ****         #endif /* #if (0u != CapSense_CSX_COMMON_TX_CLK_EN) */
 542:Generated_Source\PSoC4/CapSense_Structure.c ****     #endif /* #if (CapSense_ENABLE == CapSense_CSX_EN) */
 543:Generated_Source\PSoC4/CapSense_Structure.c **** 
 544:Generated_Source\PSoC4/CapSense_Structure.c ****     #if (CapSense_ENABLE == CapSense_ISX_EN)
ARM GAS  C:\Users\inspiron\AppData\Local\Temp\ccI2FbJy.s 			page 11


 545:Generated_Source\PSoC4/CapSense_Structure.c ****         CapSense_dsRam.modIsxClk = CapSense_ISX_SCANSPEED_DIVIDER;
 546:Generated_Source\PSoC4/CapSense_Structure.c ****     #endif /* #if (0u != CapSense_ISX_EN) */
 547:Generated_Source\PSoC4/CapSense_Structure.c **** 
 548:Generated_Source\PSoC4/CapSense_Structure.c ****     #if (0u != CapSense_SELF_TEST_EN)
 549:Generated_Source\PSoC4/CapSense_Structure.c **** 
 550:Generated_Source\PSoC4/CapSense_Structure.c ****         CapSense_dsRam.glbCrc = CapSense_GLB_CRC;
 551:Generated_Source\PSoC4/CapSense_Structure.c ****         CapSense_dsRam.selfTestConfig.fineInitTime = (uint8)CapSense_TST_FINE_INIT_TIME;
 552:Generated_Source\PSoC4/CapSense_Structure.c ****         CapSense_dsRam.selfTestConfig.startupDelay = CapSense_TST_ANALOG_STARTUP_DELAY_US;
 553:Generated_Source\PSoC4/CapSense_Structure.c **** 
 554:Generated_Source\PSoC4/CapSense_Structure.c ****         #if (0u != CapSense_TST_SNS_SHORT_EN)
 555:Generated_Source\PSoC4/CapSense_Structure.c ****             CapSense_dsRam.selfTestConfig.snsShortTimeUs = CapSense_TST_SNS_SHORT_TIME;
 556:Generated_Source\PSoC4/CapSense_Structure.c ****         #endif
 557:Generated_Source\PSoC4/CapSense_Structure.c **** 
 558:Generated_Source\PSoC4/CapSense_Structure.c ****         #if ((0u != CapSense_TST_SNS_CAP_EN) ||\
 559:Generated_Source\PSoC4/CapSense_Structure.c ****              (0u != CapSense_TST_SH_CAP_EN))
 560:Generated_Source\PSoC4/CapSense_Structure.c ****             CapSense_dsRam.selfTestConfig.snsCapSnsClkDivider = CapSense_TST_SNS_CAP_SNS_CLK_DIVIDE
 561:Generated_Source\PSoC4/CapSense_Structure.c ****             CapSense_dsRam.selfTestConfig.snsCapSnsClkHz = CapSense_TST_SNS_CAP_SNS_CLK_HZ;
 562:Generated_Source\PSoC4/CapSense_Structure.c ****             CapSense_dsRam.selfTestConfig.snsCapResolution = CapSense_TST_SNS_CAP_RESOLUTION;
 563:Generated_Source\PSoC4/CapSense_Structure.c ****             CapSense_dsRam.selfTestConfig.snsCapVrefGain = CapSense_TST_SNS_CAP_VREF_GAIN ;
 564:Generated_Source\PSoC4/CapSense_Structure.c ****             CapSense_dsRam.selfTestConfig.snsCapVrefVoltage = CapSense_TST_SNS_CAP_VREF_MV;
 565:Generated_Source\PSoC4/CapSense_Structure.c ****             CapSense_dsRam.selfTestConfig.snsCapModClkDivider = CapSense_TST_MOD_CLK_DIVIDER ;
 566:Generated_Source\PSoC4/CapSense_Structure.c ****             CapSense_dsRam.selfTestConfig.snsCapModClkKHz = CapSense_TST_MOD_CLK_KHZ ;
 567:Generated_Source\PSoC4/CapSense_Structure.c ****         #endif /* ((0u != CapSense_TST_SNS_CAP_EN) ||
 568:Generated_Source\PSoC4/CapSense_Structure.c ****                    (0u != CapSense_TST_SH_CAP_EN)) */
 569:Generated_Source\PSoC4/CapSense_Structure.c **** 
 570:Generated_Source\PSoC4/CapSense_Structure.c ****         #if (0u != CapSense_TST_SNS_CAP_EN)
 571:Generated_Source\PSoC4/CapSense_Structure.c ****             #if (0u != CapSense_CSD_EN)
 572:Generated_Source\PSoC4/CapSense_Structure.c ****                 CapSense_dsRam.selfTestConfig.bistCsdSnsCapISC = CapSense_SNS_CAP_CSD_INACTIVE_CONN
 573:Generated_Source\PSoC4/CapSense_Structure.c ****             #endif /* (0u != CapSense_CSD_EN) */
 574:Generated_Source\PSoC4/CapSense_Structure.c ****             #if (0u != CapSense_CSX_EN)
 575:Generated_Source\PSoC4/CapSense_Structure.c ****                 CapSense_dsRam.selfTestConfig.bistCsxSnsCapISC = CapSense_SNS_CAP_CSX_INACTIVE_CONN
 576:Generated_Source\PSoC4/CapSense_Structure.c ****             #endif /* (0u != CapSense_CSX_EN) */
 577:Generated_Source\PSoC4/CapSense_Structure.c ****         #endif /* (0u != CapSense_TST_SNS_CAP_EN) */
 578:Generated_Source\PSoC4/CapSense_Structure.c **** 
 579:Generated_Source\PSoC4/CapSense_Structure.c ****         #if (0u != CapSense_TST_SH_CAP_EN)
 580:Generated_Source\PSoC4/CapSense_Structure.c ****             #if ((0u != CapSense_CSD_EN) && (0u != CapSense_CSD_SHIELD_EN))
 581:Generated_Source\PSoC4/CapSense_Structure.c ****                 CapSense_dsRam.selfTestConfig.bistCsdShCapISC = CapSense_SHIELD_CAP_INACTIVE_CONNEC
 582:Generated_Source\PSoC4/CapSense_Structure.c ****             #endif /* ((0u != CapSense_CSD_EN) && (0u != CapSense_CSD_SHIELD_EN)) */
 583:Generated_Source\PSoC4/CapSense_Structure.c ****         #endif /* (0u != CapSense_TST_SH_CAP_EN) */
 584:Generated_Source\PSoC4/CapSense_Structure.c **** 
 585:Generated_Source\PSoC4/CapSense_Structure.c ****         #if (0u != CapSense_TST_EXTERNAL_CAP_EN)
 586:Generated_Source\PSoC4/CapSense_Structure.c ****             CapSense_dsRam.selfTestConfig.extCapVrefGain = CapSense_TST_EXT_CAP_VREF_GAIN;
 587:Generated_Source\PSoC4/CapSense_Structure.c ****             CapSense_dsRam.selfTestConfig.extCapVrefVoltage = CapSense_TST_EXT_CAP_VREF_MV;
 588:Generated_Source\PSoC4/CapSense_Structure.c ****         #endif /* #if (0u != CapSense_TST_EXTERNAL_CAP_EN) */
 589:Generated_Source\PSoC4/CapSense_Structure.c **** 
 590:Generated_Source\PSoC4/CapSense_Structure.c ****         #if (0u != CapSense_TST_VDDA_EN)
 591:Generated_Source\PSoC4/CapSense_Structure.c ****             CapSense_dsRam.selfTestConfig.vddaResolution = CapSense_TST_VDDA_RESOLUTION;
 592:Generated_Source\PSoC4/CapSense_Structure.c ****             CapSense_dsRam.selfTestConfig.vddaModClkDivider = CapSense_TST_VDDA_MOD_CLK_DIVIDER;
 593:Generated_Source\PSoC4/CapSense_Structure.c **** 
 594:Generated_Source\PSoC4/CapSense_Structure.c ****             CapSense_dsRam.selfTestConfig.vddaVrefGain = CapSense_TST_VDDA_VREF_GAIN;
 595:Generated_Source\PSoC4/CapSense_Structure.c ****             CapSense_dsRam.selfTestConfig.vddaVrefVoltage = CapSense_TST_VDDA_VREF_MV;
 596:Generated_Source\PSoC4/CapSense_Structure.c ****         #endif /* #if (0u != CapSense_TST_VDDA_EN) */
 597:Generated_Source\PSoC4/CapSense_Structure.c **** 
 598:Generated_Source\PSoC4/CapSense_Structure.c ****     #endif /* #if (0u != CapSense_SELF_TEST_EN) */
 599:Generated_Source\PSoC4/CapSense_Structure.c **** 
 600:Generated_Source\PSoC4/CapSense_Structure.c ****     /* Initialize RAM widget data */
 601:Generated_Source\PSoC4/CapSense_Structure.c ****     CapSense_dsRam.wdgtList = CapSense_ramWidgetInit;
ARM GAS  C:\Users\inspiron\AppData\Local\Temp\ccI2FbJy.s 			page 12


 602:Generated_Source\PSoC4/CapSense_Structure.c **** 
 603:Generated_Source\PSoC4/CapSense_Structure.c ****     /* Initialize Gesture configuration structure */
 604:Generated_Source\PSoC4/CapSense_Structure.c ****     #if ((0u != CapSense_GES_GLOBAL_EN) || (0u != CapSense_BALLISTIC_MULTIPLIER_EN))
 605:Generated_Source\PSoC4/CapSense_Structure.c ****         CapSense_dsRam.timestampInterval = CapSense_TIMESTAMP_INTERVAL;
 606:Generated_Source\PSoC4/CapSense_Structure.c ****     #endif /* ((0u != CapSense_GES_GLOBAL_EN) || (0u != CapSense_BALLISTIC_MULTIPLIER_EN)) */
 607:Generated_Source\PSoC4/CapSense_Structure.c **** 
 608:Generated_Source\PSoC4/CapSense_Structure.c ****     #if (0u != CapSense_GES_GLOBAL_EN)
 609:Generated_Source\PSoC4/CapSense_Structure.c ****         CapSense_dsRam.gestures = CapSense_ramGesturesInit;
 610:Generated_Source\PSoC4/CapSense_Structure.c ****     #endif /* (0u != CapSense_GES_GLOBAL_EN) */
 611:Generated_Source\PSoC4/CapSense_Structure.c **** 
 612:Generated_Source\PSoC4/CapSense_Structure.c ****     #if (0u != CapSense_BALLISTIC_MULTIPLIER_EN)
 613:Generated_Source\PSoC4/CapSense_Structure.c ****         CapSense_dsRam.ballisticConfig = CapSense_ramBallisticInit;
 614:Generated_Source\PSoC4/CapSense_Structure.c ****     #endif /* (0u != CapSense_BALLISTIC_MULTIPLIER_EN) */
 615:Generated_Source\PSoC4/CapSense_Structure.c **** 
 616:Generated_Source\PSoC4/CapSense_Structure.c ****     #if (0u != CapSense_CSX_EN) || (0 != CapSense_CSD_IDAC_COMP_EN)
 617:Generated_Source\PSoC4/CapSense_Structure.c ****         /* Initialize IDAC data */
 618:Generated_Source\PSoC4/CapSense_Structure.c ****         ptrFlashWdgt = CapSense_dsFlash.wdgtArray;
 619:Generated_Source\PSoC4/CapSense_Structure.c **** 
 620:Generated_Source\PSoC4/CapSense_Structure.c ****         for (wdgtId = CapSense_TOTAL_WIDGETS; wdgtId-- > 0u; )
 621:Generated_Source\PSoC4/CapSense_Structure.c ****         {
 622:Generated_Source\PSoC4/CapSense_Structure.c ****             ptrSnsTmp = ptrFlashWdgt->ptr2SnsRam;
 623:Generated_Source\PSoC4/CapSense_Structure.c **** 
 624:Generated_Source\PSoC4/CapSense_Structure.c ****             for (snsId = CapSense_GET_SNS_CNT_BY_PTR(ptrFlashWdgt); snsId-- > 0u;)
 625:Generated_Source\PSoC4/CapSense_Structure.c ****             {
 626:Generated_Source\PSoC4/CapSense_Structure.c ****                 ptrSnsTmp->idacComp[0u] = *ptrIdacInit;
 627:Generated_Source\PSoC4/CapSense_Structure.c ****                 ptrIdacInit++;
 628:Generated_Source\PSoC4/CapSense_Structure.c **** 
 629:Generated_Source\PSoC4/CapSense_Structure.c ****                 #if (0u != CapSense_MULTI_FREQ_SCAN_EN)
 630:Generated_Source\PSoC4/CapSense_Structure.c ****                     ptrSnsTmp->idacComp[1u] = *ptrIdacInit;
 631:Generated_Source\PSoC4/CapSense_Structure.c ****                     ptrIdacInit++;
 632:Generated_Source\PSoC4/CapSense_Structure.c **** 
 633:Generated_Source\PSoC4/CapSense_Structure.c ****                     ptrSnsTmp->idacComp[2u] = *ptrIdacInit;
 634:Generated_Source\PSoC4/CapSense_Structure.c ****                     ptrIdacInit++;
 635:Generated_Source\PSoC4/CapSense_Structure.c ****                 #endif /* #if (0u != CapSense_MULTI_FREQ_SCAN_EN) */
 636:Generated_Source\PSoC4/CapSense_Structure.c **** 
 637:Generated_Source\PSoC4/CapSense_Structure.c ****                 ptrSnsTmp++;
 638:Generated_Source\PSoC4/CapSense_Structure.c ****             }
 639:Generated_Source\PSoC4/CapSense_Structure.c **** 
 640:Generated_Source\PSoC4/CapSense_Structure.c ****             ptrFlashWdgt++; /* Move to next widget */
 641:Generated_Source\PSoC4/CapSense_Structure.c ****         }
 642:Generated_Source\PSoC4/CapSense_Structure.c ****     #endif /*(0u != CapSense_CSX_EN) || (0 != CapSense_CSD_IDAC_COMP_EN)*/
 643:Generated_Source\PSoC4/CapSense_Structure.c **** 
 644:Generated_Source\PSoC4/CapSense_Structure.c ****     #if ((CapSense_ENABLE == CapSense_CSX_EN) && \
 645:Generated_Source\PSoC4/CapSense_Structure.c ****          (CapSense_ENABLE == CapSense_CSX_SKIP_OVSMPL_SPECIFIC_NODES))
 646:Generated_Source\PSoC4/CapSense_Structure.c ****         /* Initialize Sub-Conversion Number for each node of each CSX widget */
 647:Generated_Source\PSoC4/CapSense_Structure.c ****         ptrFlashWdgt = CapSense_dsFlash.wdgtArray;
 648:Generated_Source\PSoC4/CapSense_Structure.c ****         for (wdgtId = CapSense_TOTAL_WIDGETS; wdgtId-- > 0u;)
 649:Generated_Source\PSoC4/CapSense_Structure.c ****         {
 650:Generated_Source\PSoC4/CapSense_Structure.c ****             /* Check for widget sense method */
 651:Generated_Source\PSoC4/CapSense_Structure.c ****             if (CapSense_SENSE_METHOD_CSX_E == CapSense_GET_SENSE_METHOD(ptrFlashWdgt))
 652:Generated_Source\PSoC4/CapSense_Structure.c ****             {
 653:Generated_Source\PSoC4/CapSense_Structure.c ****                 /* Take the sub-convesion number of a CSX widget and initialize each node of this w
 654:Generated_Source\PSoC4/CapSense_Structure.c ****                 subConvNumber = ((CapSense_RAM_WD_BASE_STRUCT *)(ptrFlashWdgt->ptr2WdgtRam))->resol
 655:Generated_Source\PSoC4/CapSense_Structure.c ****                 ptrSnsTmp = ptrFlashWdgt->ptr2SnsRam;
 656:Generated_Source\PSoC4/CapSense_Structure.c ****                 for (snsId = CapSense_GET_SNS_CNT_BY_PTR(ptrFlashWdgt); snsId-- > 0u;)
 657:Generated_Source\PSoC4/CapSense_Structure.c ****                 {
 658:Generated_Source\PSoC4/CapSense_Structure.c ****                     ptrSnsTmp->subConvNum = subConvNumber;
ARM GAS  C:\Users\inspiron\AppData\Local\Temp\ccI2FbJy.s 			page 13


 659:Generated_Source\PSoC4/CapSense_Structure.c ****                     ptrSnsTmp++;
 660:Generated_Source\PSoC4/CapSense_Structure.c ****                 }
 661:Generated_Source\PSoC4/CapSense_Structure.c ****             }
 662:Generated_Source\PSoC4/CapSense_Structure.c ****             /* Move to the next widget */
 663:Generated_Source\PSoC4/CapSense_Structure.c ****             ptrFlashWdgt++;
 664:Generated_Source\PSoC4/CapSense_Structure.c ****         }
 665:Generated_Source\PSoC4/CapSense_Structure.c ****     #endif /* ((CapSense_ENABLE == CapSense_CSX_EN) && \
 666:Generated_Source\PSoC4/CapSense_Structure.c ****                (CapSense_ENABLE == CapSense_CSX_SKIP_OVSMPL_SPECIFIC_NODES)) */
 667:Generated_Source\PSoC4/CapSense_Structure.c **** 
 668:Generated_Source\PSoC4/CapSense_Structure.c ****     #if (0u != CapSense_ADC_EN)
 669:Generated_Source\PSoC4/CapSense_Structure.c ****         CapSense_AdcDsInitialize();
 670:Generated_Source\PSoC4/CapSense_Structure.c ****     #endif /* (0u != CapSense_ADC_EN) */
 671:Generated_Source\PSoC4/CapSense_Structure.c **** }
 672:Generated_Source\PSoC4/CapSense_Structure.c **** 
 673:Generated_Source\PSoC4/CapSense_Structure.c **** 
 674:Generated_Source\PSoC4/CapSense_Structure.c **** #if (0u != CapSense_ADC_EN)
 675:Generated_Source\PSoC4/CapSense_Structure.c ****     /*******************************************************************************
 676:Generated_Source\PSoC4/CapSense_Structure.c ****     * Function Name: CapSense_AdcDsInitialize
 677:Generated_Source\PSoC4/CapSense_Structure.c ****     ****************************************************************************//**
 678:Generated_Source\PSoC4/CapSense_Structure.c ****     *
 679:Generated_Source\PSoC4/CapSense_Structure.c ****     * \brief
 680:Generated_Source\PSoC4/CapSense_Structure.c ****     *   Configures the initial Adc datastructure members.
 681:Generated_Source\PSoC4/CapSense_Structure.c ****     *
 682:Generated_Source\PSoC4/CapSense_Structure.c ****     *******************************************************************************/
 683:Generated_Source\PSoC4/CapSense_Structure.c ****     void CapSense_AdcDsInitialize(void)
 684:Generated_Source\PSoC4/CapSense_Structure.c ****     {
 685:Generated_Source\PSoC4/CapSense_Structure.c ****         CapSense_dsRam.adcResolution = CapSense_ADC_RESOLUTION;
 686:Generated_Source\PSoC4/CapSense_Structure.c ****         CapSense_dsRam.adcIdac = (uint8)(CapSense_ADC_IDAC_DEFAULT);
 687:Generated_Source\PSoC4/CapSense_Structure.c ****         CapSense_dsRam.adcActiveCh = CapSense_AdcNO_CHANNEL;
 688:Generated_Source\PSoC4/CapSense_Structure.c ****     }
 689:Generated_Source\PSoC4/CapSense_Structure.c **** #endif /* (0u != CapSense_ADC_EN) */
 690:Generated_Source\PSoC4/CapSense_Structure.c **** 
 691:Generated_Source\PSoC4/CapSense_Structure.c **** 
 692:Generated_Source\PSoC4/CapSense_Structure.c **** /*******************************************************************************
 693:Generated_Source\PSoC4/CapSense_Structure.c **** * Function Name: DsParseParamId
 694:Generated_Source\PSoC4/CapSense_Structure.c **** ****************************************************************************//**
 695:Generated_Source\PSoC4/CapSense_Structure.c **** *
 696:Generated_Source\PSoC4/CapSense_Structure.c **** * \brief
 697:Generated_Source\PSoC4/CapSense_Structure.c **** *   This function parses the parameter ID and checks its correctness.
 698:Generated_Source\PSoC4/CapSense_Structure.c **** *
 699:Generated_Source\PSoC4/CapSense_Structure.c **** * \details
 700:Generated_Source\PSoC4/CapSense_Structure.c **** *   This function checks the parameter CRC if the self-test is enabled,
 701:Generated_Source\PSoC4/CapSense_Structure.c **** *   validates the offset value and parameter type.
 702:Generated_Source\PSoC4/CapSense_Structure.c **** *
 703:Generated_Source\PSoC4/CapSense_Structure.c **** * \param paramId The parameter to parse.
 704:Generated_Source\PSoC4/CapSense_Structure.c **** * \param pData   The pointer to the structure that will hold parsed data.
 705:Generated_Source\PSoC4/CapSense_Structure.c **** *
 706:Generated_Source\PSoC4/CapSense_Structure.c **** * \return CYRET_SUCCESS     If the parameter is valid
 707:Generated_Source\PSoC4/CapSense_Structure.c **** *         CYRET_BAD_PARAM   If the parameter is invalid
 708:Generated_Source\PSoC4/CapSense_Structure.c **** *
 709:Generated_Source\PSoC4/CapSense_Structure.c **** *******************************************************************************/
 710:Generated_Source\PSoC4/CapSense_Structure.c **** static cystatus DsParseParamId(uint32 paramId, PARAM_ID_STRUCT *pData)
 711:Generated_Source\PSoC4/CapSense_Structure.c **** {
  27              		.loc 1 711 0
  28              		.cfi_startproc
  29              		@ args = 0, pretend = 0, frame = 0
  30              		@ frame_needed = 0, uses_anonymous_args = 0
ARM GAS  C:\Users\inspiron\AppData\Local\Temp\ccI2FbJy.s 			page 14


  31              	.LVL0:
  32 0000 70B5     		push	{r4, r5, r6, lr}
  33              		.cfi_def_cfa_offset 16
  34              		.cfi_offset 4, -16
  35              		.cfi_offset 5, -12
  36              		.cfi_offset 6, -8
  37              		.cfi_offset 14, -4
  38              	.LVL1:
 712:Generated_Source\PSoC4/CapSense_Structure.c ****     cystatus result = CYRET_SUCCESS;
 713:Generated_Source\PSoC4/CapSense_Structure.c **** 
 714:Generated_Source\PSoC4/CapSense_Structure.c ****     #if (0u != CapSense_SELF_TEST_EN)
 715:Generated_Source\PSoC4/CapSense_Structure.c ****         const uint8 crcTable[] =
 716:Generated_Source\PSoC4/CapSense_Structure.c ****         {
 717:Generated_Source\PSoC4/CapSense_Structure.c ****             0x00u, 0x09u, 0x0Bu, 0x02u, 0x0Fu, 0x06u, 0x04u, 0x0Du,
 718:Generated_Source\PSoC4/CapSense_Structure.c ****             0x07u, 0x0Eu, 0x0Cu, 0x05u, 0x08u, 0x01u, 0x03u, 0x0Au
 719:Generated_Source\PSoC4/CapSense_Structure.c ****         };
 720:Generated_Source\PSoC4/CapSense_Structure.c **** 
 721:Generated_Source\PSoC4/CapSense_Structure.c ****         uint32 i;
 722:Generated_Source\PSoC4/CapSense_Structure.c ****         uint32 actualCrc = 0u;
 723:Generated_Source\PSoC4/CapSense_Structure.c ****         uint32 crcIndex;
 724:Generated_Source\PSoC4/CapSense_Structure.c ****     #endif /* #if (0u != CapSense_SELF_TEST_EN) */
 725:Generated_Source\PSoC4/CapSense_Structure.c **** 
 726:Generated_Source\PSoC4/CapSense_Structure.c ****     /* Extract parameter data */
 727:Generated_Source\PSoC4/CapSense_Structure.c ****     pData->offset     = LO16(paramId);
  39              		.loc 1 727 0
  40 0002 85B2     		uxth	r5, r0
  41 0004 0D80     		strh	r5, [r1]
 728:Generated_Source\PSoC4/CapSense_Structure.c ****     pData->affectsCrc = LO8((paramId & PARAM_UBIT_MASK)  >> PARAM_UBIT_OFFSET);
  42              		.loc 1 728 0
  43 0006 C30D     		lsrs	r3, r0, #23
  44 0008 0124     		movs	r4, #1
  45 000a 2340     		ands	r3, r4
  46 000c CB70     		strb	r3, [r1, #3]
 729:Generated_Source\PSoC4/CapSense_Structure.c ****     pData->widgetId   = LO8((paramId & PARAM_WDID_MASK)  >> PARAM_WDID_OFFSET);
  47              		.loc 1 729 0
  48 000e 030C     		lsrs	r3, r0, #16
  49 0010 7F22     		movs	r2, #127
  50 0012 1340     		ands	r3, r2
  51 0014 8B70     		strb	r3, [r1, #2]
 730:Generated_Source\PSoC4/CapSense_Structure.c ****     pData->type       = LO8((paramId & PARAM_TYPE_MASK)  >> PARAM_TYPE_OFFSET);
  52              		.loc 1 730 0
  53 0016 860F     		lsrs	r6, r0, #30
  54 0018 CE71     		strb	r6, [r1, #7]
 731:Generated_Source\PSoC4/CapSense_Structure.c ****     pData->flash      = LO8((paramId & PARAM_FBIT_MASK)  >> PARAM_FBIT_OFFSET);
  55              		.loc 1 731 0
  56 001a 030F     		lsrs	r3, r0, #28
  57 001c 2340     		ands	r3, r4
  58 001e 4B71     		strb	r3, [r1, #5]
 732:Generated_Source\PSoC4/CapSense_Structure.c ****     pData->rw         = LO8((paramId & PARAM_RWBIT_MASK) >> PARAM_RWBIT_OFFSET);
  59              		.loc 1 732 0
  60 0020 420F     		lsrs	r2, r0, #29
  61 0022 2240     		ands	r2, r4
  62 0024 8A71     		strb	r2, [r1, #6]
 733:Generated_Source\PSoC4/CapSense_Structure.c ****     pData->crc        = LO8((paramId & PARAM_CRC_MASK)   >> PARAM_CRC_OFFSET);
  63              		.loc 1 733 0
  64 0026 000E     		lsrs	r0, r0, #24
  65              	.LVL2:
ARM GAS  C:\Users\inspiron\AppData\Local\Temp\ccI2FbJy.s 			page 15


  66 0028 0E34     		adds	r4, r4, #14
  67 002a 2040     		ands	r0, r4
  68 002c 0871     		strb	r0, [r1, #4]
 734:Generated_Source\PSoC4/CapSense_Structure.c **** 
 735:Generated_Source\PSoC4/CapSense_Structure.c ****     /* Check parameter CRC if self-test is enabled */
 736:Generated_Source\PSoC4/CapSense_Structure.c ****     #if (0u != CapSense_SELF_TEST_EN)
 737:Generated_Source\PSoC4/CapSense_Structure.c **** 
 738:Generated_Source\PSoC4/CapSense_Structure.c ****         /* Calculate CRC for bits 0..24.
 739:Generated_Source\PSoC4/CapSense_Structure.c ****          * The CRC is calculated using nibbles (4-bits).
 740:Generated_Source\PSoC4/CapSense_Structure.c ****          * So for 0..24 bits there are in total 6 nibbles. */
 741:Generated_Source\PSoC4/CapSense_Structure.c ****         for (i = 6u; i > 0u; i--)
 742:Generated_Source\PSoC4/CapSense_Structure.c ****         {
 743:Generated_Source\PSoC4/CapSense_Structure.c ****             crcIndex = actualCrc ^ (paramId & 0x0Fu);
 744:Generated_Source\PSoC4/CapSense_Structure.c ****             actualCrc = crcTable[crcIndex];
 745:Generated_Source\PSoC4/CapSense_Structure.c ****             paramId >>= 4u;
 746:Generated_Source\PSoC4/CapSense_Structure.c ****         }
 747:Generated_Source\PSoC4/CapSense_Structure.c **** 
 748:Generated_Source\PSoC4/CapSense_Structure.c ****         /* Add bits 28..32 */
 749:Generated_Source\PSoC4/CapSense_Structure.c ****         crcIndex = actualCrc ^ ((paramId >> 4u) & 0x0Fu);
 750:Generated_Source\PSoC4/CapSense_Structure.c ****         actualCrc = crcTable[crcIndex];
 751:Generated_Source\PSoC4/CapSense_Structure.c **** 
 752:Generated_Source\PSoC4/CapSense_Structure.c ****         /* Add bits 24..28 (CRC) */
 753:Generated_Source\PSoC4/CapSense_Structure.c ****         crcIndex = actualCrc ^ (paramId & 0x0Fu);
 754:Generated_Source\PSoC4/CapSense_Structure.c ****         actualCrc = crcTable[crcIndex];
 755:Generated_Source\PSoC4/CapSense_Structure.c **** 
 756:Generated_Source\PSoC4/CapSense_Structure.c ****         if (0u != actualCrc)
 757:Generated_Source\PSoC4/CapSense_Structure.c ****         {
 758:Generated_Source\PSoC4/CapSense_Structure.c ****             /* CRC mismatch */
 759:Generated_Source\PSoC4/CapSense_Structure.c ****             result = CYRET_BAD_PARAM;
 760:Generated_Source\PSoC4/CapSense_Structure.c ****         }
 761:Generated_Source\PSoC4/CapSense_Structure.c **** 
 762:Generated_Source\PSoC4/CapSense_Structure.c ****         if ((CYRET_SUCCESS == result) &&
 763:Generated_Source\PSoC4/CapSense_Structure.c ****             (0u != pData->affectsCrc) && (pData->widgetId >= CapSense_TOTAL_WIDGETS ))
 764:Generated_Source\PSoC4/CapSense_Structure.c ****         {
 765:Generated_Source\PSoC4/CapSense_Structure.c ****             /* Wrong widgetId for protected parameter */
 766:Generated_Source\PSoC4/CapSense_Structure.c ****             result = CYRET_BAD_PARAM;
 767:Generated_Source\PSoC4/CapSense_Structure.c ****         }
 768:Generated_Source\PSoC4/CapSense_Structure.c **** 
 769:Generated_Source\PSoC4/CapSense_Structure.c ****         /* Check offset value range */
 770:Generated_Source\PSoC4/CapSense_Structure.c ****         if (CYRET_SUCCESS == result)
 771:Generated_Source\PSoC4/CapSense_Structure.c ****         {
 772:Generated_Source\PSoC4/CapSense_Structure.c ****             if (0u == pData->flash)
 773:Generated_Source\PSoC4/CapSense_Structure.c ****             {
 774:Generated_Source\PSoC4/CapSense_Structure.c ****                 /* Check offset for RAM Data Structure range */
 775:Generated_Source\PSoC4/CapSense_Structure.c ****                 if (pData->offset >= sizeof(CapSense_dsRam))
 776:Generated_Source\PSoC4/CapSense_Structure.c ****                 {
 777:Generated_Source\PSoC4/CapSense_Structure.c ****                     result = CYRET_BAD_PARAM;
 778:Generated_Source\PSoC4/CapSense_Structure.c ****                 }
 779:Generated_Source\PSoC4/CapSense_Structure.c ****             }
 780:Generated_Source\PSoC4/CapSense_Structure.c ****             else
 781:Generated_Source\PSoC4/CapSense_Structure.c ****             {
 782:Generated_Source\PSoC4/CapSense_Structure.c ****                 /* Check offset for Flash Data Structure range */
 783:Generated_Source\PSoC4/CapSense_Structure.c ****                 if (pData->offset >= sizeof(CapSense_dsFlash))
 784:Generated_Source\PSoC4/CapSense_Structure.c ****                 {
 785:Generated_Source\PSoC4/CapSense_Structure.c ****                     result = CYRET_BAD_PARAM;
 786:Generated_Source\PSoC4/CapSense_Structure.c ****                 }
 787:Generated_Source\PSoC4/CapSense_Structure.c **** 
ARM GAS  C:\Users\inspiron\AppData\Local\Temp\ccI2FbJy.s 			page 16


 788:Generated_Source\PSoC4/CapSense_Structure.c ****                 /* Check if it is marked as Read Only */
 789:Generated_Source\PSoC4/CapSense_Structure.c ****                 if (0u != pData->rw)
 790:Generated_Source\PSoC4/CapSense_Structure.c ****                 {
 791:Generated_Source\PSoC4/CapSense_Structure.c ****                     result = CYRET_BAD_PARAM;
 792:Generated_Source\PSoC4/CapSense_Structure.c ****                 }
 793:Generated_Source\PSoC4/CapSense_Structure.c ****             }
 794:Generated_Source\PSoC4/CapSense_Structure.c ****         }
 795:Generated_Source\PSoC4/CapSense_Structure.c ****     #else /* #if (0u != CapSense_SELF_TEST_EN) */
 796:Generated_Source\PSoC4/CapSense_Structure.c ****         /* Check offset value range */
 797:Generated_Source\PSoC4/CapSense_Structure.c ****         if (0u == pData->flash)
  69              		.loc 1 797 0
  70 002e 002B     		cmp	r3, #0
  71 0030 05D1     		bne	.L2
 798:Generated_Source\PSoC4/CapSense_Structure.c ****         {
 799:Generated_Source\PSoC4/CapSense_Structure.c ****             /* Check offset for RAM Data Structure range */
 800:Generated_Source\PSoC4/CapSense_Structure.c ****             if (pData->offset >= sizeof(CapSense_dsRam))
  72              		.loc 1 800 0
  73 0032 2823     		movs	r3, #40
  74 0034 FF33     		adds	r3, r3, #255
  75 0036 9D42     		cmp	r5, r3
  76 0038 09D8     		bhi	.L9
 712:Generated_Source\PSoC4/CapSense_Structure.c **** 
  77              		.loc 1 712 0
  78 003a 0020     		movs	r0, #0
  79 003c 0AE0     		b	.L3
  80              	.L2:
 801:Generated_Source\PSoC4/CapSense_Structure.c ****             {
 802:Generated_Source\PSoC4/CapSense_Structure.c ****                 result = CYRET_BAD_PARAM;
 803:Generated_Source\PSoC4/CapSense_Structure.c ****             }
 804:Generated_Source\PSoC4/CapSense_Structure.c ****         }
 805:Generated_Source\PSoC4/CapSense_Structure.c ****         else
 806:Generated_Source\PSoC4/CapSense_Structure.c ****         {
 807:Generated_Source\PSoC4/CapSense_Structure.c ****             /* Check offset for Flash Data Structure range */
 808:Generated_Source\PSoC4/CapSense_Structure.c ****             if (pData->offset >= sizeof(CapSense_dsFlash))
  81              		.loc 1 808 0
  82 003e 332D     		cmp	r5, #51
  83 0040 01D8     		bhi	.L10
 712:Generated_Source\PSoC4/CapSense_Structure.c **** 
  84              		.loc 1 712 0
  85 0042 0020     		movs	r0, #0
  86 0044 00E0     		b	.L4
  87              	.L10:
 809:Generated_Source\PSoC4/CapSense_Structure.c ****             {
 810:Generated_Source\PSoC4/CapSense_Structure.c ****                 result = CYRET_BAD_PARAM;
  88              		.loc 1 810 0
  89 0046 0120     		movs	r0, #1
  90              	.L4:
  91              	.LVL3:
 811:Generated_Source\PSoC4/CapSense_Structure.c ****             }
 812:Generated_Source\PSoC4/CapSense_Structure.c **** 
 813:Generated_Source\PSoC4/CapSense_Structure.c ****             /* Check if it is marked as Read Only */
 814:Generated_Source\PSoC4/CapSense_Structure.c ****             if (0u != pData->rw)
  92              		.loc 1 814 0
  93 0048 002A     		cmp	r2, #0
  94 004a 02D1     		bne	.L11
  95 004c 02E0     		b	.L3
  96              	.LVL4:
ARM GAS  C:\Users\inspiron\AppData\Local\Temp\ccI2FbJy.s 			page 17


  97              	.L9:
 802:Generated_Source\PSoC4/CapSense_Structure.c ****             }
  98              		.loc 1 802 0
  99 004e 0120     		movs	r0, #1
 100 0050 00E0     		b	.L3
 101              	.LVL5:
 102              	.L11:
 815:Generated_Source\PSoC4/CapSense_Structure.c ****             {
 816:Generated_Source\PSoC4/CapSense_Structure.c ****                 result = CYRET_BAD_PARAM;
 103              		.loc 1 816 0
 104 0052 0120     		movs	r0, #1
 105              	.LVL6:
 106              	.L3:
 817:Generated_Source\PSoC4/CapSense_Structure.c ****             }
 818:Generated_Source\PSoC4/CapSense_Structure.c ****         }
 819:Generated_Source\PSoC4/CapSense_Structure.c ****     #endif /* #if (0u != CapSense_SELF_TEST_EN) */
 820:Generated_Source\PSoC4/CapSense_Structure.c **** 
 821:Generated_Source\PSoC4/CapSense_Structure.c ****     if (CYRET_SUCCESS == result)
 107              		.loc 1 821 0
 108 0054 0028     		cmp	r0, #0
 109 0056 11D1     		bne	.L5
 822:Generated_Source\PSoC4/CapSense_Structure.c ****     {
 823:Generated_Source\PSoC4/CapSense_Structure.c ****         /* Check parameter type, offset alignment */
 824:Generated_Source\PSoC4/CapSense_Structure.c ****         switch (pData->type)
 110              		.loc 1 824 0
 111 0058 022E     		cmp	r6, #2
 112 005a 04D0     		beq	.L6
 113 005c 032E     		cmp	r6, #3
 114 005e 05D0     		beq	.L7
 115 0060 012E     		cmp	r6, #1
 116 0062 06D1     		bne	.L15
 117 0064 0AE0     		b	.L5
 118              	.L6:
 825:Generated_Source\PSoC4/CapSense_Structure.c ****         {
 826:Generated_Source\PSoC4/CapSense_Structure.c ****         case DS_PARAM_TYPE_UINT16:
 827:Generated_Source\PSoC4/CapSense_Structure.c ****             if (0u != (pData->offset & UINT16_ALIGN_MASK))
 119              		.loc 1 827 0
 120 0066 EB07     		lsls	r3, r5, #31
 121 0068 05D4     		bmi	.L13
 122 006a 07E0     		b	.L5
 123              	.L7:
 828:Generated_Source\PSoC4/CapSense_Structure.c ****             {
 829:Generated_Source\PSoC4/CapSense_Structure.c ****                 result = CYRET_BAD_PARAM;
 830:Generated_Source\PSoC4/CapSense_Structure.c ****             }
 831:Generated_Source\PSoC4/CapSense_Structure.c ****             break;
 832:Generated_Source\PSoC4/CapSense_Structure.c **** 
 833:Generated_Source\PSoC4/CapSense_Structure.c ****         case DS_PARAM_TYPE_UINT32:
 834:Generated_Source\PSoC4/CapSense_Structure.c ****             if (0u != (pData->offset & UINT32_ALIGN_MASK))
 124              		.loc 1 834 0
 125 006c AB07     		lsls	r3, r5, #30
 126 006e 04D1     		bne	.L14
 127 0070 04E0     		b	.L5
 128              	.L15:
 835:Generated_Source\PSoC4/CapSense_Structure.c ****             {
 836:Generated_Source\PSoC4/CapSense_Structure.c ****                 result = CYRET_BAD_PARAM;
 837:Generated_Source\PSoC4/CapSense_Structure.c ****             }
 838:Generated_Source\PSoC4/CapSense_Structure.c ****             break;
ARM GAS  C:\Users\inspiron\AppData\Local\Temp\ccI2FbJy.s 			page 18


 839:Generated_Source\PSoC4/CapSense_Structure.c **** 
 840:Generated_Source\PSoC4/CapSense_Structure.c ****         case DS_PARAM_TYPE_UINT8:
 841:Generated_Source\PSoC4/CapSense_Structure.c ****             break;
 842:Generated_Source\PSoC4/CapSense_Structure.c **** 
 843:Generated_Source\PSoC4/CapSense_Structure.c ****         default:
 844:Generated_Source\PSoC4/CapSense_Structure.c ****             result = CYRET_BAD_PARAM;
 129              		.loc 1 844 0
 130 0072 0120     		movs	r0, #1
 131              	.LVL7:
 132 0074 02E0     		b	.L5
 133              	.LVL8:
 134              	.L13:
 829:Generated_Source\PSoC4/CapSense_Structure.c ****             }
 135              		.loc 1 829 0
 136 0076 0120     		movs	r0, #1
 137              	.LVL9:
 138 0078 00E0     		b	.L5
 139              	.LVL10:
 140              	.L14:
 836:Generated_Source\PSoC4/CapSense_Structure.c ****             }
 141              		.loc 1 836 0
 142 007a 0120     		movs	r0, #1
 143              	.LVL11:
 144              	.L5:
 845:Generated_Source\PSoC4/CapSense_Structure.c ****             break;
 846:Generated_Source\PSoC4/CapSense_Structure.c ****         }
 847:Generated_Source\PSoC4/CapSense_Structure.c ****     }
 848:Generated_Source\PSoC4/CapSense_Structure.c **** 
 849:Generated_Source\PSoC4/CapSense_Structure.c ****     return result;
 850:Generated_Source\PSoC4/CapSense_Structure.c **** }
 145              		.loc 1 850 0
 146              		@ sp needed
 147 007c 70BD     		pop	{r4, r5, r6, pc}
 148              		.cfi_endproc
 149              	.LFE2:
 150              		.size	DsParseParamId, .-DsParseParamId
 151 007e C046     		.section	.text.CapSense_DsInitialize,"ax",%progbits
 152              		.align	2
 153              		.global	CapSense_DsInitialize
 154              		.code	16
 155              		.thumb_func
 156              		.type	CapSense_DsInitialize, %function
 157              	CapSense_DsInitialize:
 158              	.LFB1:
 494:Generated_Source\PSoC4/CapSense_Structure.c ****     #if ((CapSense_ENABLE == CapSense_CSX_EN) || \
 159              		.loc 1 494 0
 160              		.cfi_startproc
 161              		@ args = 0, pretend = 0, frame = 0
 162              		@ frame_needed = 0, uses_anonymous_args = 0
 163 0000 70B5     		push	{r4, r5, r6, lr}
 164              		.cfi_def_cfa_offset 16
 165              		.cfi_offset 4, -16
 166              		.cfi_offset 5, -12
 167              		.cfi_offset 6, -8
 168              		.cfi_offset 14, -4
 169              	.LVL12:
 515:Generated_Source\PSoC4/CapSense_Structure.c **** 
ARM GAS  C:\Users\inspiron\AppData\Local\Temp\ccI2FbJy.s 			page 19


 170              		.loc 1 515 0
 171 0002 1E4C     		ldr	r4, .L21
 172 0004 9422     		movs	r2, #148
 173 0006 5200     		lsls	r2, r2, #1
 174 0008 0021     		movs	r1, #0
 175 000a 2000     		movs	r0, r4
 176 000c FFF7FEFF 		bl	memset
 177              	.LVL13:
 518:Generated_Source\PSoC4/CapSense_Structure.c ****     CapSense_dsRam.deviceId = CapSense_DEVICE_ID;
 178              		.loc 1 518 0
 179 0010 1B4B     		ldr	r3, .L21+4
 180 0012 2380     		strh	r3, [r4]
 519:Generated_Source\PSoC4/CapSense_Structure.c ****     CapSense_dsRam.hwClock = CapSense_HW_CLOCK;
 181              		.loc 1 519 0
 182 0014 9023     		movs	r3, #144
 183 0016 1B01     		lsls	r3, r3, #4
 184 0018 6380     		strh	r3, [r4, #2]
 520:Generated_Source\PSoC4/CapSense_Structure.c **** 
 185              		.loc 1 520 0
 186 001a 1A4B     		ldr	r3, .L21+8
 187 001c A380     		strh	r3, [r4, #4]
 523:Generated_Source\PSoC4/CapSense_Structure.c **** 
 188              		.loc 1 523 0
 189 001e 0823     		movs	r3, #8
 190 0020 6383     		strh	r3, [r4, #26]
 525:Generated_Source\PSoC4/CapSense_Structure.c ****     #if (0u != CapSense_TOTAL_CSD_WIDGETS)
 191              		.loc 1 525 0
 192 0022 0322     		movs	r2, #3
 193 0024 2823     		movs	r3, #40
 194 0026 FF33     		adds	r3, r3, #255
 195 0028 E254     		strb	r2, [r4, r3]
 527:Generated_Source\PSoC4/CapSense_Structure.c ****         CapSense_dsRam.scanCsdISC = CapSense_CSD_INACTIVE_SNS_CONNECTION;
 196              		.loc 1 527 0
 197 002a 0126     		movs	r6, #1
 198 002c 2677     		strb	r6, [r4, #28]
 601:Generated_Source\PSoC4/CapSense_Structure.c **** 
 199              		.loc 1 601 0
 200 002e 164D     		ldr	r5, .L21+12
 201 0030 2000     		movs	r0, r4
 202 0032 1E30     		adds	r0, r0, #30
 203 0034 2900     		movs	r1, r5
 204 0036 4431     		adds	r1, r1, #68
 205 0038 1532     		adds	r2, r2, #21
 206 003a FFF7FEFF 		bl	memcpy
 207              	.LVL14:
 605:Generated_Source\PSoC4/CapSense_Structure.c ****     #endif /* ((0u != CapSense_GES_GLOBAL_EN) || (0u != CapSense_BALLISTIC_MULTIPLIER_EN)) */
 208              		.loc 1 605 0
 209 003e 8C23     		movs	r3, #140
 210 0040 5B00     		lsls	r3, r3, #1
 211 0042 E650     		str	r6, [r4, r3]
 609:Generated_Source\PSoC4/CapSense_Structure.c ****     #endif /* (0u != CapSense_GES_GLOBAL_EN) */
 212              		.loc 1 609 0
 213 0044 2000     		movs	r0, r4
 214 0046 C230     		adds	r0, r0, #194
 215 0048 2900     		movs	r1, r5
 216 004a 5C31     		adds	r1, r1, #92
 217 004c 5622     		movs	r2, #86
ARM GAS  C:\Users\inspiron\AppData\Local\Temp\ccI2FbJy.s 			page 20


 218 004e FFF7FEFF 		bl	memcpy
 219              	.LVL15:
 511:Generated_Source\PSoC4/CapSense_Structure.c ****     #endif
 220              		.loc 1 511 0
 221 0052 2A00     		movs	r2, r5
 618:Generated_Source\PSoC4/CapSense_Structure.c **** 
 222              		.loc 1 618 0
 223 0054 1035     		adds	r5, r5, #16
 620:Generated_Source\PSoC4/CapSense_Structure.c ****         {
 224              		.loc 1 620 0
 225 0056 0123     		movs	r3, #1
 226 0058 0CE0     		b	.L17
 227              	.LVL16:
 228              	.L20:
 622:Generated_Source\PSoC4/CapSense_Structure.c **** 
 229              		.loc 1 622 0
 230 005a A968     		ldr	r1, [r5, #8]
 231              	.LVL17:
 624:Generated_Source\PSoC4/CapSense_Structure.c ****             {
 232              		.loc 1 624 0
 233 005c 2B8B     		ldrh	r3, [r5, #24]
 234              	.LVL18:
 235 005e 04E0     		b	.L18
 236              	.LVL19:
 237              	.L19:
 626:Generated_Source\PSoC4/CapSense_Structure.c ****                 ptrIdacInit++;
 238              		.loc 1 626 0
 239 0060 1378     		ldrb	r3, [r2]
 240 0062 4B72     		strb	r3, [r1, #9]
 627:Generated_Source\PSoC4/CapSense_Structure.c **** 
 241              		.loc 1 627 0
 242 0064 0132     		adds	r2, r2, #1
 243              	.LVL20:
 637:Generated_Source\PSoC4/CapSense_Structure.c ****             }
 244              		.loc 1 637 0
 245 0066 0A31     		adds	r1, r1, #10
 246              	.LVL21:
 624:Generated_Source\PSoC4/CapSense_Structure.c ****             {
 247              		.loc 1 624 0
 248 0068 0300     		movs	r3, r0
 249              	.LVL22:
 250              	.L18:
 624:Generated_Source\PSoC4/CapSense_Structure.c ****             {
 251              		.loc 1 624 0 is_stmt 0 discriminator 1
 252 006a 581E     		subs	r0, r3, #1
 253              	.LVL23:
 254 006c 002B     		cmp	r3, #0
 255 006e F7D1     		bne	.L19
 640:Generated_Source\PSoC4/CapSense_Structure.c ****         }
 256              		.loc 1 640 0 is_stmt 1
 257 0070 3435     		adds	r5, r5, #52
 258              	.LVL24:
 620:Generated_Source\PSoC4/CapSense_Structure.c ****         {
 259              		.loc 1 620 0
 260 0072 2300     		movs	r3, r4
 261              	.LVL25:
 262              	.L17:
ARM GAS  C:\Users\inspiron\AppData\Local\Temp\ccI2FbJy.s 			page 21


 620:Generated_Source\PSoC4/CapSense_Structure.c ****         {
 263              		.loc 1 620 0 is_stmt 0 discriminator 1
 264 0074 5C1E     		subs	r4, r3, #1
 265              	.LVL26:
 266 0076 002B     		cmp	r3, #0
 267 0078 EFD1     		bne	.L20
 671:Generated_Source\PSoC4/CapSense_Structure.c **** 
 268              		.loc 1 671 0 is_stmt 1
 269              		@ sp needed
 270              	.LVL27:
 271              	.LVL28:
 272 007a 70BD     		pop	{r4, r5, r6, pc}
 273              	.L22:
 274              		.align	2
 275              	.L21:
 276 007c 00000000 		.word	CapSense_dsRam
 277 0080 6C560000 		.word	22124
 278 0084 70170000 		.word	6000
 279 0088 00000000 		.word	.LANCHOR0
 280              		.cfi_endproc
 281              	.LFE1:
 282              		.size	CapSense_DsInitialize, .-CapSense_DsInitialize
 283              		.section	.text.CapSense_GetParam,"ax",%progbits
 284              		.align	2
 285              		.global	CapSense_GetParam
 286              		.code	16
 287              		.thumb_func
 288              		.type	CapSense_GetParam, %function
 289              	CapSense_GetParam:
 290              	.LFB3:
 851:Generated_Source\PSoC4/CapSense_Structure.c **** 
 852:Generated_Source\PSoC4/CapSense_Structure.c **** /*******************************************************************************
 853:Generated_Source\PSoC4/CapSense_Structure.c **** * Function Name: CapSense_GetParam
 854:Generated_Source\PSoC4/CapSense_Structure.c **** ****************************************************************************//**
 855:Generated_Source\PSoC4/CapSense_Structure.c **** *
 856:Generated_Source\PSoC4/CapSense_Structure.c **** * \brief
 857:Generated_Source\PSoC4/CapSense_Structure.c **** *  Gets the specified parameter value from the \ref group_structures.
 858:Generated_Source\PSoC4/CapSense_Structure.c **** *
 859:Generated_Source\PSoC4/CapSense_Structure.c **** * \details
 860:Generated_Source\PSoC4/CapSense_Structure.c **** *  This function gets the value of the specified parameter by the paramId
 861:Generated_Source\PSoC4/CapSense_Structure.c **** *  argument. The paramId for each register is available in the
 862:Generated_Source\PSoC4/CapSense_Structure.c **** *  CapSense RegisterMap header file as
 863:Generated_Source\PSoC4/CapSense_Structure.c **** *  CapSense_<ParameterName>_PARAM_ID. The paramId is a special
 864:Generated_Source\PSoC4/CapSense_Structure.c **** *  enumerated value generated by the customizer. The format of paramId is as
 865:Generated_Source\PSoC4/CapSense_Structure.c **** *  follows:
 866:Generated_Source\PSoC4/CapSense_Structure.c **** *    1. [ byte 3 byte 2 byte 1 byte 0 ]
 867:Generated_Source\PSoC4/CapSense_Structure.c **** *    2. [ TTWFCCCC UIIIIIII MMMMMMMM LLLLLLLL ]
 868:Generated_Source\PSoC4/CapSense_Structure.c **** *    3. T - encodes the parameter type:
 869:Generated_Source\PSoC4/CapSense_Structure.c **** *      - 01b: uint8
 870:Generated_Source\PSoC4/CapSense_Structure.c **** *      - 10b: uint16
 871:Generated_Source\PSoC4/CapSense_Structure.c **** *      - 11b: uint32
 872:Generated_Source\PSoC4/CapSense_Structure.c **** *    4. W - indicates whether the parameter is writable:
 873:Generated_Source\PSoC4/CapSense_Structure.c **** *      - 0: ReadOnly
 874:Generated_Source\PSoC4/CapSense_Structure.c **** *      - 1: Read/Write
 875:Generated_Source\PSoC4/CapSense_Structure.c **** *    5. C - 4 bit CRC (X^3 + 1) of the whole paramId word, the C bits are
 876:Generated_Source\PSoC4/CapSense_Structure.c **** *       filled with 0s when the CRC is calculated.
 877:Generated_Source\PSoC4/CapSense_Structure.c **** *    6. U - indicates if the parameter affects the RAM Widget Object CRC.
ARM GAS  C:\Users\inspiron\AppData\Local\Temp\ccI2FbJy.s 			page 22


 878:Generated_Source\PSoC4/CapSense_Structure.c **** *    7. I - specifies that the widgetId parameter belongs to
 879:Generated_Source\PSoC4/CapSense_Structure.c **** *    8. M,L - the parameter offset MSB and LSB accordingly in:
 880:Generated_Source\PSoC4/CapSense_Structure.c **** *      - Flash Data Structure if W bit is 0.
 881:Generated_Source\PSoC4/CapSense_Structure.c **** *      - RAM Data Structure if W bit is 1.
 882:Generated_Source\PSoC4/CapSense_Structure.c **** *
 883:Generated_Source\PSoC4/CapSense_Structure.c **** *  Refer to the \ref group_structures section for details of the data structure
 884:Generated_Source\PSoC4/CapSense_Structure.c **** *  organization and examples of its register access.
 885:Generated_Source\PSoC4/CapSense_Structure.c **** *
 886:Generated_Source\PSoC4/CapSense_Structure.c **** * \param paramId
 887:Generated_Source\PSoC4/CapSense_Structure.c **** *  Specifies the ID of parameter to get its value.
 888:Generated_Source\PSoC4/CapSense_Structure.c **** *  A macro for the parameter ID can be found in the CapSense RegisterMap header
 889:Generated_Source\PSoC4/CapSense_Structure.c **** *  file defined as CapSense_<ParameterName>_PARAM_ID.
 890:Generated_Source\PSoC4/CapSense_Structure.c **** *
 891:Generated_Source\PSoC4/CapSense_Structure.c **** * \param value
 892:Generated_Source\PSoC4/CapSense_Structure.c **** *  The pointer to a variable to be updated with the obtained value.
 893:Generated_Source\PSoC4/CapSense_Structure.c **** *
 894:Generated_Source\PSoC4/CapSense_Structure.c **** * \return
 895:Generated_Source\PSoC4/CapSense_Structure.c **** *  Returns the status of the operation:
 896:Generated_Source\PSoC4/CapSense_Structure.c **** *    - CYRET_SUCCESS - The operation is successfully completed.
 897:Generated_Source\PSoC4/CapSense_Structure.c **** *    - CYRET_BAD_PARAM - The input parameter is invalid.
 898:Generated_Source\PSoC4/CapSense_Structure.c **** *
 899:Generated_Source\PSoC4/CapSense_Structure.c **** *******************************************************************************/
 900:Generated_Source\PSoC4/CapSense_Structure.c **** cystatus CapSense_GetParam(uint32 paramId, uint32 *value)
 901:Generated_Source\PSoC4/CapSense_Structure.c **** {
 291              		.loc 1 901 0
 292              		.cfi_startproc
 293              		@ args = 0, pretend = 0, frame = 8
 294              		@ frame_needed = 0, uses_anonymous_args = 0
 295              	.LVL29:
 296 0000 30B5     		push	{r4, r5, lr}
 297              		.cfi_def_cfa_offset 12
 298              		.cfi_offset 4, -12
 299              		.cfi_offset 5, -8
 300              		.cfi_offset 14, -4
 301 0002 83B0     		sub	sp, sp, #12
 302              		.cfi_def_cfa_offset 24
 303 0004 0D00     		movs	r5, r1
 902:Generated_Source\PSoC4/CapSense_Structure.c ****     PARAM_ID_STRUCT pData;
 903:Generated_Source\PSoC4/CapSense_Structure.c ****     cystatus result;
 904:Generated_Source\PSoC4/CapSense_Structure.c **** 
 905:Generated_Source\PSoC4/CapSense_Structure.c ****     union
 906:Generated_Source\PSoC4/CapSense_Structure.c ****     {
 907:Generated_Source\PSoC4/CapSense_Structure.c ****         volatile void   const * ptr;
 908:Generated_Source\PSoC4/CapSense_Structure.c ****         volatile uint8  const * ptrUint8;
 909:Generated_Source\PSoC4/CapSense_Structure.c ****         volatile uint16 const * ptrUint16;
 910:Generated_Source\PSoC4/CapSense_Structure.c ****         volatile uint32 const * ptrUint32;
 911:Generated_Source\PSoC4/CapSense_Structure.c ****     } ptrData;
 912:Generated_Source\PSoC4/CapSense_Structure.c **** 
 913:Generated_Source\PSoC4/CapSense_Structure.c ****     result = DsParseParamId(paramId, &pData);
 304              		.loc 1 913 0
 305 0006 6946     		mov	r1, sp
 306              	.LVL30:
 307 0008 FFF7FEFF 		bl	DsParseParamId
 308              	.LVL31:
 309 000c 041E     		subs	r4, r0, #0
 310              	.LVL32:
 914:Generated_Source\PSoC4/CapSense_Structure.c **** 
ARM GAS  C:\Users\inspiron\AppData\Local\Temp\ccI2FbJy.s 			page 23


 915:Generated_Source\PSoC4/CapSense_Structure.c ****     /* Parse and validate paramId */
 916:Generated_Source\PSoC4/CapSense_Structure.c ****     if (CYRET_SUCCESS == result)
 311              		.loc 1 916 0
 312 000e 1FD1     		bne	.L24
 917:Generated_Source\PSoC4/CapSense_Structure.c ****     {
 918:Generated_Source\PSoC4/CapSense_Structure.c ****         /* Get base address of parameter */
 919:Generated_Source\PSoC4/CapSense_Structure.c ****         if (0u == pData.flash)
 313              		.loc 1 919 0
 314 0010 6B46     		mov	r3, sp
 315 0012 5B79     		ldrb	r3, [r3, #5]
 316 0014 002B     		cmp	r3, #0
 317 0016 01D1     		bne	.L25
 920:Generated_Source\PSoC4/CapSense_Structure.c ****         {
 921:Generated_Source\PSoC4/CapSense_Structure.c ****             ptrData.ptr = &CapSense_dsRam;
 318              		.loc 1 921 0
 319 0018 0F4A     		ldr	r2, .L30
 320              	.LVL33:
 321 001a 02E0     		b	.L26
 322              	.L25:
 922:Generated_Source\PSoC4/CapSense_Structure.c ****         }
 923:Generated_Source\PSoC4/CapSense_Structure.c ****         else
 924:Generated_Source\PSoC4/CapSense_Structure.c ****         {
 925:Generated_Source\PSoC4/CapSense_Structure.c ****             ptrData.ptr = &CapSense_dsFlash;
 323              		.loc 1 925 0
 324 001c 0F4B     		ldr	r3, .L30+4
 325 001e 1033     		adds	r3, r3, #16
 326 0020 1A00     		movs	r2, r3
 327              	.L26:
 926:Generated_Source\PSoC4/CapSense_Structure.c ****         }
 927:Generated_Source\PSoC4/CapSense_Structure.c **** 
 928:Generated_Source\PSoC4/CapSense_Structure.c ****         /* Add offset to base address */
 929:Generated_Source\PSoC4/CapSense_Structure.c ****         ptrData.ptrUint8 += pData.offset;
 328              		.loc 1 929 0
 329 0022 6B46     		mov	r3, sp
 330 0024 1B88     		ldrh	r3, [r3]
 331              	.LVL34:
 332 0026 D318     		adds	r3, r2, r3
 930:Generated_Source\PSoC4/CapSense_Structure.c **** 
 931:Generated_Source\PSoC4/CapSense_Structure.c ****         /* Read data */
 932:Generated_Source\PSoC4/CapSense_Structure.c ****         if (DS_PARAM_TYPE_UINT8 == pData.type)
 333              		.loc 1 932 0
 334 0028 6A46     		mov	r2, sp
 335              	.LVL35:
 336 002a D279     		ldrb	r2, [r2, #7]
 337 002c 012A     		cmp	r2, #1
 338 002e 02D1     		bne	.L27
 933:Generated_Source\PSoC4/CapSense_Structure.c ****         {
 934:Generated_Source\PSoC4/CapSense_Structure.c ****             *value = (uint32) (*ptrData.ptrUint8);
 339              		.loc 1 934 0
 340 0030 1B78     		ldrb	r3, [r3]
 341 0032 2B60     		str	r3, [r5]
 342 0034 0CE0     		b	.L24
 343              	.L27:
 935:Generated_Source\PSoC4/CapSense_Structure.c ****         }
 936:Generated_Source\PSoC4/CapSense_Structure.c ****         else if (DS_PARAM_TYPE_UINT16 == pData.type)
 344              		.loc 1 936 0
 345 0036 022A     		cmp	r2, #2
ARM GAS  C:\Users\inspiron\AppData\Local\Temp\ccI2FbJy.s 			page 24


 346 0038 02D1     		bne	.L28
 937:Generated_Source\PSoC4/CapSense_Structure.c ****         {
 938:Generated_Source\PSoC4/CapSense_Structure.c ****             *value = (uint32) (*ptrData.ptrUint16);
 347              		.loc 1 938 0
 348 003a 1B88     		ldrh	r3, [r3]
 349 003c 2B60     		str	r3, [r5]
 350 003e 07E0     		b	.L24
 351              	.L28:
 939:Generated_Source\PSoC4/CapSense_Structure.c ****         }
 940:Generated_Source\PSoC4/CapSense_Structure.c ****         else if (DS_PARAM_TYPE_UINT32 == pData.type)
 352              		.loc 1 940 0
 353 0040 032A     		cmp	r2, #3
 354 0042 02D1     		bne	.L29
 941:Generated_Source\PSoC4/CapSense_Structure.c ****         {
 942:Generated_Source\PSoC4/CapSense_Structure.c ****             *value = *ptrData.ptrUint32;
 355              		.loc 1 942 0
 356 0044 1B68     		ldr	r3, [r3]
 357 0046 2B60     		str	r3, [r5]
 358 0048 02E0     		b	.L24
 359              	.L29:
 943:Generated_Source\PSoC4/CapSense_Structure.c ****         }
 944:Generated_Source\PSoC4/CapSense_Structure.c ****         else
 945:Generated_Source\PSoC4/CapSense_Structure.c ****         {
 946:Generated_Source\PSoC4/CapSense_Structure.c ****             /* Parameter comes here already validated. */
 947:Generated_Source\PSoC4/CapSense_Structure.c ****             CYASSERT(0u);
 360              		.loc 1 947 0 discriminator 1
 361 004a 0020     		movs	r0, #0
 362              	.LVL36:
 363 004c FFF7FEFF 		bl	CyHalt
 364              	.LVL37:
 365              	.L24:
 948:Generated_Source\PSoC4/CapSense_Structure.c ****         }
 949:Generated_Source\PSoC4/CapSense_Structure.c ****     }
 950:Generated_Source\PSoC4/CapSense_Structure.c **** 
 951:Generated_Source\PSoC4/CapSense_Structure.c ****     return result;
 952:Generated_Source\PSoC4/CapSense_Structure.c **** }
 366              		.loc 1 952 0
 367 0050 2000     		movs	r0, r4
 368 0052 03B0     		add	sp, sp, #12
 369              		@ sp needed
 370              	.LVL38:
 371              	.LVL39:
 372 0054 30BD     		pop	{r4, r5, pc}
 373              	.L31:
 374 0056 C046     		.align	2
 375              	.L30:
 376 0058 00000000 		.word	CapSense_dsRam
 377 005c 00000000 		.word	.LANCHOR0
 378              		.cfi_endproc
 379              	.LFE3:
 380              		.size	CapSense_GetParam, .-CapSense_GetParam
 381              		.section	.text.CapSense_SetParam,"ax",%progbits
 382              		.align	2
 383              		.global	CapSense_SetParam
 384              		.code	16
 385              		.thumb_func
 386              		.type	CapSense_SetParam, %function
ARM GAS  C:\Users\inspiron\AppData\Local\Temp\ccI2FbJy.s 			page 25


 387              	CapSense_SetParam:
 388              	.LFB4:
 953:Generated_Source\PSoC4/CapSense_Structure.c **** 
 954:Generated_Source\PSoC4/CapSense_Structure.c **** 
 955:Generated_Source\PSoC4/CapSense_Structure.c **** /*******************************************************************************
 956:Generated_Source\PSoC4/CapSense_Structure.c **** * Function Name: CapSense_SetParam
 957:Generated_Source\PSoC4/CapSense_Structure.c **** ****************************************************************************//**
 958:Generated_Source\PSoC4/CapSense_Structure.c **** *
 959:Generated_Source\PSoC4/CapSense_Structure.c **** * \brief
 960:Generated_Source\PSoC4/CapSense_Structure.c **** *  Sets a new value for the specified parameter in the \ref group_structures.
 961:Generated_Source\PSoC4/CapSense_Structure.c **** *
 962:Generated_Source\PSoC4/CapSense_Structure.c **** * \details
 963:Generated_Source\PSoC4/CapSense_Structure.c **** *  This function sets the value of the specified parameter by the paramId
 964:Generated_Source\PSoC4/CapSense_Structure.c **** *  argument. The paramId for each register is available in the
 965:Generated_Source\PSoC4/CapSense_Structure.c **** *  CapSense RegisterMap header file as
 966:Generated_Source\PSoC4/CapSense_Structure.c **** *  CapSense_<ParameterName>_PARAM_ID. The paramId is a special
 967:Generated_Source\PSoC4/CapSense_Structure.c **** *  enumerated value generated by the customizer. The format of paramId is as
 968:Generated_Source\PSoC4/CapSense_Structure.c **** *  follows:
 969:Generated_Source\PSoC4/CapSense_Structure.c **** *    1. [ byte 3 byte 2 byte 1 byte 0 ]
 970:Generated_Source\PSoC4/CapSense_Structure.c **** *    2. [ TTWFCCCC UIIIIIII MMMMMMMM LLLLLLLL ]
 971:Generated_Source\PSoC4/CapSense_Structure.c **** *    3. T - encodes the parameter type:
 972:Generated_Source\PSoC4/CapSense_Structure.c **** *      - 01b: uint8
 973:Generated_Source\PSoC4/CapSense_Structure.c **** *      - 10b: uint16
 974:Generated_Source\PSoC4/CapSense_Structure.c **** *      - 11b: uint32
 975:Generated_Source\PSoC4/CapSense_Structure.c **** *    4. W - indicates whether the parameter is writable:
 976:Generated_Source\PSoC4/CapSense_Structure.c **** *      - 0: ReadOnly
 977:Generated_Source\PSoC4/CapSense_Structure.c **** *      - 1: Read/Write
 978:Generated_Source\PSoC4/CapSense_Structure.c **** *    5. C - 4 bit CRC (X^3 + 1) of the whole paramId word, the C bits are
 979:Generated_Source\PSoC4/CapSense_Structure.c **** *       filled with 0s when the CRC is calculated.
 980:Generated_Source\PSoC4/CapSense_Structure.c **** *    6. U - indicates if the parameter affects the RAM Widget Object CRC.
 981:Generated_Source\PSoC4/CapSense_Structure.c **** *    7. I - specifies that the widgetId parameter belongs to
 982:Generated_Source\PSoC4/CapSense_Structure.c **** *    8. M,L - the parameter offset MSB and LSB accordingly in:
 983:Generated_Source\PSoC4/CapSense_Structure.c **** *      - Flash Data Structure if W bit is 0.
 984:Generated_Source\PSoC4/CapSense_Structure.c **** *      - RAM Data Structure if W bit is 1.
 985:Generated_Source\PSoC4/CapSense_Structure.c **** *
 986:Generated_Source\PSoC4/CapSense_Structure.c **** *  Refer to the \ref group_structures section for details of the data structure
 987:Generated_Source\PSoC4/CapSense_Structure.c **** *  organization and examples of its register access.
 988:Generated_Source\PSoC4/CapSense_Structure.c **** *
 989:Generated_Source\PSoC4/CapSense_Structure.c **** *  This function writes specified value into the desired register without
 990:Generated_Source\PSoC4/CapSense_Structure.c **** *  other registers update. It is application layer responsibility to keep all
 991:Generated_Source\PSoC4/CapSense_Structure.c **** *  the data structure registers aligned. Repeated call of
 992:Generated_Source\PSoC4/CapSense_Structure.c **** *  CapSense_Start() function helps aligning dependent register values.
 993:Generated_Source\PSoC4/CapSense_Structure.c **** *
 994:Generated_Source\PSoC4/CapSense_Structure.c **** * \param paramId
 995:Generated_Source\PSoC4/CapSense_Structure.c **** *  Specifies the ID of parameter to set its value.
 996:Generated_Source\PSoC4/CapSense_Structure.c **** *  A macro for the parameter ID can be found in the CapSense RegisterMap header
 997:Generated_Source\PSoC4/CapSense_Structure.c **** *  file defined as CapSense_<ParameterName>_PARAM_ID.
 998:Generated_Source\PSoC4/CapSense_Structure.c **** 
 999:Generated_Source\PSoC4/CapSense_Structure.c **** * \param value
1000:Generated_Source\PSoC4/CapSense_Structure.c **** *  Specifies the new parameter's value.
1001:Generated_Source\PSoC4/CapSense_Structure.c **** *
1002:Generated_Source\PSoC4/CapSense_Structure.c **** * \return
1003:Generated_Source\PSoC4/CapSense_Structure.c **** *  Returns the status of the operation:
1004:Generated_Source\PSoC4/CapSense_Structure.c **** *    - CYRET_SUCCESS - The operation is successfully completed.
1005:Generated_Source\PSoC4/CapSense_Structure.c **** *    - CYRET_BAD_PARAM - The input parameter is invalid.
1006:Generated_Source\PSoC4/CapSense_Structure.c **** *
1007:Generated_Source\PSoC4/CapSense_Structure.c **** *******************************************************************************/
ARM GAS  C:\Users\inspiron\AppData\Local\Temp\ccI2FbJy.s 			page 26


1008:Generated_Source\PSoC4/CapSense_Structure.c **** cystatus CapSense_SetParam(uint32 paramId, uint32 value)
1009:Generated_Source\PSoC4/CapSense_Structure.c **** {
 389              		.loc 1 1009 0
 390              		.cfi_startproc
 391              		@ args = 0, pretend = 0, frame = 8
 392              		@ frame_needed = 0, uses_anonymous_args = 0
 393              	.LVL40:
 394 0000 30B5     		push	{r4, r5, lr}
 395              		.cfi_def_cfa_offset 12
 396              		.cfi_offset 4, -12
 397              		.cfi_offset 5, -8
 398              		.cfi_offset 14, -4
 399 0002 83B0     		sub	sp, sp, #12
 400              		.cfi_def_cfa_offset 24
 401 0004 0D00     		movs	r5, r1
1010:Generated_Source\PSoC4/CapSense_Structure.c ****     cystatus result;
1011:Generated_Source\PSoC4/CapSense_Structure.c ****     PARAM_ID_STRUCT pData;
1012:Generated_Source\PSoC4/CapSense_Structure.c **** 
1013:Generated_Source\PSoC4/CapSense_Structure.c ****     union
1014:Generated_Source\PSoC4/CapSense_Structure.c ****     {
1015:Generated_Source\PSoC4/CapSense_Structure.c ****         volatile void   * ptr;
1016:Generated_Source\PSoC4/CapSense_Structure.c ****         volatile uint8  * ptrUint8;
1017:Generated_Source\PSoC4/CapSense_Structure.c ****         volatile uint16 * ptrUint16;
1018:Generated_Source\PSoC4/CapSense_Structure.c ****         volatile uint32 * ptrUint32;
1019:Generated_Source\PSoC4/CapSense_Structure.c ****     } ptrData;
1020:Generated_Source\PSoC4/CapSense_Structure.c **** 
1021:Generated_Source\PSoC4/CapSense_Structure.c ****     result = DsParseParamId(paramId, &pData);
 402              		.loc 1 1021 0
 403 0006 6946     		mov	r1, sp
 404              	.LVL41:
 405 0008 FFF7FEFF 		bl	DsParseParamId
 406              	.LVL42:
 407 000c 041E     		subs	r4, r0, #0
 408              	.LVL43:
1022:Generated_Source\PSoC4/CapSense_Structure.c **** 
1023:Generated_Source\PSoC4/CapSense_Structure.c ****     /* verify if parameter is writable */
1024:Generated_Source\PSoC4/CapSense_Structure.c ****     if (CYRET_SUCCESS == result)
 409              		.loc 1 1024 0
 410 000e 04D1     		bne	.L33
1025:Generated_Source\PSoC4/CapSense_Structure.c ****     {
1026:Generated_Source\PSoC4/CapSense_Structure.c ****         if (0u == pData.rw)
 411              		.loc 1 1026 0
 412 0010 6B46     		mov	r3, sp
 413 0012 9B79     		ldrb	r3, [r3, #6]
 414 0014 002B     		cmp	r3, #0
 415 0016 00D1     		bne	.L33
1027:Generated_Source\PSoC4/CapSense_Structure.c ****         {
1028:Generated_Source\PSoC4/CapSense_Structure.c ****             result = CYRET_BAD_PARAM;
 416              		.loc 1 1028 0
 417 0018 0134     		adds	r4, r4, #1
 418              	.L33:
 419              	.LVL44:
1029:Generated_Source\PSoC4/CapSense_Structure.c ****         }
1030:Generated_Source\PSoC4/CapSense_Structure.c ****     }
1031:Generated_Source\PSoC4/CapSense_Structure.c **** 
1032:Generated_Source\PSoC4/CapSense_Structure.c ****     /* Parse and validate paramId */
1033:Generated_Source\PSoC4/CapSense_Structure.c ****     if (CYRET_SUCCESS == result)
ARM GAS  C:\Users\inspiron\AppData\Local\Temp\ccI2FbJy.s 			page 27


 420              		.loc 1 1033 0
 421 001a 002C     		cmp	r4, #0
 422 001c 16D1     		bne	.L34
1034:Generated_Source\PSoC4/CapSense_Structure.c ****     {
1035:Generated_Source\PSoC4/CapSense_Structure.c ****         /* Get base address of parameter */
1036:Generated_Source\PSoC4/CapSense_Structure.c ****         ptrData.ptr = &CapSense_dsRam;
1037:Generated_Source\PSoC4/CapSense_Structure.c **** 
1038:Generated_Source\PSoC4/CapSense_Structure.c ****         /* Add offset to base address */
1039:Generated_Source\PSoC4/CapSense_Structure.c ****         ptrData.ptrUint8 += pData.offset;
 423              		.loc 1 1039 0
 424 001e 6B46     		mov	r3, sp
 425 0020 1A88     		ldrh	r2, [r3]
 426 0022 0C4B     		ldr	r3, .L39
 427 0024 D318     		adds	r3, r2, r3
1040:Generated_Source\PSoC4/CapSense_Structure.c **** 
1041:Generated_Source\PSoC4/CapSense_Structure.c ****         /* Write data */
1042:Generated_Source\PSoC4/CapSense_Structure.c ****         if (DS_PARAM_TYPE_UINT8 == pData.type)
 428              		.loc 1 1042 0
 429 0026 6A46     		mov	r2, sp
 430 0028 D279     		ldrb	r2, [r2, #7]
 431 002a 012A     		cmp	r2, #1
 432 002c 02D1     		bne	.L35
1043:Generated_Source\PSoC4/CapSense_Structure.c ****         {
1044:Generated_Source\PSoC4/CapSense_Structure.c ****             *ptrData.ptrUint8 = LO8(value);
 433              		.loc 1 1044 0
 434 002e EDB2     		uxtb	r5, r5
 435              	.LVL45:
 436 0030 1D70     		strb	r5, [r3]
 437 0032 0BE0     		b	.L34
 438              	.LVL46:
 439              	.L35:
1045:Generated_Source\PSoC4/CapSense_Structure.c ****         }
1046:Generated_Source\PSoC4/CapSense_Structure.c ****         else if (DS_PARAM_TYPE_UINT16 == pData.type)
 440              		.loc 1 1046 0
 441 0034 022A     		cmp	r2, #2
 442 0036 02D1     		bne	.L36
1047:Generated_Source\PSoC4/CapSense_Structure.c ****         {
1048:Generated_Source\PSoC4/CapSense_Structure.c ****             *ptrData.ptrUint16 = LO16(value);
 443              		.loc 1 1048 0
 444 0038 ADB2     		uxth	r5, r5
 445              	.LVL47:
 446 003a 1D80     		strh	r5, [r3]
 447 003c 06E0     		b	.L34
 448              	.LVL48:
 449              	.L36:
1049:Generated_Source\PSoC4/CapSense_Structure.c ****         }
1050:Generated_Source\PSoC4/CapSense_Structure.c ****         else if (DS_PARAM_TYPE_UINT32 == pData.type)
 450              		.loc 1 1050 0
 451 003e 032A     		cmp	r2, #3
 452 0040 01D1     		bne	.L37
1051:Generated_Source\PSoC4/CapSense_Structure.c ****         {
1052:Generated_Source\PSoC4/CapSense_Structure.c ****             *ptrData.ptrUint32 = value;
 453              		.loc 1 1052 0
 454 0042 1D60     		str	r5, [r3]
 455 0044 02E0     		b	.L34
 456              	.L37:
1053:Generated_Source\PSoC4/CapSense_Structure.c ****         }
ARM GAS  C:\Users\inspiron\AppData\Local\Temp\ccI2FbJy.s 			page 28


1054:Generated_Source\PSoC4/CapSense_Structure.c ****         else
1055:Generated_Source\PSoC4/CapSense_Structure.c ****         {
1056:Generated_Source\PSoC4/CapSense_Structure.c ****             /* Parameter comes here already validated. */
1057:Generated_Source\PSoC4/CapSense_Structure.c ****             CYASSERT(0u);
 457              		.loc 1 1057 0 discriminator 1
 458 0046 0020     		movs	r0, #0
 459 0048 FFF7FEFF 		bl	CyHalt
 460              	.LVL49:
 461              	.L34:
1058:Generated_Source\PSoC4/CapSense_Structure.c ****         }
1059:Generated_Source\PSoC4/CapSense_Structure.c **** 
1060:Generated_Source\PSoC4/CapSense_Structure.c ****         #if (CapSense_ENABLE == (CapSense_TST_WDGT_CRC_EN || CapSense_TST_GLOBAL_CRC_EN))
1061:Generated_Source\PSoC4/CapSense_Structure.c ****             /* Update widget or global CRC if self-test is enabled and parameter affects it */
1062:Generated_Source\PSoC4/CapSense_Structure.c ****             if (0u != pData.affectsCrc)
1063:Generated_Source\PSoC4/CapSense_Structure.c ****             {
1064:Generated_Source\PSoC4/CapSense_Structure.c ****                 if ((ptrData.ptrUint16 >= &CapSense_dsRam.csd0Config) &&
1065:Generated_Source\PSoC4/CapSense_Structure.c ****                     (ptrData.ptrUint16 <  &CapSense_dsRam.glbCrc))
1066:Generated_Source\PSoC4/CapSense_Structure.c ****                 {
1067:Generated_Source\PSoC4/CapSense_Structure.c **** 
1068:Generated_Source\PSoC4/CapSense_Structure.c ****                     #if (CapSense_ENABLE == CapSense_TST_GLOBAL_CRC_EN)
1069:Generated_Source\PSoC4/CapSense_Structure.c ****                         CapSense_DsUpdateGlobalCrc();
1070:Generated_Source\PSoC4/CapSense_Structure.c ****                     #endif /* (CapSense_ENABLE == CapSense_TST_GLOBAL_CRC_EN) */
1071:Generated_Source\PSoC4/CapSense_Structure.c **** 
1072:Generated_Source\PSoC4/CapSense_Structure.c ****                 }
1073:Generated_Source\PSoC4/CapSense_Structure.c ****                 else
1074:Generated_Source\PSoC4/CapSense_Structure.c ****                 {
1075:Generated_Source\PSoC4/CapSense_Structure.c ****                     #if (CapSense_ENABLE == CapSense_TST_WDGT_CRC_EN)
1076:Generated_Source\PSoC4/CapSense_Structure.c ****                         CapSense_DsUpdateWidgetCrc((uint32)pData.widgetId);
1077:Generated_Source\PSoC4/CapSense_Structure.c ****                     #endif /* (CapSense_ENABLE == CapSense_TST_WDGT_CRC_EN) */
1078:Generated_Source\PSoC4/CapSense_Structure.c ****                 }
1079:Generated_Source\PSoC4/CapSense_Structure.c ****             }
1080:Generated_Source\PSoC4/CapSense_Structure.c ****         #endif /* (CapSense_ENABLE == (CapSense_TST_WDGT_CRC_EN || CapSense_TST_GLOBAL_CRC_EN)) */
1081:Generated_Source\PSoC4/CapSense_Structure.c ****     }
1082:Generated_Source\PSoC4/CapSense_Structure.c **** 
1083:Generated_Source\PSoC4/CapSense_Structure.c ****     return result;
1084:Generated_Source\PSoC4/CapSense_Structure.c **** }
 462              		.loc 1 1084 0
 463 004c 2000     		movs	r0, r4
 464 004e 03B0     		add	sp, sp, #12
 465              		@ sp needed
 466              	.LVL50:
 467 0050 30BD     		pop	{r4, r5, pc}
 468              	.L40:
 469 0052 C046     		.align	2
 470              	.L39:
 471 0054 00000000 		.word	CapSense_dsRam
 472              		.cfi_endproc
 473              	.LFE4:
 474              		.size	CapSense_SetParam, .-CapSense_SetParam
 475              		.section	.text.CapSense_IsAnyWidgetActive,"ax",%progbits
 476              		.align	2
 477              		.global	CapSense_IsAnyWidgetActive
 478              		.code	16
 479              		.thumb_func
 480              		.type	CapSense_IsAnyWidgetActive, %function
 481              	CapSense_IsAnyWidgetActive:
 482              	.LFB5:
ARM GAS  C:\Users\inspiron\AppData\Local\Temp\ccI2FbJy.s 			page 29


1085:Generated_Source\PSoC4/CapSense_Structure.c **** 
1086:Generated_Source\PSoC4/CapSense_Structure.c **** /*******************************************************************************
1087:Generated_Source\PSoC4/CapSense_Structure.c **** * Function Name: CapSense_IsAnyWidgetActive
1088:Generated_Source\PSoC4/CapSense_Structure.c **** ****************************************************************************//**
1089:Generated_Source\PSoC4/CapSense_Structure.c **** *
1090:Generated_Source\PSoC4/CapSense_Structure.c **** * \brief
1091:Generated_Source\PSoC4/CapSense_Structure.c **** *  Reports if any widget has detected a touch.
1092:Generated_Source\PSoC4/CapSense_Structure.c **** *
1093:Generated_Source\PSoC4/CapSense_Structure.c **** * \details
1094:Generated_Source\PSoC4/CapSense_Structure.c **** *  This function reports if any widget has detected a touch or not by extracting
1095:Generated_Source\PSoC4/CapSense_Structure.c **** *  information from the wdgtStatus registers
1096:Generated_Source\PSoC4/CapSense_Structure.c **** *  (CapSense_WDGT_STATUS<X>_VALUE). This function does not process a
1097:Generated_Source\PSoC4/CapSense_Structure.c **** *  widget but extracts processed results from the \ref group_structures.
1098:Generated_Source\PSoC4/CapSense_Structure.c **** *
1099:Generated_Source\PSoC4/CapSense_Structure.c **** * \return
1100:Generated_Source\PSoC4/CapSense_Structure.c **** *   Returns the touch detection status of all the widgets:
1101:Generated_Source\PSoC4/CapSense_Structure.c **** *     - Zero - No touch is detected in all the widgets or sensors.
1102:Generated_Source\PSoC4/CapSense_Structure.c **** *     - Non-zero - At least one widget or sensor detected a touch.
1103:Generated_Source\PSoC4/CapSense_Structure.c **** *
1104:Generated_Source\PSoC4/CapSense_Structure.c **** *******************************************************************************/
1105:Generated_Source\PSoC4/CapSense_Structure.c **** uint32 CapSense_IsAnyWidgetActive(void)
1106:Generated_Source\PSoC4/CapSense_Structure.c **** {
 483              		.loc 1 1106 0
 484              		.cfi_startproc
 485              		@ args = 0, pretend = 0, frame = 0
 486              		@ frame_needed = 0, uses_anonymous_args = 0
 487              		@ link register save eliminated.
 488              	.LVL51:
1107:Generated_Source\PSoC4/CapSense_Structure.c ****     uint32 result = 0Lu;
1108:Generated_Source\PSoC4/CapSense_Structure.c ****     uint32 wdWord;
1109:Generated_Source\PSoC4/CapSense_Structure.c **** 
1110:Generated_Source\PSoC4/CapSense_Structure.c ****     for (wdWord = CapSense_WDGT_STATUS_WORDS; wdWord-- > 0u;)
 489              		.loc 1 1110 0
 490 0000 0123     		movs	r3, #1
1107:Generated_Source\PSoC4/CapSense_Structure.c ****     uint32 result = 0Lu;
 491              		.loc 1 1107 0
 492 0002 0020     		movs	r0, #0
 493              		.loc 1 1110 0
 494 0004 06E0     		b	.L42
 495              	.LVL52:
 496              	.L43:
1111:Generated_Source\PSoC4/CapSense_Structure.c ****     {
1112:Generated_Source\PSoC4/CapSense_Structure.c ****         result |= CapSense_dsRam.wdgtStatus[wdWord];
 497              		.loc 1 1112 0
 498 0006 131D     		adds	r3, r2, #4
 499 0008 9B00     		lsls	r3, r3, #2
 500 000a 0449     		ldr	r1, .L44
 501 000c CB18     		adds	r3, r1, r3
 502 000e 5B68     		ldr	r3, [r3, #4]
 503 0010 1843     		orrs	r0, r3
 504              	.LVL53:
1110:Generated_Source\PSoC4/CapSense_Structure.c ****     {
 505              		.loc 1 1110 0
 506 0012 1300     		movs	r3, r2
 507              	.LVL54:
 508              	.L42:
1110:Generated_Source\PSoC4/CapSense_Structure.c ****     {
ARM GAS  C:\Users\inspiron\AppData\Local\Temp\ccI2FbJy.s 			page 30


 509              		.loc 1 1110 0 is_stmt 0 discriminator 1
 510 0014 5A1E     		subs	r2, r3, #1
 511              	.LVL55:
 512 0016 002B     		cmp	r3, #0
 513 0018 F5D1     		bne	.L43
1113:Generated_Source\PSoC4/CapSense_Structure.c ****     }
1114:Generated_Source\PSoC4/CapSense_Structure.c **** 
1115:Generated_Source\PSoC4/CapSense_Structure.c ****     return result;
1116:Generated_Source\PSoC4/CapSense_Structure.c **** }
 514              		.loc 1 1116 0 is_stmt 1
 515              		@ sp needed
 516 001a 7047     		bx	lr
 517              	.L45:
 518              		.align	2
 519              	.L44:
 520 001c 00000000 		.word	CapSense_dsRam
 521              		.cfi_endproc
 522              	.LFE5:
 523              		.size	CapSense_IsAnyWidgetActive, .-CapSense_IsAnyWidgetActive
 524              		.section	.text.CapSense_IsWidgetActive,"ax",%progbits
 525              		.align	2
 526              		.global	CapSense_IsWidgetActive
 527              		.code	16
 528              		.thumb_func
 529              		.type	CapSense_IsWidgetActive, %function
 530              	CapSense_IsWidgetActive:
 531              	.LFB6:
1117:Generated_Source\PSoC4/CapSense_Structure.c **** 
1118:Generated_Source\PSoC4/CapSense_Structure.c **** 
1119:Generated_Source\PSoC4/CapSense_Structure.c **** /*******************************************************************************
1120:Generated_Source\PSoC4/CapSense_Structure.c **** * Function Name: CapSense_IsWidgetActive
1121:Generated_Source\PSoC4/CapSense_Structure.c **** ****************************************************************************//**
1122:Generated_Source\PSoC4/CapSense_Structure.c **** *
1123:Generated_Source\PSoC4/CapSense_Structure.c **** * \brief
1124:Generated_Source\PSoC4/CapSense_Structure.c **** *  Reports if the specified widget detects a touch on any of its sensors.
1125:Generated_Source\PSoC4/CapSense_Structure.c **** *
1126:Generated_Source\PSoC4/CapSense_Structure.c **** * \details
1127:Generated_Source\PSoC4/CapSense_Structure.c **** *  This function reports if the specified widget has detected a touch or not by
1128:Generated_Source\PSoC4/CapSense_Structure.c **** *  extracting information from the wdgtStatus registers
1129:Generated_Source\PSoC4/CapSense_Structure.c **** *  (CapSense_WDGT_STATUS<X>_VALUE). This function does not process the
1130:Generated_Source\PSoC4/CapSense_Structure.c **** *  widget but extracts processed results from the \ref group_structures.
1131:Generated_Source\PSoC4/CapSense_Structure.c **** *
1132:Generated_Source\PSoC4/CapSense_Structure.c **** * \param widgetId
1133:Generated_Source\PSoC4/CapSense_Structure.c **** *  Specifies the ID number of the widget to get its status.
1134:Generated_Source\PSoC4/CapSense_Structure.c **** *  A macro for the widget ID can be found in the CapSense Configuration header
1135:Generated_Source\PSoC4/CapSense_Structure.c **** *  file defined as CapSense_<WidgetName>_WDGT_ID.
1136:Generated_Source\PSoC4/CapSense_Structure.c **** *
1137:Generated_Source\PSoC4/CapSense_Structure.c **** * \return
1138:Generated_Source\PSoC4/CapSense_Structure.c **** *  Returns the touch detection status of the specified widgets:
1139:Generated_Source\PSoC4/CapSense_Structure.c **** *    - Zero - No touch is detected in the specified widget or a wrong widgetId
1140:Generated_Source\PSoC4/CapSense_Structure.c **** *      is specified.
1141:Generated_Source\PSoC4/CapSense_Structure.c **** *    - Non-zero if at least one sensor of the specified widget is active, i.e.
1142:Generated_Source\PSoC4/CapSense_Structure.c **** *      a touch is detected.
1143:Generated_Source\PSoC4/CapSense_Structure.c **** *
1144:Generated_Source\PSoC4/CapSense_Structure.c **** *******************************************************************************/
1145:Generated_Source\PSoC4/CapSense_Structure.c **** uint32 CapSense_IsWidgetActive(uint32 widgetId)
1146:Generated_Source\PSoC4/CapSense_Structure.c **** {
ARM GAS  C:\Users\inspiron\AppData\Local\Temp\ccI2FbJy.s 			page 31


 532              		.loc 1 1146 0
 533              		.cfi_startproc
 534              		@ args = 0, pretend = 0, frame = 0
 535              		@ frame_needed = 0, uses_anonymous_args = 0
 536              		@ link register save eliminated.
 537              	.LVL56:
1147:Generated_Source\PSoC4/CapSense_Structure.c ****     uint32 result = 0Lu;
1148:Generated_Source\PSoC4/CapSense_Structure.c **** 
1149:Generated_Source\PSoC4/CapSense_Structure.c ****     if (widgetId < CapSense_TOTAL_WIDGETS)
 538              		.loc 1 1149 0
 539 0000 0028     		cmp	r0, #0
 540 0002 0BD1     		bne	.L48
1150:Generated_Source\PSoC4/CapSense_Structure.c ****     {
1151:Generated_Source\PSoC4/CapSense_Structure.c ****         result = CapSense_GET_WIDGET_ACTIVE_STATUS(widgetId);
 541              		.loc 1 1151 0
 542 0004 1F23     		movs	r3, #31
 543 0006 0340     		ands	r3, r0
 544 0008 0122     		movs	r2, #1
 545 000a 9A40     		lsls	r2, r2, r3
 546 000c 4009     		lsrs	r0, r0, #5
 547              	.LVL57:
 548 000e 031D     		adds	r3, r0, #4
 549 0010 9B00     		lsls	r3, r3, #2
 550 0012 0348     		ldr	r0, .L49
 551 0014 C318     		adds	r3, r0, r3
 552 0016 5868     		ldr	r0, [r3, #4]
 553 0018 1040     		ands	r0, r2
 554              	.LVL58:
 555 001a 00E0     		b	.L47
 556              	.LVL59:
 557              	.L48:
1147:Generated_Source\PSoC4/CapSense_Structure.c ****     uint32 result = 0Lu;
 558              		.loc 1 1147 0
 559 001c 0020     		movs	r0, #0
 560              	.LVL60:
 561              	.L47:
1152:Generated_Source\PSoC4/CapSense_Structure.c ****     }
1153:Generated_Source\PSoC4/CapSense_Structure.c ****     return result;
1154:Generated_Source\PSoC4/CapSense_Structure.c **** }
 562              		.loc 1 1154 0
 563              		@ sp needed
 564 001e 7047     		bx	lr
 565              	.L50:
 566              		.align	2
 567              	.L49:
 568 0020 00000000 		.word	CapSense_dsRam
 569              		.cfi_endproc
 570              	.LFE6:
 571              		.size	CapSense_IsWidgetActive, .-CapSense_IsWidgetActive
 572              		.section	.text.CapSense_IsSensorActive,"ax",%progbits
 573              		.align	2
 574              		.global	CapSense_IsSensorActive
 575              		.code	16
 576              		.thumb_func
 577              		.type	CapSense_IsSensorActive, %function
 578              	CapSense_IsSensorActive:
 579              	.LFB7:
ARM GAS  C:\Users\inspiron\AppData\Local\Temp\ccI2FbJy.s 			page 32


1155:Generated_Source\PSoC4/CapSense_Structure.c **** 
1156:Generated_Source\PSoC4/CapSense_Structure.c **** 
1157:Generated_Source\PSoC4/CapSense_Structure.c **** /*******************************************************************************
1158:Generated_Source\PSoC4/CapSense_Structure.c **** * Function Name: CapSense_IsSensorActive
1159:Generated_Source\PSoC4/CapSense_Structure.c **** ****************************************************************************//**
1160:Generated_Source\PSoC4/CapSense_Structure.c **** *
1161:Generated_Source\PSoC4/CapSense_Structure.c **** * \brief
1162:Generated_Source\PSoC4/CapSense_Structure.c **** *  Reports if the specified sensor in the widget detects a touch.
1163:Generated_Source\PSoC4/CapSense_Structure.c **** *
1164:Generated_Source\PSoC4/CapSense_Structure.c **** * \details
1165:Generated_Source\PSoC4/CapSense_Structure.c **** *  This function reports if the specified sensor in the widget has detected a
1166:Generated_Source\PSoC4/CapSense_Structure.c **** *  touch or not by extracting information from the wdgtStatus registers
1167:Generated_Source\PSoC4/CapSense_Structure.c **** *  (CapSense_WDGT_STATUS<X>_VALUE). This function does not process the
1168:Generated_Source\PSoC4/CapSense_Structure.c **** *  widget or sensor but extracts processed results from the \ref group_structures.
1169:Generated_Source\PSoC4/CapSense_Structure.c **** *
1170:Generated_Source\PSoC4/CapSense_Structure.c **** *  For proximity sensors, this function returns the proximity detection status. To
1171:Generated_Source\PSoC4/CapSense_Structure.c **** *  get the finger touch status of proximity sensors, use the
1172:Generated_Source\PSoC4/CapSense_Structure.c **** *  CapSense_IsProximitySensorActive() function.
1173:Generated_Source\PSoC4/CapSense_Structure.c **** *
1174:Generated_Source\PSoC4/CapSense_Structure.c **** * \param widgetId
1175:Generated_Source\PSoC4/CapSense_Structure.c **** *  Specifies the ID number of the widget.
1176:Generated_Source\PSoC4/CapSense_Structure.c **** *  A macro for the widget ID can be found in the CapSense Configuration header
1177:Generated_Source\PSoC4/CapSense_Structure.c **** *  file defined as CapSense_<WidgetName>_WDGT_ID.
1178:Generated_Source\PSoC4/CapSense_Structure.c **** 
1179:Generated_Source\PSoC4/CapSense_Structure.c **** * \param sensorId
1180:Generated_Source\PSoC4/CapSense_Structure.c **** *  Specifies the ID number of the sensor within the widget to get its touch
1181:Generated_Source\PSoC4/CapSense_Structure.c **** *  detection status.
1182:Generated_Source\PSoC4/CapSense_Structure.c **** *  A macro for the sensor ID within the specified widget can be found in the
1183:Generated_Source\PSoC4/CapSense_Structure.c **** *  CapSense Configuration header file defined as
1184:Generated_Source\PSoC4/CapSense_Structure.c **** *  CapSense_<WidgetName>_SNS<SensorNumber>_ID.
1185:Generated_Source\PSoC4/CapSense_Structure.c **** *
1186:Generated_Source\PSoC4/CapSense_Structure.c **** * \return
1187:Generated_Source\PSoC4/CapSense_Structure.c **** *  Returns the touch detection status of the specified sensor / widget:
1188:Generated_Source\PSoC4/CapSense_Structure.c **** *    - Zero if no touch is detected in the specified sensor / widget or a wrong
1189:Generated_Source\PSoC4/CapSense_Structure.c **** *      widget ID / sensor ID is specified.
1190:Generated_Source\PSoC4/CapSense_Structure.c **** *    - Non-zero if the specified sensor is active i.e. touch is detected. If the
1191:Generated_Source\PSoC4/CapSense_Structure.c **** *      specific sensor belongs to a proximity widget, the proximity detection
1192:Generated_Source\PSoC4/CapSense_Structure.c **** *      status is returned.
1193:Generated_Source\PSoC4/CapSense_Structure.c **** *
1194:Generated_Source\PSoC4/CapSense_Structure.c **** *******************************************************************************/
1195:Generated_Source\PSoC4/CapSense_Structure.c **** uint32 CapSense_IsSensorActive(uint32 widgetId, uint32 sensorId)
1196:Generated_Source\PSoC4/CapSense_Structure.c **** {
 580              		.loc 1 1196 0
 581              		.cfi_startproc
 582              		@ args = 0, pretend = 0, frame = 0
 583              		@ frame_needed = 0, uses_anonymous_args = 0
 584              		@ link register save eliminated.
 585              	.LVL61:
1197:Generated_Source\PSoC4/CapSense_Structure.c ****     uint32 result = 0Lu;
1198:Generated_Source\PSoC4/CapSense_Structure.c **** 
1199:Generated_Source\PSoC4/CapSense_Structure.c ****     if ((widgetId < CapSense_TOTAL_WIDGETS) &&
 586              		.loc 1 1199 0
 587 0000 0028     		cmp	r0, #0
 588 0002 0ED1     		bne	.L53
1200:Generated_Source\PSoC4/CapSense_Structure.c ****         (sensorId < CapSense_GET_SENSOR_COUNT(widgetId)))
 589              		.loc 1 1200 0 discriminator 1
 590 0004 3423     		movs	r3, #52
ARM GAS  C:\Users\inspiron\AppData\Local\Temp\ccI2FbJy.s 			page 33


 591 0006 4343     		muls	r3, r0
 592 0008 084A     		ldr	r2, .L55
 593 000a D318     		adds	r3, r2, r3
 594 000c 1B8D     		ldrh	r3, [r3, #40]
1199:Generated_Source\PSoC4/CapSense_Structure.c ****         (sensorId < CapSense_GET_SENSOR_COUNT(widgetId)))
 595              		.loc 1 1199 0 discriminator 1
 596 000e 8B42     		cmp	r3, r1
 597 0010 09D9     		bls	.L54
1201:Generated_Source\PSoC4/CapSense_Structure.c ****     {
1202:Generated_Source\PSoC4/CapSense_Structure.c ****         #if (CapSense_ENABLE == CapSense_PROXIMITY_WIDGET_EN)
1203:Generated_Source\PSoC4/CapSense_Structure.c ****             if (CapSense_WD_PROXIMITY_E ==
1204:Generated_Source\PSoC4/CapSense_Structure.c ****                 (CapSense_WD_TYPE_ENUM)CapSense_dsFlash.wdgtArray[widgetId].wdgtType)
1205:Generated_Source\PSoC4/CapSense_Structure.c ****             {
1206:Generated_Source\PSoC4/CapSense_Structure.c ****                 sensorId = CapSense_PROX_STS_OFFSET(sensorId);
1207:Generated_Source\PSoC4/CapSense_Structure.c ****             }
1208:Generated_Source\PSoC4/CapSense_Structure.c ****         #endif /* (CapSense_ENABLE != CapSense_PROXIMITY_WIDGET_EN) */
1209:Generated_Source\PSoC4/CapSense_Structure.c ****         result = CapSense_dsRam.snsStatus[widgetId] & (1Lu << sensorId);
 598              		.loc 1 1209 0
 599 0012 0C30     		adds	r0, r0, #12
 600              	.LVL62:
 601 0014 4000     		lsls	r0, r0, #1
 602              	.LVL63:
 603 0016 064B     		ldr	r3, .L55+4
 604 0018 C35A     		ldrh	r3, [r0, r3]
 605 001a 0120     		movs	r0, #1
 606 001c 8840     		lsls	r0, r0, r1
 607 001e 1840     		ands	r0, r3
 608              	.LVL64:
 609 0020 02E0     		b	.L52
 610              	.LVL65:
 611              	.L53:
1197:Generated_Source\PSoC4/CapSense_Structure.c **** 
 612              		.loc 1 1197 0
 613 0022 0020     		movs	r0, #0
 614              	.LVL66:
 615 0024 00E0     		b	.L52
 616              	.LVL67:
 617              	.L54:
 618 0026 0020     		movs	r0, #0
 619              	.LVL68:
 620              	.L52:
1210:Generated_Source\PSoC4/CapSense_Structure.c ****     }
1211:Generated_Source\PSoC4/CapSense_Structure.c **** 
1212:Generated_Source\PSoC4/CapSense_Structure.c ****     return result;
1213:Generated_Source\PSoC4/CapSense_Structure.c **** }
 621              		.loc 1 1213 0
 622              		@ sp needed
 623 0028 7047     		bx	lr
 624              	.L56:
 625 002a C046     		.align	2
 626              	.L55:
 627 002c 00000000 		.word	.LANCHOR0
 628 0030 00000000 		.word	CapSense_dsRam
 629              		.cfi_endproc
 630              	.LFE7:
 631              		.size	CapSense_IsSensorActive, .-CapSense_IsSensorActive
 632              		.section	.text.CapSense_GetXYCoordinates,"ax",%progbits
ARM GAS  C:\Users\inspiron\AppData\Local\Temp\ccI2FbJy.s 			page 34


 633              		.align	2
 634              		.global	CapSense_GetXYCoordinates
 635              		.code	16
 636              		.thumb_func
 637              		.type	CapSense_GetXYCoordinates, %function
 638              	CapSense_GetXYCoordinates:
 639              	.LFB8:
1214:Generated_Source\PSoC4/CapSense_Structure.c **** 
1215:Generated_Source\PSoC4/CapSense_Structure.c **** #if (0u != CapSense_MATRIX_WIDGET_EN)
1216:Generated_Source\PSoC4/CapSense_Structure.c **** /*******************************************************************************
1217:Generated_Source\PSoC4/CapSense_Structure.c **** * Function Name: CapSense_IsMatrixButtonsActive
1218:Generated_Source\PSoC4/CapSense_Structure.c **** ****************************************************************************//**
1219:Generated_Source\PSoC4/CapSense_Structure.c **** *
1220:Generated_Source\PSoC4/CapSense_Structure.c **** * \brief
1221:Generated_Source\PSoC4/CapSense_Structure.c **** *  Reports the status of the specified matrix button widget.
1222:Generated_Source\PSoC4/CapSense_Structure.c **** *
1223:Generated_Source\PSoC4/CapSense_Structure.c **** * \details
1224:Generated_Source\PSoC4/CapSense_Structure.c **** *  This function reports if the specified matrix widget has detected a touch or
1225:Generated_Source\PSoC4/CapSense_Structure.c **** *  not by extracting information from the wdgtStatus registers
1226:Generated_Source\PSoC4/CapSense_Structure.c **** *  (CapSense_WDGT_STATUS<X>_VALUE for the CSD widgets and
1227:Generated_Source\PSoC4/CapSense_Structure.c **** *  CapSense_SNS_STATUS<WidgetId>_VALUE for CSX widget). In addition, the
1228:Generated_Source\PSoC4/CapSense_Structure.c **** *  function provides details of the active sensor including active rows/columns
1229:Generated_Source\PSoC4/CapSense_Structure.c **** *  for the CSD widgets. This function is used only with the matrix button
1230:Generated_Source\PSoC4/CapSense_Structure.c **** *  widgets. This function does not process the widget but extracts
1231:Generated_Source\PSoC4/CapSense_Structure.c **** *  processed results from the \ref group_structures.
1232:Generated_Source\PSoC4/CapSense_Structure.c **** *
1233:Generated_Source\PSoC4/CapSense_Structure.c **** * \param widgetId
1234:Generated_Source\PSoC4/CapSense_Structure.c **** *  Specifies the ID number of the matrix button widget to check the status of its
1235:Generated_Source\PSoC4/CapSense_Structure.c **** *  sensors.
1236:Generated_Source\PSoC4/CapSense_Structure.c **** *  A macro for the widget ID can be found in the CapSense Configuration header file
1237:Generated_Source\PSoC4/CapSense_Structure.c **** *  defined as CapSense_<WidgetName>_WDGT_ID
1238:Generated_Source\PSoC4/CapSense_Structure.c **** *
1239:Generated_Source\PSoC4/CapSense_Structure.c **** * \return
1240:Generated_Source\PSoC4/CapSense_Structure.c **** *  Returns the touch detection status of the sensors in the specified matrix
1241:Generated_Source\PSoC4/CapSense_Structure.c **** *  buttons widget. Zero indicates that no touch is detected in the specified
1242:Generated_Source\PSoC4/CapSense_Structure.c **** *  widget or a wrong widgetId is specified.
1243:Generated_Source\PSoC4/CapSense_Structure.c **** *    1. For the matrix buttons widgets with the CSD sensing mode:
1244:Generated_Source\PSoC4/CapSense_Structure.c **** *      - Bit [31] if set, indicates that one or more sensors in the widget
1245:Generated_Source\PSoC4/CapSense_Structure.c **** *        detected a touch.
1246:Generated_Source\PSoC4/CapSense_Structure.c **** *      - Bits [30..24] are reserved
1247:Generated_Source\PSoC4/CapSense_Structure.c **** *      - Bits [23..16] indicate the logical sensor number of the sensor that
1248:Generated_Source\PSoC4/CapSense_Structure.c **** *        detected a touch. If more than one sensor detected a touch for the CSD
1249:Generated_Source\PSoC4/CapSense_Structure.c **** *        widget, no status is reported because more than one touch is invalid for the
1250:Generated_Source\PSoC4/CapSense_Structure.c **** *        CSD matrix buttons widgets.
1251:Generated_Source\PSoC4/CapSense_Structure.c **** *      - Bits [15..8] indicate the active row number.
1252:Generated_Source\PSoC4/CapSense_Structure.c **** *      - Bits [7..0] indicate the active column number.
1253:Generated_Source\PSoC4/CapSense_Structure.c **** *    2. For the matrix buttons widgets with the CSX widgets, each bit (31..0)
1254:Generated_Source\PSoC4/CapSense_Structure.c **** *      corresponds to the TX/RX intersection.
1255:Generated_Source\PSoC4/CapSense_Structure.c **** *
1256:Generated_Source\PSoC4/CapSense_Structure.c **** *******************************************************************************/
1257:Generated_Source\PSoC4/CapSense_Structure.c **** uint32 CapSense_IsMatrixButtonsActive(uint32 widgetId)
1258:Generated_Source\PSoC4/CapSense_Structure.c **** {
1259:Generated_Source\PSoC4/CapSense_Structure.c ****     uint32 result = 0Lu;
1260:Generated_Source\PSoC4/CapSense_Structure.c ****     cystatus state = CYRET_SUCCESS;
1261:Generated_Source\PSoC4/CapSense_Structure.c ****     CapSense_FLASH_WD_STRUCT const *ptrFlashWdgt = 0u;
1262:Generated_Source\PSoC4/CapSense_Structure.c **** 
1263:Generated_Source\PSoC4/CapSense_Structure.c ****     #if (0u != CapSense_CSD_MATRIX_WIDGET_EN)
ARM GAS  C:\Users\inspiron\AppData\Local\Temp\ccI2FbJy.s 			page 35


1264:Generated_Source\PSoC4/CapSense_Structure.c ****         CapSense_RAM_WD_CSD_MATRIX_STRUCT *wdCsdMatrix;
1265:Generated_Source\PSoC4/CapSense_Structure.c ****     #endif
1266:Generated_Source\PSoC4/CapSense_Structure.c **** 
1267:Generated_Source\PSoC4/CapSense_Structure.c ****     if (widgetId >= CapSense_TOTAL_WIDGETS)
1268:Generated_Source\PSoC4/CapSense_Structure.c ****     {
1269:Generated_Source\PSoC4/CapSense_Structure.c ****         state = CYRET_BAD_PARAM;
1270:Generated_Source\PSoC4/CapSense_Structure.c ****     }
1271:Generated_Source\PSoC4/CapSense_Structure.c ****     else
1272:Generated_Source\PSoC4/CapSense_Structure.c ****     {
1273:Generated_Source\PSoC4/CapSense_Structure.c ****         ptrFlashWdgt = &CapSense_dsFlash.wdgtArray[widgetId];
1274:Generated_Source\PSoC4/CapSense_Structure.c **** 
1275:Generated_Source\PSoC4/CapSense_Structure.c ****         if ((CapSense_WD_TYPE_ENUM)ptrFlashWdgt->wdgtType != CapSense_WD_MATRIX_BUTTON_E)
1276:Generated_Source\PSoC4/CapSense_Structure.c ****         {
1277:Generated_Source\PSoC4/CapSense_Structure.c ****             state = CYRET_BAD_PARAM;
1278:Generated_Source\PSoC4/CapSense_Structure.c ****         }
1279:Generated_Source\PSoC4/CapSense_Structure.c ****         else if (0u == CapSense_GET_WIDGET_ACTIVE_STATUS(widgetId))
1280:Generated_Source\PSoC4/CapSense_Structure.c ****         {
1281:Generated_Source\PSoC4/CapSense_Structure.c ****             state = CYRET_BAD_PARAM;
1282:Generated_Source\PSoC4/CapSense_Structure.c ****         }
1283:Generated_Source\PSoC4/CapSense_Structure.c ****         else
1284:Generated_Source\PSoC4/CapSense_Structure.c ****         {
1285:Generated_Source\PSoC4/CapSense_Structure.c ****             /* input parameters are OK */
1286:Generated_Source\PSoC4/CapSense_Structure.c ****         }
1287:Generated_Source\PSoC4/CapSense_Structure.c ****     }
1288:Generated_Source\PSoC4/CapSense_Structure.c **** 
1289:Generated_Source\PSoC4/CapSense_Structure.c ****     if (CYRET_SUCCESS == state)
1290:Generated_Source\PSoC4/CapSense_Structure.c ****     {
1291:Generated_Source\PSoC4/CapSense_Structure.c ****         switch(CapSense_GET_SENSE_METHOD(ptrFlashWdgt))
1292:Generated_Source\PSoC4/CapSense_Structure.c ****         {
1293:Generated_Source\PSoC4/CapSense_Structure.c ****         #if (0u != CapSense_CSD_MATRIX_WIDGET_EN)
1294:Generated_Source\PSoC4/CapSense_Structure.c ****             case CapSense_SENSE_METHOD_CSD_E:
1295:Generated_Source\PSoC4/CapSense_Structure.c ****                 wdCsdMatrix = ptrFlashWdgt->ptr2WdgtRam;
1296:Generated_Source\PSoC4/CapSense_Structure.c **** 
1297:Generated_Source\PSoC4/CapSense_Structure.c ****                 result = CapSense_MATRIX_BUTTONS_TOUCHED |
1298:Generated_Source\PSoC4/CapSense_Structure.c ****                          ((uint32)wdCsdMatrix->posSnsId << 16u)  |
1299:Generated_Source\PSoC4/CapSense_Structure.c ****                          ((uint32)wdCsdMatrix->posRow   << 8u)   |
1300:Generated_Source\PSoC4/CapSense_Structure.c ****                          (uint32)wdCsdMatrix->posCol;
1301:Generated_Source\PSoC4/CapSense_Structure.c ****                 break;
1302:Generated_Source\PSoC4/CapSense_Structure.c ****         #endif /* #if (0u != CapSense_CSD_MATRIX_WIDGET_EN) */
1303:Generated_Source\PSoC4/CapSense_Structure.c **** 
1304:Generated_Source\PSoC4/CapSense_Structure.c ****         #if (0u != CapSense_CSX_MATRIX_WIDGET_EN)
1305:Generated_Source\PSoC4/CapSense_Structure.c ****             case CapSense_SENSE_METHOD_CSX_E:
1306:Generated_Source\PSoC4/CapSense_Structure.c ****                 result = CapSense_dsRam.snsStatus[widgetId];
1307:Generated_Source\PSoC4/CapSense_Structure.c ****                 break;
1308:Generated_Source\PSoC4/CapSense_Structure.c ****         #endif /* #if (0u != CapSense_CSX_MATRIX_WIDGET_EN) */
1309:Generated_Source\PSoC4/CapSense_Structure.c **** 
1310:Generated_Source\PSoC4/CapSense_Structure.c ****         default:
1311:Generated_Source\PSoC4/CapSense_Structure.c ****             CYASSERT(0u);
1312:Generated_Source\PSoC4/CapSense_Structure.c ****             break;
1313:Generated_Source\PSoC4/CapSense_Structure.c ****         }
1314:Generated_Source\PSoC4/CapSense_Structure.c ****     }
1315:Generated_Source\PSoC4/CapSense_Structure.c **** 
1316:Generated_Source\PSoC4/CapSense_Structure.c ****     return result;
1317:Generated_Source\PSoC4/CapSense_Structure.c **** }
1318:Generated_Source\PSoC4/CapSense_Structure.c **** #endif /* #if (0u != CapSense_MATRIX_WIDGET_EN) */
1319:Generated_Source\PSoC4/CapSense_Structure.c **** 
1320:Generated_Source\PSoC4/CapSense_Structure.c **** #if (0u != CapSense_PROXIMITY_WIDGET_EN)
ARM GAS  C:\Users\inspiron\AppData\Local\Temp\ccI2FbJy.s 			page 36


1321:Generated_Source\PSoC4/CapSense_Structure.c **** /*******************************************************************************
1322:Generated_Source\PSoC4/CapSense_Structure.c **** * Function Name: CapSense_IsProximitySensorActive
1323:Generated_Source\PSoC4/CapSense_Structure.c **** ****************************************************************************//**
1324:Generated_Source\PSoC4/CapSense_Structure.c **** *
1325:Generated_Source\PSoC4/CapSense_Structure.c **** * \brief
1326:Generated_Source\PSoC4/CapSense_Structure.c **** *  Reports the finger detection status of the specified proximity widget/sensor.
1327:Generated_Source\PSoC4/CapSense_Structure.c **** *
1328:Generated_Source\PSoC4/CapSense_Structure.c **** * \details
1329:Generated_Source\PSoC4/CapSense_Structure.c **** *  This function reports if the specified proximity sensor has detected a touch
1330:Generated_Source\PSoC4/CapSense_Structure.c **** *  or not by extracting information from the wdgtStatus registers
1331:Generated_Source\PSoC4/CapSense_Structure.c **** *  (CapSense_SNS_STATUS<WidgetId>_VALUE). This function is used
1332:Generated_Source\PSoC4/CapSense_Structure.c **** *  only with proximity sensor widgets. This function does not process the
1333:Generated_Source\PSoC4/CapSense_Structure.c **** *  widget but extracts processed results from the \ref group_structures.
1334:Generated_Source\PSoC4/CapSense_Structure.c **** *
1335:Generated_Source\PSoC4/CapSense_Structure.c **** * \param widgetId
1336:Generated_Source\PSoC4/CapSense_Structure.c **** *  Specifies the ID number of the proximity widget.
1337:Generated_Source\PSoC4/CapSense_Structure.c **** *  A macro for the widget ID can be found in the CapSense Configuration header
1338:Generated_Source\PSoC4/CapSense_Structure.c **** *  file defined as CapSense_<WidgetName>_WDGT_ID
1339:Generated_Source\PSoC4/CapSense_Structure.c **** *
1340:Generated_Source\PSoC4/CapSense_Structure.c **** * \param proxId
1341:Generated_Source\PSoC4/CapSense_Structure.c **** *  Specifies the ID number of the proximity sensor within the proximity widget to
1342:Generated_Source\PSoC4/CapSense_Structure.c **** *  get its touch detection status.
1343:Generated_Source\PSoC4/CapSense_Structure.c **** *  A macro for the proximity ID within a specified widget can be found in the
1344:Generated_Source\PSoC4/CapSense_Structure.c **** *  CapSense Configuration header file defined as
1345:Generated_Source\PSoC4/CapSense_Structure.c **** *  CapSense_<WidgetName>_SNS<SensorNumber>_ID
1346:Generated_Source\PSoC4/CapSense_Structure.c **** *
1347:Generated_Source\PSoC4/CapSense_Structure.c **** * \return
1348:Generated_Source\PSoC4/CapSense_Structure.c **** *  Returns the status of the specified sensor of the proximity widget. Zero
1349:Generated_Source\PSoC4/CapSense_Structure.c **** *  indicates that no touch is detected in the specified sensor / widget or a
1350:Generated_Source\PSoC4/CapSense_Structure.c **** *  wrong widgetId / proxId is specified.
1351:Generated_Source\PSoC4/CapSense_Structure.c **** *    - Bits [31..2] are reserved.
1352:Generated_Source\PSoC4/CapSense_Structure.c **** *    - Bit [1] indicates that a touch is detected.
1353:Generated_Source\PSoC4/CapSense_Structure.c **** *    - Bit [0] indicates that a proximity is detected.
1354:Generated_Source\PSoC4/CapSense_Structure.c **** *
1355:Generated_Source\PSoC4/CapSense_Structure.c **** *******************************************************************************/
1356:Generated_Source\PSoC4/CapSense_Structure.c **** uint32 CapSense_IsProximitySensorActive(uint32 widgetId, uint32 proxId)
1357:Generated_Source\PSoC4/CapSense_Structure.c **** {
1358:Generated_Source\PSoC4/CapSense_Structure.c ****     uint32 result = 0Lu;
1359:Generated_Source\PSoC4/CapSense_Structure.c **** 
1360:Generated_Source\PSoC4/CapSense_Structure.c ****     if ((widgetId < CapSense_TOTAL_WIDGETS) && (proxId < CapSense_GET_SENSOR_COUNT(widgetId)) &&
1361:Generated_Source\PSoC4/CapSense_Structure.c ****         (CapSense_WD_PROXIMITY_E ==
1362:Generated_Source\PSoC4/CapSense_Structure.c ****             (CapSense_WD_TYPE_ENUM)CapSense_dsFlash.wdgtArray[widgetId].wdgtType))
1363:Generated_Source\PSoC4/CapSense_Structure.c ****     {
1364:Generated_Source\PSoC4/CapSense_Structure.c ****         result = CapSense_dsRam.snsStatus[widgetId];
1365:Generated_Source\PSoC4/CapSense_Structure.c ****         result >>= CapSense_PROX_STS_OFFSET(proxId);
1366:Generated_Source\PSoC4/CapSense_Structure.c ****         result &=  CapSense_PROX_STS_MASK;
1367:Generated_Source\PSoC4/CapSense_Structure.c ****     }
1368:Generated_Source\PSoC4/CapSense_Structure.c **** 
1369:Generated_Source\PSoC4/CapSense_Structure.c ****     return result;
1370:Generated_Source\PSoC4/CapSense_Structure.c **** }
1371:Generated_Source\PSoC4/CapSense_Structure.c **** #endif /* #if (0u != CapSense_PROXIMITY_WIDGET_EN) */
1372:Generated_Source\PSoC4/CapSense_Structure.c **** 
1373:Generated_Source\PSoC4/CapSense_Structure.c **** 
1374:Generated_Source\PSoC4/CapSense_Structure.c **** #if (0u != CapSense_SLIDER_WIDGET_EN)
1375:Generated_Source\PSoC4/CapSense_Structure.c **** /*******************************************************************************
1376:Generated_Source\PSoC4/CapSense_Structure.c **** * Function Name: CapSense_GetCentroidPos
1377:Generated_Source\PSoC4/CapSense_Structure.c **** ****************************************************************************//**
ARM GAS  C:\Users\inspiron\AppData\Local\Temp\ccI2FbJy.s 			page 37


1378:Generated_Source\PSoC4/CapSense_Structure.c **** *
1379:Generated_Source\PSoC4/CapSense_Structure.c **** * \brief
1380:Generated_Source\PSoC4/CapSense_Structure.c **** *  Reports the centroid position for the specified slider widget.
1381:Generated_Source\PSoC4/CapSense_Structure.c **** *
1382:Generated_Source\PSoC4/CapSense_Structure.c **** * \details
1383:Generated_Source\PSoC4/CapSense_Structure.c **** *  This function reports the centroid value of a specified radial or linear
1384:Generated_Source\PSoC4/CapSense_Structure.c **** *  slider widget by extracting information from the wdgtStatus registers
1385:Generated_Source\PSoC4/CapSense_Structure.c **** *  (CapSense_<WidgetName>_POSITION<X>_VALUE). This function is
1386:Generated_Source\PSoC4/CapSense_Structure.c **** *  used only with radial or linear slider widgets. This function does not
1387:Generated_Source\PSoC4/CapSense_Structure.c **** *  process the widget but extracts processed results from the \ref group_structures.
1388:Generated_Source\PSoC4/CapSense_Structure.c **** *
1389:Generated_Source\PSoC4/CapSense_Structure.c **** * \param widgetId
1390:Generated_Source\PSoC4/CapSense_Structure.c **** *  Specifies the ID number of a slider widget to get the centroid of the
1391:Generated_Source\PSoC4/CapSense_Structure.c **** *  detected touch.
1392:Generated_Source\PSoC4/CapSense_Structure.c **** *  A macro for the widget ID can be found in the
1393:Generated_Source\PSoC4/CapSense_Structure.c **** *  CapSense Configuration header file defined as
1394:Generated_Source\PSoC4/CapSense_Structure.c **** *  CapSense_<WidgetName>_WDGT_ID
1395:Generated_Source\PSoC4/CapSense_Structure.c **** *
1396:Generated_Source\PSoC4/CapSense_Structure.c **** * \return
1397:Generated_Source\PSoC4/CapSense_Structure.c **** *  Returns the centroid position of a specified slider widget:
1398:Generated_Source\PSoC4/CapSense_Structure.c **** *    - The centroid position if a touch is detected.
1399:Generated_Source\PSoC4/CapSense_Structure.c **** *    - CapSense_SLIDER_NO_TOUCH - No touch is detected or a wrong
1400:Generated_Source\PSoC4/CapSense_Structure.c **** *      widgetId is specified.
1401:Generated_Source\PSoC4/CapSense_Structure.c **** *
1402:Generated_Source\PSoC4/CapSense_Structure.c **** *******************************************************************************/
1403:Generated_Source\PSoC4/CapSense_Structure.c **** uint32 CapSense_GetCentroidPos(uint32 widgetId)
1404:Generated_Source\PSoC4/CapSense_Structure.c **** {
1405:Generated_Source\PSoC4/CapSense_Structure.c ****     uint32 result = CapSense_SLIDER_NO_TOUCH;
1406:Generated_Source\PSoC4/CapSense_Structure.c ****     CapSense_RAM_WD_SLIDER_STRUCT *wdSlider;
1407:Generated_Source\PSoC4/CapSense_Structure.c **** 
1408:Generated_Source\PSoC4/CapSense_Structure.c ****     if ((widgetId < CapSense_TOTAL_WIDGETS) &&
1409:Generated_Source\PSoC4/CapSense_Structure.c ****         ((CapSense_WD_LINEAR_SLIDER_E ==
1410:Generated_Source\PSoC4/CapSense_Structure.c ****             (CapSense_WD_TYPE_ENUM)CapSense_dsFlash.wdgtArray[widgetId].wdgtType) ||
1411:Generated_Source\PSoC4/CapSense_Structure.c ****          (CapSense_WD_RADIAL_SLIDER_E ==
1412:Generated_Source\PSoC4/CapSense_Structure.c ****             (CapSense_WD_TYPE_ENUM)CapSense_dsFlash.wdgtArray[widgetId].wdgtType)))
1413:Generated_Source\PSoC4/CapSense_Structure.c ****     {
1414:Generated_Source\PSoC4/CapSense_Structure.c ****         wdSlider = CapSense_dsFlash.wdgtArray[widgetId].ptr2WdgtRam;
1415:Generated_Source\PSoC4/CapSense_Structure.c ****         result = (uint32)wdSlider->position[0u];
1416:Generated_Source\PSoC4/CapSense_Structure.c ****     }
1417:Generated_Source\PSoC4/CapSense_Structure.c **** 
1418:Generated_Source\PSoC4/CapSense_Structure.c ****     return result;
1419:Generated_Source\PSoC4/CapSense_Structure.c **** }
1420:Generated_Source\PSoC4/CapSense_Structure.c **** #endif /* #if (0u != CapSense_SLIDER_WIDGET_EN) */
1421:Generated_Source\PSoC4/CapSense_Structure.c **** 
1422:Generated_Source\PSoC4/CapSense_Structure.c **** 
1423:Generated_Source\PSoC4/CapSense_Structure.c **** #if (0u != CapSense_TOUCHPAD_WIDGET_EN)
1424:Generated_Source\PSoC4/CapSense_Structure.c **** /*******************************************************************************
1425:Generated_Source\PSoC4/CapSense_Structure.c **** * Function Name: CapSense_GetXYCoordinates
1426:Generated_Source\PSoC4/CapSense_Structure.c **** ****************************************************************************//**
1427:Generated_Source\PSoC4/CapSense_Structure.c **** *
1428:Generated_Source\PSoC4/CapSense_Structure.c **** * \brief
1429:Generated_Source\PSoC4/CapSense_Structure.c **** *  Reports the X/Y position detected for the specified touchpad widget.
1430:Generated_Source\PSoC4/CapSense_Structure.c **** *
1431:Generated_Source\PSoC4/CapSense_Structure.c **** * \details
1432:Generated_Source\PSoC4/CapSense_Structure.c **** *  This function reports a touch position (X and Y coordinates) value of a
1433:Generated_Source\PSoC4/CapSense_Structure.c **** *  specified touchpad widget by extracting information from the wdgtStatus
1434:Generated_Source\PSoC4/CapSense_Structure.c **** *  registers (CapSense_<WidgetName>_POS_Y_VALUE). This function should
ARM GAS  C:\Users\inspiron\AppData\Local\Temp\ccI2FbJy.s 			page 38


1435:Generated_Source\PSoC4/CapSense_Structure.c **** *  be used only with the touchpad widgets. This function does not process the
1436:Generated_Source\PSoC4/CapSense_Structure.c **** *  widget but extracts processed results from the \ref group_structures.
1437:Generated_Source\PSoC4/CapSense_Structure.c **** *
1438:Generated_Source\PSoC4/CapSense_Structure.c **** * \param widgetId
1439:Generated_Source\PSoC4/CapSense_Structure.c **** *  Specifies the ID number of a touchpad widget to get the X/Y position of a
1440:Generated_Source\PSoC4/CapSense_Structure.c **** *  detected touch.
1441:Generated_Source\PSoC4/CapSense_Structure.c **** *  A macro for the widget ID can be found in the
1442:Generated_Source\PSoC4/CapSense_Structure.c **** *  CapSense Configuration header file defined as
1443:Generated_Source\PSoC4/CapSense_Structure.c **** *  CapSense_<WidgetName>_WDGT_ID.
1444:Generated_Source\PSoC4/CapSense_Structure.c **** *
1445:Generated_Source\PSoC4/CapSense_Structure.c **** * \return
1446:Generated_Source\PSoC4/CapSense_Structure.c **** *  Returns the touch position of a specified touchpad widget:
1447:Generated_Source\PSoC4/CapSense_Structure.c **** *    1. If a touch is detected:
1448:Generated_Source\PSoC4/CapSense_Structure.c **** *      - Bits [31..16] indicate the Y coordinate.
1449:Generated_Source\PSoC4/CapSense_Structure.c **** *      - Bits [15..0] indicate the X coordinate.
1450:Generated_Source\PSoC4/CapSense_Structure.c **** *    2. If no touch is detected or a wrong widgetId is specified:
1451:Generated_Source\PSoC4/CapSense_Structure.c **** *      - CapSense_TOUCHPAD_NO_TOUCH.
1452:Generated_Source\PSoC4/CapSense_Structure.c **** *
1453:Generated_Source\PSoC4/CapSense_Structure.c **** *******************************************************************************/
1454:Generated_Source\PSoC4/CapSense_Structure.c **** uint32 CapSense_GetXYCoordinates(uint32 widgetId)
1455:Generated_Source\PSoC4/CapSense_Structure.c **** {
 640              		.loc 1 1455 0
 641              		.cfi_startproc
 642              		@ args = 0, pretend = 0, frame = 0
 643              		@ frame_needed = 0, uses_anonymous_args = 0
 644              		@ link register save eliminated.
 645              	.LVL69:
1456:Generated_Source\PSoC4/CapSense_Structure.c ****     CapSense_FLASH_WD_STRUCT const *ptrFlashWdgt = NULL;
1457:Generated_Source\PSoC4/CapSense_Structure.c **** 
1458:Generated_Source\PSoC4/CapSense_Structure.c ****     #if (0u != CapSense_CSD_TOUCHPAD_WIDGET_EN)
1459:Generated_Source\PSoC4/CapSense_Structure.c ****         CapSense_RAM_WD_CSD_TOUCHPAD_STRUCT *wdCsdTouchpad;
1460:Generated_Source\PSoC4/CapSense_Structure.c ****     #endif /* #if (0u != CapSense_CSD_TOUCHPAD_WIDGET_EN) */
1461:Generated_Source\PSoC4/CapSense_Structure.c **** 
1462:Generated_Source\PSoC4/CapSense_Structure.c ****     #if (0u != CapSense_CSX_TOUCHPAD_WIDGET_EN)
1463:Generated_Source\PSoC4/CapSense_Structure.c ****         CapSense_RAM_WD_CSX_TOUCHPAD_STRUCT *wdCsxTouchpad;
1464:Generated_Source\PSoC4/CapSense_Structure.c ****     #endif /* #if (0u != CapSense_CSX_TOUCHPAD_WIDGET_EN) */
1465:Generated_Source\PSoC4/CapSense_Structure.c **** 
1466:Generated_Source\PSoC4/CapSense_Structure.c ****     cystatus state = CYRET_SUCCESS;
1467:Generated_Source\PSoC4/CapSense_Structure.c ****     uint32 result = CapSense_TOUCHPAD_NO_TOUCH;
1468:Generated_Source\PSoC4/CapSense_Structure.c **** 
1469:Generated_Source\PSoC4/CapSense_Structure.c ****     if (widgetId >= CapSense_TOTAL_WIDGETS)
 646              		.loc 1 1469 0
 647 0000 0028     		cmp	r0, #0
 648 0002 0CD1     		bne	.L60
1470:Generated_Source\PSoC4/CapSense_Structure.c ****     {
1471:Generated_Source\PSoC4/CapSense_Structure.c ****         state = CYRET_BAD_PARAM;
1472:Generated_Source\PSoC4/CapSense_Structure.c ****     }
1473:Generated_Source\PSoC4/CapSense_Structure.c ****     else
1474:Generated_Source\PSoC4/CapSense_Structure.c ****     {
1475:Generated_Source\PSoC4/CapSense_Structure.c ****         ptrFlashWdgt = &CapSense_dsFlash.wdgtArray[widgetId];
 649              		.loc 1 1475 0
 650 0004 0D49     		ldr	r1, .L63
 651 0006 0A00     		movs	r2, r1
 652 0008 1032     		adds	r2, r2, #16
 653 000a 3423     		movs	r3, #52
 654 000c 5843     		muls	r0, r3
 655              	.LVL70:
ARM GAS  C:\Users\inspiron\AppData\Local\Temp\ccI2FbJy.s 			page 39


 656 000e 1318     		adds	r3, r2, r0
 657              	.LVL71:
1476:Generated_Source\PSoC4/CapSense_Structure.c **** 
1477:Generated_Source\PSoC4/CapSense_Structure.c ****         if ((CapSense_WD_TYPE_ENUM)ptrFlashWdgt->wdgtType != CapSense_WD_TOUCHPAD_E)
 658              		.loc 1 1477 0
 659 0010 0818     		adds	r0, r1, r0
 660 0012 2A30     		adds	r0, r0, #42
 661 0014 0278     		ldrb	r2, [r0]
 662 0016 052A     		cmp	r2, #5
 663 0018 04D1     		bne	.L61
1466:Generated_Source\PSoC4/CapSense_Structure.c ****     uint32 result = CapSense_TOUCHPAD_NO_TOUCH;
 664              		.loc 1 1466 0
 665 001a 0022     		movs	r2, #0
 666 001c 03E0     		b	.L58
 667              	.LVL72:
 668              	.L60:
1471:Generated_Source\PSoC4/CapSense_Structure.c ****     }
 669              		.loc 1 1471 0
 670 001e 0122     		movs	r2, #1
1456:Generated_Source\PSoC4/CapSense_Structure.c **** 
 671              		.loc 1 1456 0
 672 0020 0023     		movs	r3, #0
 673 0022 00E0     		b	.L58
 674              	.LVL73:
 675              	.L61:
1478:Generated_Source\PSoC4/CapSense_Structure.c ****         {
1479:Generated_Source\PSoC4/CapSense_Structure.c ****             state = CYRET_BAD_PARAM;
 676              		.loc 1 1479 0
 677 0024 0122     		movs	r2, #1
 678              	.LVL74:
 679              	.L58:
1480:Generated_Source\PSoC4/CapSense_Structure.c ****         }
1481:Generated_Source\PSoC4/CapSense_Structure.c ****     }
1482:Generated_Source\PSoC4/CapSense_Structure.c **** 
1483:Generated_Source\PSoC4/CapSense_Structure.c ****     if (CYRET_SUCCESS == state)
 680              		.loc 1 1483 0
 681 0026 002A     		cmp	r2, #0
 682 0028 05D1     		bne	.L62
1484:Generated_Source\PSoC4/CapSense_Structure.c ****     {
1485:Generated_Source\PSoC4/CapSense_Structure.c ****         switch(CapSense_GET_SENSE_METHOD(ptrFlashWdgt))
1486:Generated_Source\PSoC4/CapSense_Structure.c ****         {
1487:Generated_Source\PSoC4/CapSense_Structure.c ****         #if (0u != CapSense_CSD_TOUCHPAD_WIDGET_EN)
1488:Generated_Source\PSoC4/CapSense_Structure.c ****             case CapSense_SENSE_METHOD_CSD_E:
1489:Generated_Source\PSoC4/CapSense_Structure.c ****                 wdCsdTouchpad = ptrFlashWdgt->ptr2WdgtRam;
 683              		.loc 1 1489 0
 684 002a 5B68     		ldr	r3, [r3, #4]
 685              	.LVL75:
1490:Generated_Source\PSoC4/CapSense_Structure.c ****                 #if (CapSense_ENABLE == CapSense_CENTROID_5X5_CSD_EN)
1491:Generated_Source\PSoC4/CapSense_Structure.c ****                     #if (CapSense_ENABLE == CapSense_CENTROID_3X3_CSD_EN)
1492:Generated_Source\PSoC4/CapSense_Structure.c ****                         if (0 != (ptrFlashWdgt->staticConfig & CapSense_CENTROID_5X5_MASK))
1493:Generated_Source\PSoC4/CapSense_Structure.c ****                         {
1494:Generated_Source\PSoC4/CapSense_Structure.c ****                     #endif
1495:Generated_Source\PSoC4/CapSense_Structure.c ****                         result = ((uint32)wdCsdTouchpad->position.pos[0u].x) |
1496:Generated_Source\PSoC4/CapSense_Structure.c ****                                  ((uint32)wdCsdTouchpad->position.pos[0u].y << 16u);
1497:Generated_Source\PSoC4/CapSense_Structure.c ****                     #if (CapSense_ENABLE == CapSense_CENTROID_3X3_CSD_EN)
1498:Generated_Source\PSoC4/CapSense_Structure.c ****                         }
1499:Generated_Source\PSoC4/CapSense_Structure.c ****                     #endif
ARM GAS  C:\Users\inspiron\AppData\Local\Temp\ccI2FbJy.s 			page 40


1500:Generated_Source\PSoC4/CapSense_Structure.c ****                 #endif
1501:Generated_Source\PSoC4/CapSense_Structure.c **** 
1502:Generated_Source\PSoC4/CapSense_Structure.c ****                 #if (CapSense_ENABLE == CapSense_CENTROID_3X3_CSD_EN)
1503:Generated_Source\PSoC4/CapSense_Structure.c ****                     #if (CapSense_ENABLE == CapSense_CENTROID_5X5_CSD_EN)
1504:Generated_Source\PSoC4/CapSense_Structure.c ****                         if (0 != (ptrFlashWdgt->staticConfig & CapSense_CENTROID_3X3_MASK))
1505:Generated_Source\PSoC4/CapSense_Structure.c ****                         {
1506:Generated_Source\PSoC4/CapSense_Structure.c ****                     #endif
1507:Generated_Source\PSoC4/CapSense_Structure.c ****                         result = ((uint32)wdCsdTouchpad->posX) |
 686              		.loc 1 1507 0
 687 002c 9A8A     		ldrh	r2, [r3, #20]
 688              	.LVL76:
1508:Generated_Source\PSoC4/CapSense_Structure.c ****                                  ((uint32)wdCsdTouchpad->posY << 16u);
 689              		.loc 1 1508 0
 690 002e D88A     		ldrh	r0, [r3, #22]
 691 0030 0004     		lsls	r0, r0, #16
1507:Generated_Source\PSoC4/CapSense_Structure.c ****                                  ((uint32)wdCsdTouchpad->posY << 16u);
 692              		.loc 1 1507 0
 693 0032 1043     		orrs	r0, r2
 694              	.LVL77:
1509:Generated_Source\PSoC4/CapSense_Structure.c ****                     #if (CapSense_ENABLE == CapSense_CENTROID_5X5_CSD_EN)
1510:Generated_Source\PSoC4/CapSense_Structure.c ****                         }
1511:Generated_Source\PSoC4/CapSense_Structure.c ****                     #endif
1512:Generated_Source\PSoC4/CapSense_Structure.c ****                 #endif
1513:Generated_Source\PSoC4/CapSense_Structure.c **** 
1514:Generated_Source\PSoC4/CapSense_Structure.c ****                 break;
 695              		.loc 1 1514 0
 696 0034 01E0     		b	.L59
 697              	.LVL78:
 698              	.L62:
1467:Generated_Source\PSoC4/CapSense_Structure.c **** 
 699              		.loc 1 1467 0
 700 0036 0120     		movs	r0, #1
 701 0038 4042     		rsbs	r0, r0, #0
 702              	.LVL79:
 703              	.L59:
1515:Generated_Source\PSoC4/CapSense_Structure.c ****         #endif /* #if (0u != CapSense_CSD_TOUCHPAD_WIDGET_EN) */
1516:Generated_Source\PSoC4/CapSense_Structure.c **** 
1517:Generated_Source\PSoC4/CapSense_Structure.c ****         #if (0u != CapSense_CSX_TOUCHPAD_WIDGET_EN)
1518:Generated_Source\PSoC4/CapSense_Structure.c ****             case CapSense_SENSE_METHOD_CSX_E:
1519:Generated_Source\PSoC4/CapSense_Structure.c ****                 wdCsxTouchpad = ptrFlashWdgt->ptr2WdgtRam;
1520:Generated_Source\PSoC4/CapSense_Structure.c **** 
1521:Generated_Source\PSoC4/CapSense_Structure.c ****                 result = ((uint32)wdCsxTouchpad->touch[0u].x) |
1522:Generated_Source\PSoC4/CapSense_Structure.c ****                          ((uint32)wdCsxTouchpad->touch[0u].y << 16u);
1523:Generated_Source\PSoC4/CapSense_Structure.c ****                 break;
1524:Generated_Source\PSoC4/CapSense_Structure.c ****         #endif /* #if (0u != CapSense_CSX_TOUCHPAD_WIDGET_EN) */
1525:Generated_Source\PSoC4/CapSense_Structure.c **** 
1526:Generated_Source\PSoC4/CapSense_Structure.c ****         default:
1527:Generated_Source\PSoC4/CapSense_Structure.c ****             CYASSERT(0u);
1528:Generated_Source\PSoC4/CapSense_Structure.c ****             break;
1529:Generated_Source\PSoC4/CapSense_Structure.c ****         }
1530:Generated_Source\PSoC4/CapSense_Structure.c ****     }
1531:Generated_Source\PSoC4/CapSense_Structure.c **** 
1532:Generated_Source\PSoC4/CapSense_Structure.c ****     return result;
1533:Generated_Source\PSoC4/CapSense_Structure.c **** }
 704              		.loc 1 1533 0
 705              		@ sp needed
 706 003a 7047     		bx	lr
ARM GAS  C:\Users\inspiron\AppData\Local\Temp\ccI2FbJy.s 			page 41


 707              	.L64:
 708              		.align	2
 709              	.L63:
 710 003c 00000000 		.word	.LANCHOR0
 711              		.cfi_endproc
 712              	.LFE8:
 713              		.size	CapSense_GetXYCoordinates, .-CapSense_GetXYCoordinates
 714              		.global	CapSense_ramGesturesInit
 715              		.global	CapSense_ramIdacInit
 716              		.global	CapSense_ramWidgetInit
 717              		.global	CapSense_ioList
 718              		.global	CapSense_dsFlash
 719              		.comm	CapSense_dsRam,296,4
 720              		.section	.rodata
 721              		.align	2
 722              		.set	.LANCHOR0,. + 0
 723              		.type	CapSense_ramIdacInit, %object
 724              		.size	CapSense_ramIdacInit, 14
 725              	CapSense_ramIdacInit:
 726 0000 20       		.byte	32
 727 0001 20       		.byte	32
 728 0002 20       		.byte	32
 729 0003 20       		.byte	32
 730 0004 20       		.byte	32
 731 0005 20       		.byte	32
 732 0006 20       		.byte	32
 733 0007 20       		.byte	32
 734 0008 20       		.byte	32
 735 0009 20       		.byte	32
 736 000a 20       		.byte	32
 737 000b 20       		.byte	32
 738 000c 20       		.byte	32
 739 000d 20       		.byte	32
 740 000e 0000     		.space	2
 741              		.type	CapSense_dsFlash, %object
 742              		.size	CapSense_dsFlash, 52
 743              	CapSense_dsFlash:
 744 0010 00000000 		.word	CapSense_ioList
 745 0014 1E000000 		.word	CapSense_dsRam+30
 746 0018 36000000 		.word	CapSense_dsRam+54
 747 001c 00000000 		.word	0
 748 0020 04000000 		.word	CapSense_debounceTouchpad0
 749 0024 81280000 		.word	10369
 750 0028 0E00     		.short	14
 751 002a 05       		.byte	5
 752 002b 07       		.byte	7
 753 002c 07       		.byte	7
 754 002d 00       		.space	1
 755 002e 6400     		.short	100
 756 0030 6400     		.short	100
 757 0032 0000     		.space	2
 758 0034 AA100000 		.word	4266
 759 0038 AA100000 		.word	4266
 760 003c 00000000 		.word	CapSense_posHistoryTouchpad0
 761 0040 80       		.byte	-128
 762 0041 000000   		.space	3
 763              		.type	CapSense_ramWidgetInit, %object
ARM GAS  C:\Users\inspiron\AppData\Local\Temp\ccI2FbJy.s 			page 42


 764              		.size	CapSense_ramWidgetInit, 24
 765              	CapSense_ramWidgetInit:
 766 0044 0F00     		.short	15
 767 0046 4100     		.short	65
 768 0048 32       		.byte	50
 769 0049 32       		.byte	50
 770 004a 05       		.byte	5
 771 004b 01       		.byte	1
 772 004c 0A       		.byte	10
 773 004d 20       		.byte	32
 774 004e 20       		.byte	32
 775 004f 04       		.byte	4
 776 0050 1000     		.short	16
 777 0052 1000     		.short	16
 778 0054 00       		.byte	0
 779 0055 00       		.byte	0
 780 0056 00       		.byte	0
 781 0057 00       		.space	1
 782 0058 FFFF     		.short	-1
 783 005a FFFF     		.short	-1
 784              		.type	CapSense_ramGesturesInit, %object
 785              		.size	CapSense_ramGesturesInit, 86
 786              	CapSense_ramGesturesInit:
 787 005c 56       		.byte	86
 788 005d 08       		.byte	8
 789 005e 08       		.byte	8
 790 005f 08       		.byte	8
 791 0060 08       		.byte	8
 792 0061 14       		.byte	20
 793 0062 14       		.byte	20
 794 0063 14       		.byte	20
 795 0064 18       		.byte	24
 796 0065 1E       		.byte	30
 797 0066 28       		.byte	40
 798 0067 14       		.byte	20
 799 0068 18       		.byte	24
 800 0069 1E       		.byte	30
 801 006a 28       		.byte	40
 802 006b 03       		.byte	3
 803 006c 05       		.byte	5
 804 006d 07       		.byte	7
 805 006e 09       		.byte	9
 806 006f 03       		.byte	3
 807 0070 14       		.byte	20
 808 0071 18       		.byte	24
 809 0072 1E       		.byte	30
 810 0073 28       		.byte	40
 811 0074 14       		.byte	20
 812 0075 18       		.byte	24
 813 0076 1E       		.byte	30
 814 0077 28       		.byte	40
 815 0078 03       		.byte	3
 816 0079 05       		.byte	5
 817 007a 07       		.byte	7
 818 007b 09       		.byte	9
 819 007c 03       		.byte	3
 820 007d 05       		.byte	5
ARM GAS  C:\Users\inspiron\AppData\Local\Temp\ccI2FbJy.s 			page 43


 821 007e 32       		.byte	50
 822 007f 32       		.byte	50
 823 0080 00       		.byte	0
 824 0081 32       		.byte	50
 825 0082 32       		.byte	50
 826 0083 00       		.byte	0
 827 0084 0A       		.byte	10
 828 0085 2D       		.byte	45
 829 0086 2D       		.byte	45
 830 0087 0F       		.byte	15
 831 0088 03       		.byte	3
 832 0089 03       		.byte	3
 833 008a 03       		.byte	3
 834 008b 03       		.byte	3
 835 008c 00       		.byte	0
 836 008d 00       		.byte	0
 837 008e 14       		.byte	20
 838 008f 1E       		.byte	30
 839 0090 1E       		.byte	30
 840 0091 00       		.space	1
 841 0092 0300     		.short	3
 842 0094 6400     		.short	100
 843 0096 6400     		.short	100
 844 0098 5000     		.short	80
 845 009a D007     		.short	2000
 846 009c E803     		.short	1000
 847 009e 6400     		.short	100
 848 00a0 FA00     		.short	250
 849 00a2 0500     		.short	5
 850 00a4 3200     		.short	50
 851 00a6 0A00     		.short	10
 852 00a8 F0       		.byte	-16
 853 00a9 28       		.byte	40
 854 00aa 29       		.byte	41
 855 00ab 30       		.byte	48
 856 00ac 3F       		.byte	63
 857 00ad 48       		.byte	72
 858 00ae 49       		.byte	73
 859 00af 90       		.byte	-112
 860 00b0 9F       		.byte	-97
 861 00b1 00       		.space	1
 862 00b2 0000     		.space	2
 863              		.type	CapSense_ioList, %object
 864              		.size	CapSense_ioList, 392
 865              	CapSense_ioList:
 866 00b4 00010240 		.word	1073873152
 867 00b8 08010440 		.word	1074004232
 868 00bc 00010440 		.word	1074004224
 869 00c0 04010440 		.word	1074004228
 870 00c4 00000F00 		.word	983040
 871 00c8 10000000 		.word	16
 872 00cc 10       		.byte	16
 873 00cd 04       		.byte	4
 874 00ce 0C       		.byte	12
 875 00cf 00       		.space	1
 876 00d0 00010240 		.word	1073873152
 877 00d4 08010440 		.word	1074004232
ARM GAS  C:\Users\inspiron\AppData\Local\Temp\ccI2FbJy.s 			page 44


 878 00d8 00010440 		.word	1074004224
 879 00dc 04010440 		.word	1074004228
 880 00e0 00F00000 		.word	61440
 881 00e4 08000000 		.word	8
 882 00e8 0C       		.byte	12
 883 00e9 03       		.byte	3
 884 00ea 09       		.byte	9
 885 00eb 00       		.space	1
 886 00ec 00010240 		.word	1073873152
 887 00f0 08010440 		.word	1074004232
 888 00f4 00010440 		.word	1074004224
 889 00f8 04010440 		.word	1074004228
 890 00fc 000F0000 		.word	3840
 891 0100 04000000 		.word	4
 892 0104 08       		.byte	8
 893 0105 02       		.byte	2
 894 0106 06       		.byte	6
 895 0107 00       		.space	1
 896 0108 00010240 		.word	1073873152
 897 010c 08010440 		.word	1074004232
 898 0110 00010440 		.word	1074004224
 899 0114 04010440 		.word	1074004228
 900 0118 F0000000 		.word	240
 901 011c 02000000 		.word	2
 902 0120 04       		.byte	4
 903 0121 01       		.byte	1
 904 0122 03       		.byte	3
 905 0123 00       		.space	1
 906 0124 00010240 		.word	1073873152
 907 0128 08010440 		.word	1074004232
 908 012c 00010440 		.word	1074004224
 909 0130 04010440 		.word	1074004228
 910 0134 0F000000 		.word	15
 911 0138 01000000 		.word	1
 912 013c 00       		.byte	0
 913 013d 00       		.byte	0
 914 013e 00       		.byte	0
 915 013f 00       		.space	1
 916 0140 00010240 		.word	1073873152
 917 0144 08010440 		.word	1074004232
 918 0148 00010440 		.word	1074004224
 919 014c 04010440 		.word	1074004228
 920 0150 0000F000 		.word	15728640
 921 0154 20000000 		.word	32
 922 0158 14       		.byte	20
 923 0159 05       		.byte	5
 924 015a 0F       		.byte	15
 925 015b 00       		.space	1
 926 015c 00000240 		.word	1073872896
 927 0160 08000440 		.word	1074003976
 928 0164 00000440 		.word	1074003968
 929 0168 04000440 		.word	1074003972
 930 016c 0F000000 		.word	15
 931 0170 01000000 		.word	1
 932 0174 00       		.byte	0
 933 0175 00       		.byte	0
 934 0176 00       		.byte	0
ARM GAS  C:\Users\inspiron\AppData\Local\Temp\ccI2FbJy.s 			page 45


 935 0177 00       		.space	1
 936 0178 00000240 		.word	1073872896
 937 017c 08000440 		.word	1074003976
 938 0180 00000440 		.word	1074003968
 939 0184 04000440 		.word	1074003972
 940 0188 0000000F 		.word	251658240
 941 018c 40000000 		.word	64
 942 0190 18       		.byte	24
 943 0191 06       		.byte	6
 944 0192 12       		.byte	18
 945 0193 00       		.space	1
 946 0194 00000240 		.word	1073872896
 947 0198 08000440 		.word	1074003976
 948 019c 00000440 		.word	1074003968
 949 01a0 04000440 		.word	1074003972
 950 01a4 00F00000 		.word	61440
 951 01a8 08000000 		.word	8
 952 01ac 0C       		.byte	12
 953 01ad 03       		.byte	3
 954 01ae 09       		.byte	9
 955 01af 00       		.space	1
 956 01b0 00020240 		.word	1073873408
 957 01b4 08020440 		.word	1074004488
 958 01b8 00020440 		.word	1074004480
 959 01bc 04020440 		.word	1074004484
 960 01c0 00F00000 		.word	61440
 961 01c4 08000000 		.word	8
 962 01c8 0C       		.byte	12
 963 01c9 03       		.byte	3
 964 01ca 09       		.byte	9
 965 01cb 00       		.space	1
 966 01cc 00020240 		.word	1073873408
 967 01d0 08020440 		.word	1074004488
 968 01d4 00020440 		.word	1074004480
 969 01d8 04020440 		.word	1074004484
 970 01dc 000F0000 		.word	3840
 971 01e0 04000000 		.word	4
 972 01e4 08       		.byte	8
 973 01e5 02       		.byte	2
 974 01e6 06       		.byte	6
 975 01e7 00       		.space	1
 976 01e8 00020240 		.word	1073873408
 977 01ec 08020440 		.word	1074004488
 978 01f0 00020440 		.word	1074004480
 979 01f4 04020440 		.word	1074004484
 980 01f8 F0000000 		.word	240
 981 01fc 02000000 		.word	2
 982 0200 04       		.byte	4
 983 0201 01       		.byte	1
 984 0202 03       		.byte	3
 985 0203 00       		.space	1
 986 0204 00020240 		.word	1073873408
 987 0208 08020440 		.word	1074004488
 988 020c 00020440 		.word	1074004480
 989 0210 04020440 		.word	1074004484
 990 0214 0F000000 		.word	15
 991 0218 01000000 		.word	1
ARM GAS  C:\Users\inspiron\AppData\Local\Temp\ccI2FbJy.s 			page 46


 992 021c 00       		.byte	0
 993 021d 00       		.byte	0
 994 021e 00       		.byte	0
 995 021f 00       		.space	1
 996 0220 00010240 		.word	1073873152
 997 0224 08010440 		.word	1074004232
 998 0228 00010440 		.word	1074004224
 999 022c 04010440 		.word	1074004228
 1000 0230 000000F0 		.word	-268435456
 1001 0234 80000000 		.word	128
 1002 0238 1C       		.byte	28
 1003 0239 07       		.byte	7
 1004 023a 15       		.byte	21
 1005 023b 00       		.space	1
 1006              		.bss
 1007              		.align	2
 1008              		.type	CapSense_posHistoryTouchpad0, %object
 1009              		.size	CapSense_posHistoryTouchpad0, 4
 1010              	CapSense_posHistoryTouchpad0:
 1011 0000 00000000 		.space	4
 1012              		.type	CapSense_debounceTouchpad0, %object
 1013              		.size	CapSense_debounceTouchpad0, 1
 1014              	CapSense_debounceTouchpad0:
 1015 0004 00       		.space	1
 1016              		.text
 1017              	.Letext0:
 1018              		.file 2 "c:\\program files (x86)\\cypress\\psoc creator\\4.4\\psoc creator\\import\\gnu\\arm\\5.4.
 1019              		.file 3 "c:\\program files (x86)\\cypress\\psoc creator\\4.4\\psoc creator\\import\\gnu\\arm\\5.4.
 1020              		.file 4 "Generated_Source\\PSoC4/cytypes.h"
 1021              		.file 5 "Generated_Source\\PSoC4\\CapSense_Configuration.h"
 1022              		.file 6 "Generated_Source\\PSoC4\\CapSense_TMG.h"
 1023              		.file 7 "Generated_Source\\PSoC4\\CapSense_Structure.h"
 1024              		.file 8 "Generated_Source\\PSoC4\\CyLib.h"