ARM GAS  C:\Users\inspiron\AppData\Local\Temp\ccn8daOc.s 			page 1


   1              		.syntax unified
   2              		.cpu cortex-m0plus
   3              		.fpu softvfp
   4              		.eabi_attribute 20, 1
   5              		.eabi_attribute 21, 1
   6              		.eabi_attribute 23, 3
   7              		.eabi_attribute 24, 1
   8              		.eabi_attribute 25, 1
   9              		.eabi_attribute 26, 1
  10              		.eabi_attribute 30, 1
  11              		.eabi_attribute 34, 0
  12              		.eabi_attribute 18, 4
  13              		.thumb
  14              		.syntax unified
  15              		.file	"CapSense_Processing.c"
  16              		.text
  17              	.Ltext0:
  18              		.cfi_sections	.debug_frame
  19              		.section	.text.CapSense_DpInitialize,"ax",%progbits
  20              		.align	2
  21              		.global	CapSense_DpInitialize
  22              		.code	16
  23              		.thumb_func
  24              		.type	CapSense_DpInitialize, %function
  25              	CapSense_DpInitialize:
  26              	.LFB2:
  27              		.file 1 "Generated_Source\\PSoC4\\CapSense_Processing.c"
   1:Generated_Source\PSoC4/CapSense_Processing.c **** /***************************************************************************//**
   2:Generated_Source\PSoC4/CapSense_Processing.c **** * \file CapSense_Processing.c
   3:Generated_Source\PSoC4/CapSense_Processing.c **** * \version 7.0
   4:Generated_Source\PSoC4/CapSense_Processing.c **** *
   5:Generated_Source\PSoC4/CapSense_Processing.c **** * \brief
   6:Generated_Source\PSoC4/CapSense_Processing.c **** *   This file provides the source code for the Data Processing module APIs
   7:Generated_Source\PSoC4/CapSense_Processing.c **** *   of the Component. The Data Processing module is responsible for the
   8:Generated_Source\PSoC4/CapSense_Processing.c **** *   low level raw counts processing provided by the sensing module, maintaining
   9:Generated_Source\PSoC4/CapSense_Processing.c **** *   baseline and difference values and performing high-level widget processing
  10:Generated_Source\PSoC4/CapSense_Processing.c **** *   like updating button status or calculating slider position.
  11:Generated_Source\PSoC4/CapSense_Processing.c **** *
  12:Generated_Source\PSoC4/CapSense_Processing.c **** * \see CapSense v7.0 Datasheet
  13:Generated_Source\PSoC4/CapSense_Processing.c **** *
  14:Generated_Source\PSoC4/CapSense_Processing.c **** *//*****************************************************************************
  15:Generated_Source\PSoC4/CapSense_Processing.c **** * Copyright (2016-2019), Cypress Semiconductor Corporation.
  16:Generated_Source\PSoC4/CapSense_Processing.c **** ********************************************************************************
  17:Generated_Source\PSoC4/CapSense_Processing.c **** * This software is owned by Cypress Semiconductor Corporation (Cypress) and is
  18:Generated_Source\PSoC4/CapSense_Processing.c **** * protected by and subject to worldwide patent protection (United States and
  19:Generated_Source\PSoC4/CapSense_Processing.c **** * foreign), United States copyright laws and international treaty provisions.
  20:Generated_Source\PSoC4/CapSense_Processing.c **** * Cypress hereby grants to licensee a personal, non-exclusive, non-transferable
  21:Generated_Source\PSoC4/CapSense_Processing.c **** * license to copy, use, modify, create derivative works of, and compile the
  22:Generated_Source\PSoC4/CapSense_Processing.c **** * Cypress Source Code and derivative works for the sole purpose of creating
  23:Generated_Source\PSoC4/CapSense_Processing.c **** * custom software in support of licensee product to be used only in conjunction
  24:Generated_Source\PSoC4/CapSense_Processing.c **** * with a Cypress integrated circuit as specified in the applicable agreement.
  25:Generated_Source\PSoC4/CapSense_Processing.c **** * Any reproduction, modification, translation, compilation, or representation of
  26:Generated_Source\PSoC4/CapSense_Processing.c **** * this software except as specified above is prohibited without the express
  27:Generated_Source\PSoC4/CapSense_Processing.c **** * written permission of Cypress.
  28:Generated_Source\PSoC4/CapSense_Processing.c **** *
  29:Generated_Source\PSoC4/CapSense_Processing.c **** * Disclaimer: CYPRESS MAKES NO WARRANTY OF ANY KIND, EXPRESS OR IMPLIED, WITH
  30:Generated_Source\PSoC4/CapSense_Processing.c **** * REGARD TO THIS MATERIAL, INCLUDING, BUT NOT LIMITED TO, THE IMPLIED
ARM GAS  C:\Users\inspiron\AppData\Local\Temp\ccn8daOc.s 			page 2


  31:Generated_Source\PSoC4/CapSense_Processing.c **** * WARRANTIES OF MERCHANTABILITY AND FITNESS FOR A PARTICULAR PURPOSE.
  32:Generated_Source\PSoC4/CapSense_Processing.c **** * Cypress reserves the right to make changes without further notice to the
  33:Generated_Source\PSoC4/CapSense_Processing.c **** * materials described herein. Cypress does not assume any liability arising out
  34:Generated_Source\PSoC4/CapSense_Processing.c **** * of the application or use of any product or circuit described herein. Cypress
  35:Generated_Source\PSoC4/CapSense_Processing.c **** * does not authorize its products for use as critical components in life-support
  36:Generated_Source\PSoC4/CapSense_Processing.c **** * systems where a malfunction or failure may reasonably be expected to result in
  37:Generated_Source\PSoC4/CapSense_Processing.c **** * significant injury to the user. The inclusion of Cypress' product in a life-
  38:Generated_Source\PSoC4/CapSense_Processing.c **** * support systems application implies that the manufacturer assumes all risk of
  39:Generated_Source\PSoC4/CapSense_Processing.c **** * such use and in doing so indemnifies Cypress against all charges. Use may be
  40:Generated_Source\PSoC4/CapSense_Processing.c **** * limited by and subject to the applicable Cypress software license agreement.
  41:Generated_Source\PSoC4/CapSense_Processing.c **** *******************************************************************************/
  42:Generated_Source\PSoC4/CapSense_Processing.c **** 
  43:Generated_Source\PSoC4/CapSense_Processing.c **** #include "CyLib.h"
  44:Generated_Source\PSoC4/CapSense_Processing.c **** #include "cytypes.h"
  45:Generated_Source\PSoC4/CapSense_Processing.c **** #include "CapSense_Configuration.h"
  46:Generated_Source\PSoC4/CapSense_Processing.c **** #include "CapSense_Processing.h"
  47:Generated_Source\PSoC4/CapSense_Processing.c **** #include "CapSense_Filter.h"
  48:Generated_Source\PSoC4/CapSense_Processing.c **** 
  49:Generated_Source\PSoC4/CapSense_Processing.c **** #if (0u != CapSense_CENTROID_EN)
  50:Generated_Source\PSoC4/CapSense_Processing.c ****     #include "CapSense_Centroid_LL.h"
  51:Generated_Source\PSoC4/CapSense_Processing.c **** #endif /* (0 != CapSense_CENTROID_EN) */
  52:Generated_Source\PSoC4/CapSense_Processing.c **** 
  53:Generated_Source\PSoC4/CapSense_Processing.c **** #if (0 != (CapSense_CSD_AUTOTUNE & CapSense_CSD_SS_TH_EN))
  54:Generated_Source\PSoC4/CapSense_Processing.c ****     #include "CapSense_SmartSense_LL.h"
  55:Generated_Source\PSoC4/CapSense_Processing.c **** #endif /* (0 != (CapSense_CSD_AUTOTUNE & CapSense_CSD_SS_TH_EN)) */
  56:Generated_Source\PSoC4/CapSense_Processing.c **** 
  57:Generated_Source\PSoC4/CapSense_Processing.c **** #if (CapSense_ENABLE == CapSense_SELF_TEST_EN)
  58:Generated_Source\PSoC4/CapSense_Processing.c ****     #include "CapSense_SelfTest.h"
  59:Generated_Source\PSoC4/CapSense_Processing.c **** #endif
  60:Generated_Source\PSoC4/CapSense_Processing.c **** 
  61:Generated_Source\PSoC4/CapSense_Processing.c **** #if (CapSense_ENABLE == CapSense_CENTROID_5X5_CSD_EN)
  62:Generated_Source\PSoC4/CapSense_Processing.c ****     #include "CapSense_AdvancedCentroid_LL.h"
  63:Generated_Source\PSoC4/CapSense_Processing.c **** #endif
  64:Generated_Source\PSoC4/CapSense_Processing.c **** 
  65:Generated_Source\PSoC4/CapSense_Processing.c **** #if (CapSense_ENABLE == CapSense_POS_ADAPTIVE_IIR_FILTER_EN)
  66:Generated_Source\PSoC4/CapSense_Processing.c ****     #include "CapSense_AdaptiveFilter_LL.h"
  67:Generated_Source\PSoC4/CapSense_Processing.c **** #endif
  68:Generated_Source\PSoC4/CapSense_Processing.c **** 
  69:Generated_Source\PSoC4/CapSense_Processing.c **** #if(CapSense_ENABLE == CapSense_BALLISTIC_MULTIPLIER_EN)
  70:Generated_Source\PSoC4/CapSense_Processing.c ****     #include "CapSense_Gesture.h"
  71:Generated_Source\PSoC4/CapSense_Processing.c **** #endif
  72:Generated_Source\PSoC4/CapSense_Processing.c **** 
  73:Generated_Source\PSoC4/CapSense_Processing.c **** /**************************************************************************************************
  74:Generated_Source\PSoC4/CapSense_Processing.c **** * Local definition
  75:Generated_Source\PSoC4/CapSense_Processing.c **** ***************************************************************************************************
  76:Generated_Source\PSoC4/CapSense_Processing.c **** 
  77:Generated_Source\PSoC4/CapSense_Processing.c **** /* UINT32 constant with all odd bits set. It is used by the processing function of the Proximity wi
  78:Generated_Source\PSoC4/CapSense_Processing.c **** *  determine type of the status bit: odd bits report proximity status; even bits report touch statu
  79:Generated_Source\PSoC4/CapSense_Processing.c **** */
  80:Generated_Source\PSoC4/CapSense_Processing.c **** #define UINT32_ODD_BITS_CONST       (0x55555555u)
  81:Generated_Source\PSoC4/CapSense_Processing.c **** 
  82:Generated_Source\PSoC4/CapSense_Processing.c **** /* Default value for the Off Debounce counter when the Off Debounce is disabled */
  83:Generated_Source\PSoC4/CapSense_Processing.c **** #define DEFAULT_OFF_DEBOUNCE_VALUE  (1u)
  84:Generated_Source\PSoC4/CapSense_Processing.c **** #define PERCENTAGE_100              (100u)
  85:Generated_Source\PSoC4/CapSense_Processing.c **** #define TEMP_BUFFER_MSB_SHIFT       (16)
  86:Generated_Source\PSoC4/CapSense_Processing.c **** 
  87:Generated_Source\PSoC4/CapSense_Processing.c **** /**************************************************************************************************
ARM GAS  C:\Users\inspiron\AppData\Local\Temp\ccn8daOc.s 			page 3


  88:Generated_Source\PSoC4/CapSense_Processing.c **** * Local variables
  89:Generated_Source\PSoC4/CapSense_Processing.c **** ***************************************************************************************************
  90:Generated_Source\PSoC4/CapSense_Processing.c **** #if (0u != CapSense_CSX_MULTIPHASE_TX_EN)
  91:Generated_Source\PSoC4/CapSense_Processing.c ****     static uint16 deconvRowData[CapSense_CSX_MAX_TX_PHASE_LENGTH];
  92:Generated_Source\PSoC4/CapSense_Processing.c **** #endif
  93:Generated_Source\PSoC4/CapSense_Processing.c **** 
  94:Generated_Source\PSoC4/CapSense_Processing.c **** 
  95:Generated_Source\PSoC4/CapSense_Processing.c **** /**************************************************************************************************
  96:Generated_Source\PSoC4/CapSense_Processing.c **** * Static Function Prototypes
  97:Generated_Source\PSoC4/CapSense_Processing.c **** ***************************************************************************************************
  98:Generated_Source\PSoC4/CapSense_Processing.c **** /**
  99:Generated_Source\PSoC4/CapSense_Processing.c **** * \cond SECTION_C_INTERNAL
 100:Generated_Source\PSoC4/CapSense_Processing.c **** * \addtogroup group_c_internal
 101:Generated_Source\PSoC4/CapSense_Processing.c **** * \{
 102:Generated_Source\PSoC4/CapSense_Processing.c **** */
 103:Generated_Source\PSoC4/CapSense_Processing.c **** #if (0u != CapSense_TOTAL_LINEAR_SLIDERS)
 104:Generated_Source\PSoC4/CapSense_Processing.c ****     static CY_INLINE void DpUpdateLinSlider(
 105:Generated_Source\PSoC4/CapSense_Processing.c ****                         const uint16 newPos[], uint32 numTouches,
 106:Generated_Source\PSoC4/CapSense_Processing.c ****                         CapSense_FLASH_WD_STRUCT const *ptrFlashWdgt,
 107:Generated_Source\PSoC4/CapSense_Processing.c ****                         CapSense_RAM_WD_SLIDER_STRUCT *ptrRamWdgt);
 108:Generated_Source\PSoC4/CapSense_Processing.c **** #endif /* #if (0u != CapSense_TOTAL_LINEAR_SLIDERS) */
 109:Generated_Source\PSoC4/CapSense_Processing.c **** 
 110:Generated_Source\PSoC4/CapSense_Processing.c **** #if (0u != CapSense_TOTAL_RADIAL_SLIDERS)
 111:Generated_Source\PSoC4/CapSense_Processing.c ****     static CY_INLINE void DpUpdateRadSlider(
 112:Generated_Source\PSoC4/CapSense_Processing.c ****                         const uint16 newPos[], uint32 numTouches,
 113:Generated_Source\PSoC4/CapSense_Processing.c ****                         CapSense_FLASH_WD_STRUCT const * ptrFlashWdgt,
 114:Generated_Source\PSoC4/CapSense_Processing.c ****                         CapSense_RAM_WD_SLIDER_STRUCT *ptrRamWdgt);
 115:Generated_Source\PSoC4/CapSense_Processing.c **** #endif /* #if (0u != CapSense_TOTAL_RADIAL_SLIDERS) */
 116:Generated_Source\PSoC4/CapSense_Processing.c **** 
 117:Generated_Source\PSoC4/CapSense_Processing.c **** #if (0u != CapSense_CSD_TOUCHPAD_WIDGET_EN)
 118:Generated_Source\PSoC4/CapSense_Processing.c ****     static CY_INLINE void CapSense_DpInitCsdTouchpad(CapSense_FLASH_WD_STRUCT const * ptrFlashWdgt)
 119:Generated_Source\PSoC4/CapSense_Processing.c **** #endif /* #if (0u != CapSense_CSD_TOUCHPAD_WIDGET_EN) */
 120:Generated_Source\PSoC4/CapSense_Processing.c **** 
 121:Generated_Source\PSoC4/CapSense_Processing.c **** #if (0u != CapSense_CSX_TOUCHPAD_WIDGET_EN)
 122:Generated_Source\PSoC4/CapSense_Processing.c ****     static CY_INLINE void CapSense_DpInitCsxTouchpad(CapSense_FLASH_WD_STRUCT const * ptrFlashWdgt)
 123:Generated_Source\PSoC4/CapSense_Processing.c **** #endif /* #if (0u != CapSense_CSX_TOUCHPAD_WIDGET_EN) */
 124:Generated_Source\PSoC4/CapSense_Processing.c **** 
 125:Generated_Source\PSoC4/CapSense_Processing.c **** #if (0u != CapSense_SLIDER_WIDGET_EN)
 126:Generated_Source\PSoC4/CapSense_Processing.c ****     static CY_INLINE void CapSense_DpInitSlider(CapSense_FLASH_WD_STRUCT const * ptrFlashWdgt);
 127:Generated_Source\PSoC4/CapSense_Processing.c **** #endif /* #if (0u != CapSense_SLIDER_WIDGET_EN) */
 128:Generated_Source\PSoC4/CapSense_Processing.c **** 
 129:Generated_Source\PSoC4/CapSense_Processing.c **** #if (0u != CapSense_CSD_MATRIX_WIDGET_EN)
 130:Generated_Source\PSoC4/CapSense_Processing.c ****     static CY_INLINE void CapSense_DpInitCsdMatrix(CapSense_FLASH_WD_STRUCT const * ptrFlashWdgt);
 131:Generated_Source\PSoC4/CapSense_Processing.c **** #endif /* #if (0u != CapSense_CSD_MATRIX_WIDGET_EN) */
 132:Generated_Source\PSoC4/CapSense_Processing.c **** 
 133:Generated_Source\PSoC4/CapSense_Processing.c **** /** \}
 134:Generated_Source\PSoC4/CapSense_Processing.c **** * \endcond */
 135:Generated_Source\PSoC4/CapSense_Processing.c **** 
 136:Generated_Source\PSoC4/CapSense_Processing.c **** #if (0u != CapSense_CSD_TOUCHPAD_WIDGET_EN)
 137:Generated_Source\PSoC4/CapSense_Processing.c **** /*******************************************************************************
 138:Generated_Source\PSoC4/CapSense_Processing.c **** * Function Name: CapSense_DpInitCsdTouchpad
 139:Generated_Source\PSoC4/CapSense_Processing.c **** ****************************************************************************//**
 140:Generated_Source\PSoC4/CapSense_Processing.c **** *
 141:Generated_Source\PSoC4/CapSense_Processing.c **** * \brief
 142:Generated_Source\PSoC4/CapSense_Processing.c **** *  Performs initialization of the CSD touchpad widget.
 143:Generated_Source\PSoC4/CapSense_Processing.c **** *   - Resets the position data to NONE
 144:Generated_Source\PSoC4/CapSense_Processing.c **** *   - Initializes the position filter history if enabled.
ARM GAS  C:\Users\inspiron\AppData\Local\Temp\ccn8daOc.s 			page 4


 145:Generated_Source\PSoC4/CapSense_Processing.c **** *
 146:Generated_Source\PSoC4/CapSense_Processing.c **** * \details
 147:Generated_Source\PSoC4/CapSense_Processing.c **** *  The position data is always reset to the CapSense_TOUCHPAD_POS_NONE value.
 148:Generated_Source\PSoC4/CapSense_Processing.c **** *  The same happens to the position filter history data if enabled.
 149:Generated_Source\PSoC4/CapSense_Processing.c **** *
 150:Generated_Source\PSoC4/CapSense_Processing.c **** *******************************************************************************/
 151:Generated_Source\PSoC4/CapSense_Processing.c **** static CY_INLINE void CapSense_DpInitCsdTouchpad(CapSense_FLASH_WD_STRUCT const * ptrFlashWdgt)
 152:Generated_Source\PSoC4/CapSense_Processing.c **** {
 153:Generated_Source\PSoC4/CapSense_Processing.c ****     #if (CapSense_ENABLE == CapSense_CENTROID_5X5_CSD_EN)
 154:Generated_Source\PSoC4/CapSense_Processing.c ****         uint32 touchIndex;
 155:Generated_Source\PSoC4/CapSense_Processing.c ****     #endif
 156:Generated_Source\PSoC4/CapSense_Processing.c **** 
 157:Generated_Source\PSoC4/CapSense_Processing.c ****     CapSense_RAM_WD_CSD_TOUCHPAD_STRUCT *ptrWdTouchpad;
 158:Generated_Source\PSoC4/CapSense_Processing.c **** 
 159:Generated_Source\PSoC4/CapSense_Processing.c ****     #if (0u != CapSense_POSITION_FILTER_EN)
 160:Generated_Source\PSoC4/CapSense_Processing.c ****         CapSense_TOUCHPAD_POS_HISTORY_STRUCT *ptrHistory;
 161:Generated_Source\PSoC4/CapSense_Processing.c ****     #endif  /* #if (0u != CapSense_POSITION_FILTER_EN) */
 162:Generated_Source\PSoC4/CapSense_Processing.c **** 
 163:Generated_Source\PSoC4/CapSense_Processing.c ****     #if (0u != CapSense_POS_ADAPTIVE_IIR_FILTER_EN)
 164:Generated_Source\PSoC4/CapSense_Processing.c ****         ADAPTIVE_FILTER_CONTEXT_STRUCT adpContext;
 165:Generated_Source\PSoC4/CapSense_Processing.c ****     #endif /* (0u != CapSense_POS_ADAPTIVE_IIR_FILTER_EN) */
 166:Generated_Source\PSoC4/CapSense_Processing.c **** 
 167:Generated_Source\PSoC4/CapSense_Processing.c ****     ptrWdTouchpad = ptrFlashWdgt->ptr2WdgtRam;
 168:Generated_Source\PSoC4/CapSense_Processing.c **** 
 169:Generated_Source\PSoC4/CapSense_Processing.c ****     /* Reset position data */
 170:Generated_Source\PSoC4/CapSense_Processing.c ****     #if (CapSense_ENABLE == CapSense_CENTROID_5X5_CSD_EN)
 171:Generated_Source\PSoC4/CapSense_Processing.c ****         #if (CapSense_ENABLE == CapSense_CENTROID_3X3_CSD_EN)
 172:Generated_Source\PSoC4/CapSense_Processing.c ****             if (0u != (ptrFlashWdgt->staticConfig & CapSense_CENTROID_5X5_MASK))
 173:Generated_Source\PSoC4/CapSense_Processing.c ****             {
 174:Generated_Source\PSoC4/CapSense_Processing.c ****         #endif
 175:Generated_Source\PSoC4/CapSense_Processing.c **** 
 176:Generated_Source\PSoC4/CapSense_Processing.c ****         ptrWdTouchpad->position.touchNum = 0u;
 177:Generated_Source\PSoC4/CapSense_Processing.c **** 
 178:Generated_Source\PSoC4/CapSense_Processing.c ****         #if (0u != CapSense_POSITION_FILTER_EN)
 179:Generated_Source\PSoC4/CapSense_Processing.c ****             ptrHistory = ptrFlashWdgt->ptr2PosHistory;
 180:Generated_Source\PSoC4/CapSense_Processing.c ****         #endif /* (0u != CapSense_POSITION_FILTER_EN) */
 181:Generated_Source\PSoC4/CapSense_Processing.c **** 
 182:Generated_Source\PSoC4/CapSense_Processing.c ****         for (touchIndex = 0u; touchIndex < ADVANCED_CENTROID_MAX_TOUCHES; touchIndex++)
 183:Generated_Source\PSoC4/CapSense_Processing.c ****         {
 184:Generated_Source\PSoC4/CapSense_Processing.c ****             ptrWdTouchpad->position.pos[touchIndex].x = ADVANCED_CENTROID_POSITION_NONE;
 185:Generated_Source\PSoC4/CapSense_Processing.c ****             ptrWdTouchpad->position.pos[touchIndex].y = ADVANCED_CENTROID_POSITION_NONE;
 186:Generated_Source\PSoC4/CapSense_Processing.c ****             ptrWdTouchpad->position.pos[touchIndex].zX = ADVANCED_CENTROID_POSITION_NONE;
 187:Generated_Source\PSoC4/CapSense_Processing.c ****             ptrWdTouchpad->position.pos[touchIndex].zY = ADVANCED_CENTROID_POSITION_NONE;
 188:Generated_Source\PSoC4/CapSense_Processing.c **** 
 189:Generated_Source\PSoC4/CapSense_Processing.c ****             /* Clear position filter history data if available */
 190:Generated_Source\PSoC4/CapSense_Processing.c ****             #if (0u != CapSense_POSITION_FILTER_EN)
 191:Generated_Source\PSoC4/CapSense_Processing.c ****                 if (NULL != ptrHistory)
 192:Generated_Source\PSoC4/CapSense_Processing.c ****                 {
 193:Generated_Source\PSoC4/CapSense_Processing.c ****                     CapSense_InitPosFiltersDd(&ptrHistory[touchIndex], CapSense_TOUCHPAD_POS_NONE, 
 194:Generated_Source\PSoC4/CapSense_Processing.c ****                     #if (0u != CapSense_POS_ADAPTIVE_IIR_FILTER_EN)
 195:Generated_Source\PSoC4/CapSense_Processing.c ****                         AdaptiveFilter_Initialize(&ptrWdTouchpad->aiirConfig, &adpContext);
 196:Generated_Source\PSoC4/CapSense_Processing.c ****                         ptrHistory[touchIndex].xPos.posAIIRCoeff = adpContext.coefficient;
 197:Generated_Source\PSoC4/CapSense_Processing.c ****                         ptrHistory[touchIndex].yPos.posAIIRCoeff = adpContext.coefficient;
 198:Generated_Source\PSoC4/CapSense_Processing.c ****                     #endif /* (0u != CapSense_POS_ADAPTIVE_IIR_FILTER_EN) */
 199:Generated_Source\PSoC4/CapSense_Processing.c ****                 }
 200:Generated_Source\PSoC4/CapSense_Processing.c ****             #endif /* (0u != CapSense_POSITION_FILTER_EN) */
 201:Generated_Source\PSoC4/CapSense_Processing.c ****         }
ARM GAS  C:\Users\inspiron\AppData\Local\Temp\ccn8daOc.s 			page 5


 202:Generated_Source\PSoC4/CapSense_Processing.c **** 
 203:Generated_Source\PSoC4/CapSense_Processing.c ****         #if (CapSense_ENABLE == CapSense_CENTROID_3X3_CSD_EN)
 204:Generated_Source\PSoC4/CapSense_Processing.c ****             }
 205:Generated_Source\PSoC4/CapSense_Processing.c ****         #endif
 206:Generated_Source\PSoC4/CapSense_Processing.c ****     #endif
 207:Generated_Source\PSoC4/CapSense_Processing.c **** 
 208:Generated_Source\PSoC4/CapSense_Processing.c ****     #if (CapSense_ENABLE == CapSense_CENTROID_3X3_CSD_EN)
 209:Generated_Source\PSoC4/CapSense_Processing.c ****         if (0u != (ptrFlashWdgt->staticConfig & CapSense_CENTROID_3X3_MASK))
 210:Generated_Source\PSoC4/CapSense_Processing.c ****         {
 211:Generated_Source\PSoC4/CapSense_Processing.c ****             ptrWdTouchpad->posX = CapSense_TOUCHPAD_POS_NONE;
 212:Generated_Source\PSoC4/CapSense_Processing.c ****             ptrWdTouchpad->posY = CapSense_TOUCHPAD_POS_NONE;
 213:Generated_Source\PSoC4/CapSense_Processing.c **** 
 214:Generated_Source\PSoC4/CapSense_Processing.c ****             /* Clear position filter history data if available */
 215:Generated_Source\PSoC4/CapSense_Processing.c ****             #if (0u != CapSense_POSITION_FILTER_EN)
 216:Generated_Source\PSoC4/CapSense_Processing.c ****                 ptrHistory = ptrFlashWdgt->ptr2PosHistory;
 217:Generated_Source\PSoC4/CapSense_Processing.c ****                 CapSense_InitPosFiltersDd(ptrHistory, CapSense_TOUCHPAD_POS_NONE, CapSense_TOUCHPAD
 218:Generated_Source\PSoC4/CapSense_Processing.c **** 
 219:Generated_Source\PSoC4/CapSense_Processing.c ****                 #if (0u != CapSense_POS_ADAPTIVE_IIR_FILTER_EN)
 220:Generated_Source\PSoC4/CapSense_Processing.c ****                     if (NULL != ptrHistory)
 221:Generated_Source\PSoC4/CapSense_Processing.c ****                     {
 222:Generated_Source\PSoC4/CapSense_Processing.c ****                         AdaptiveFilter_Initialize(&ptrWdTouchpad->aiirConfig, &adpContext);
 223:Generated_Source\PSoC4/CapSense_Processing.c ****                         ptrHistory->xPos.posAIIRCoeff = adpContext.coefficient;
 224:Generated_Source\PSoC4/CapSense_Processing.c ****                         ptrHistory->yPos.posAIIRCoeff = adpContext.coefficient;
 225:Generated_Source\PSoC4/CapSense_Processing.c ****                     }
 226:Generated_Source\PSoC4/CapSense_Processing.c ****                 #endif /* (0u != CapSense_POS_ADAPTIVE_IIR_FILTER_EN) */
 227:Generated_Source\PSoC4/CapSense_Processing.c ****             #endif /* (0u != CapSense_POSITION_FILTER_EN) */
 228:Generated_Source\PSoC4/CapSense_Processing.c ****         }
 229:Generated_Source\PSoC4/CapSense_Processing.c ****     #endif
 230:Generated_Source\PSoC4/CapSense_Processing.c **** }
 231:Generated_Source\PSoC4/CapSense_Processing.c **** #endif /* #if (0u != CapSense_CSD_TOUCHPAD_WIDGET_EN) */
 232:Generated_Source\PSoC4/CapSense_Processing.c **** 
 233:Generated_Source\PSoC4/CapSense_Processing.c **** #if (0u != CapSense_CSX_TOUCHPAD_WIDGET_EN)
 234:Generated_Source\PSoC4/CapSense_Processing.c **** /*******************************************************************************
 235:Generated_Source\PSoC4/CapSense_Processing.c **** * Function Name: CapSense_DpInitCsxTouchpad
 236:Generated_Source\PSoC4/CapSense_Processing.c **** ****************************************************************************//**
 237:Generated_Source\PSoC4/CapSense_Processing.c **** *
 238:Generated_Source\PSoC4/CapSense_Processing.c **** * \brief
 239:Generated_Source\PSoC4/CapSense_Processing.c **** *  Performs initialization of the CSX touchpad widget i.e. Resets the position data to NONE.
 240:Generated_Source\PSoC4/CapSense_Processing.c **** *
 241:Generated_Source\PSoC4/CapSense_Processing.c **** * \details
 242:Generated_Source\PSoC4/CapSense_Processing.c **** *  The position data is always reset to the CapSense_TOUCHPAD_POS_NONE value.
 243:Generated_Source\PSoC4/CapSense_Processing.c **** *
 244:Generated_Source\PSoC4/CapSense_Processing.c **** *******************************************************************************/
 245:Generated_Source\PSoC4/CapSense_Processing.c **** static CY_INLINE void CapSense_DpInitCsxTouchpad(CapSense_FLASH_WD_STRUCT const * ptrFlashWdgt)
 246:Generated_Source\PSoC4/CapSense_Processing.c **** {
 247:Generated_Source\PSoC4/CapSense_Processing.c ****     CapSense_RAM_WD_CSX_TOUCHPAD_STRUCT *ptrWdTouchpad;
 248:Generated_Source\PSoC4/CapSense_Processing.c **** 
 249:Generated_Source\PSoC4/CapSense_Processing.c ****     #if (0u != CapSense_POSITION_FILTER_EN)
 250:Generated_Source\PSoC4/CapSense_Processing.c ****         uint32 touchIndex;
 251:Generated_Source\PSoC4/CapSense_Processing.c ****         CapSense_TOUCHPAD_POS_HISTORY_STRUCT *ptrHistory;
 252:Generated_Source\PSoC4/CapSense_Processing.c ****     #endif  /* #if (0u != CapSense_POSITION_FILTER_EN) */
 253:Generated_Source\PSoC4/CapSense_Processing.c **** 
 254:Generated_Source\PSoC4/CapSense_Processing.c ****     #if (0u != CapSense_POS_ADAPTIVE_IIR_FILTER_EN)
 255:Generated_Source\PSoC4/CapSense_Processing.c ****         ADAPTIVE_FILTER_CONTEXT_STRUCT adpContext;
 256:Generated_Source\PSoC4/CapSense_Processing.c ****     #endif /* (0u != CapSense_POS_ADAPTIVE_IIR_FILTER_EN) */
 257:Generated_Source\PSoC4/CapSense_Processing.c **** 
 258:Generated_Source\PSoC4/CapSense_Processing.c ****     ptrWdTouchpad = ptrFlashWdgt->ptr2WdgtRam;
ARM GAS  C:\Users\inspiron\AppData\Local\Temp\ccn8daOc.s 			page 6


 259:Generated_Source\PSoC4/CapSense_Processing.c **** 
 260:Generated_Source\PSoC4/CapSense_Processing.c ****     #if (0u != CapSense_POSITION_FILTER_EN)
 261:Generated_Source\PSoC4/CapSense_Processing.c ****         ptrHistory = ptrFlashWdgt->ptr2PosHistory;
 262:Generated_Source\PSoC4/CapSense_Processing.c ****     #endif /* (0u != CapSense_POSITION_FILTER_EN) */
 263:Generated_Source\PSoC4/CapSense_Processing.c **** 
 264:Generated_Source\PSoC4/CapSense_Processing.c ****     /* Reset position data for finger */
 265:Generated_Source\PSoC4/CapSense_Processing.c ****     ptrWdTouchpad->touch[0u].x = CapSense_TOUCHPAD_POS_NONE;
 266:Generated_Source\PSoC4/CapSense_Processing.c ****     ptrWdTouchpad->touch[0u].y = CapSense_TOUCHPAD_POS_NONE;
 267:Generated_Source\PSoC4/CapSense_Processing.c ****     ptrWdTouchpad->touch[0u].z = LO8(CapSense_TOUCHPAD_POS_NONE);
 268:Generated_Source\PSoC4/CapSense_Processing.c **** 
 269:Generated_Source\PSoC4/CapSense_Processing.c ****     #if (CapSense_CSX_MAX_FINGERS > 1u)
 270:Generated_Source\PSoC4/CapSense_Processing.c ****         ptrWdTouchpad->touch[1u].x = CapSense_TOUCHPAD_POS_NONE;
 271:Generated_Source\PSoC4/CapSense_Processing.c ****         ptrWdTouchpad->touch[1u].y = CapSense_TOUCHPAD_POS_NONE;
 272:Generated_Source\PSoC4/CapSense_Processing.c ****         ptrWdTouchpad->touch[1u].z = LO8(CapSense_TOUCHPAD_POS_NONE);
 273:Generated_Source\PSoC4/CapSense_Processing.c ****     #endif /* #if (CapSense_CSX_MAX_FINGERS > 1u) */
 274:Generated_Source\PSoC4/CapSense_Processing.c **** 
 275:Generated_Source\PSoC4/CapSense_Processing.c ****     #if (CapSense_CSX_MAX_FINGERS > 2u)
 276:Generated_Source\PSoC4/CapSense_Processing.c ****         ptrWdTouchpad->touch[2u].x = CapSense_TOUCHPAD_POS_NONE;
 277:Generated_Source\PSoC4/CapSense_Processing.c ****         ptrWdTouchpad->touch[2u].y = CapSense_TOUCHPAD_POS_NONE;
 278:Generated_Source\PSoC4/CapSense_Processing.c ****         ptrWdTouchpad->touch[2u].z = LO8(CapSense_TOUCHPAD_POS_NONE);
 279:Generated_Source\PSoC4/CapSense_Processing.c ****     #endif /* #if (CapSense_CSX_MAX_FINGERS > 2u) */
 280:Generated_Source\PSoC4/CapSense_Processing.c **** 
 281:Generated_Source\PSoC4/CapSense_Processing.c ****     #if (0u != CapSense_POSITION_FILTER_EN)
 282:Generated_Source\PSoC4/CapSense_Processing.c ****         for (touchIndex = 0u; touchIndex < CapSense_CSX_MAX_FINGERS; touchIndex++)
 283:Generated_Source\PSoC4/CapSense_Processing.c ****         {
 284:Generated_Source\PSoC4/CapSense_Processing.c ****             if (NULL != ptrHistory)
 285:Generated_Source\PSoC4/CapSense_Processing.c ****             {
 286:Generated_Source\PSoC4/CapSense_Processing.c ****                 /* Clear position filter history data if available */
 287:Generated_Source\PSoC4/CapSense_Processing.c ****                 CapSense_InitPosFiltersDd(&ptrHistory[touchIndex], CapSense_TOUCHPAD_POS_NONE, CapS
 288:Generated_Source\PSoC4/CapSense_Processing.c ****                 #if (0u != CapSense_POS_ADAPTIVE_IIR_FILTER_EN)
 289:Generated_Source\PSoC4/CapSense_Processing.c ****                     AdaptiveFilter_Initialize(&ptrWdTouchpad->aiirConfig, &adpContext);
 290:Generated_Source\PSoC4/CapSense_Processing.c ****                     ptrHistory[touchIndex].xPos.posAIIRCoeff = adpContext.coefficient;
 291:Generated_Source\PSoC4/CapSense_Processing.c ****                     ptrHistory[touchIndex].yPos.posAIIRCoeff = adpContext.coefficient;
 292:Generated_Source\PSoC4/CapSense_Processing.c ****                 #endif /* (0u != CapSense_POS_ADAPTIVE_IIR_FILTER_EN) */
 293:Generated_Source\PSoC4/CapSense_Processing.c ****             }
 294:Generated_Source\PSoC4/CapSense_Processing.c ****         }
 295:Generated_Source\PSoC4/CapSense_Processing.c ****     #endif /* (0u != CapSense_POSITION_FILTER_EN) */
 296:Generated_Source\PSoC4/CapSense_Processing.c **** }
 297:Generated_Source\PSoC4/CapSense_Processing.c **** #endif /* #if (0u != CapSense_CSX_TOUCHPAD_WIDGET_EN) */
 298:Generated_Source\PSoC4/CapSense_Processing.c **** 
 299:Generated_Source\PSoC4/CapSense_Processing.c **** #if (0u != CapSense_SLIDER_WIDGET_EN)
 300:Generated_Source\PSoC4/CapSense_Processing.c **** /*******************************************************************************
 301:Generated_Source\PSoC4/CapSense_Processing.c **** * Function Name: CapSense_DpInitSlider
 302:Generated_Source\PSoC4/CapSense_Processing.c **** ****************************************************************************//**
 303:Generated_Source\PSoC4/CapSense_Processing.c **** *
 304:Generated_Source\PSoC4/CapSense_Processing.c **** * \brief
 305:Generated_Source\PSoC4/CapSense_Processing.c **** *  Performs initialization of the Radial and Linear Slider widget.
 306:Generated_Source\PSoC4/CapSense_Processing.c **** *   - Resets the position data to NONE
 307:Generated_Source\PSoC4/CapSense_Processing.c **** *   - Initializes the position filter history to NONE if enabled.
 308:Generated_Source\PSoC4/CapSense_Processing.c **** *
 309:Generated_Source\PSoC4/CapSense_Processing.c **** * \details
 310:Generated_Source\PSoC4/CapSense_Processing.c **** *  Position data is always reset to the CapSense_SLIDER_POS_NONE value.
 311:Generated_Source\PSoC4/CapSense_Processing.c **** *  The same happens to the position filter history data if enabled.
 312:Generated_Source\PSoC4/CapSense_Processing.c **** *
 313:Generated_Source\PSoC4/CapSense_Processing.c **** *******************************************************************************/
 314:Generated_Source\PSoC4/CapSense_Processing.c **** static CY_INLINE void CapSense_DpInitSlider(CapSense_FLASH_WD_STRUCT const * ptrFlashWdgt)
 315:Generated_Source\PSoC4/CapSense_Processing.c **** {
ARM GAS  C:\Users\inspiron\AppData\Local\Temp\ccn8daOc.s 			page 7


 316:Generated_Source\PSoC4/CapSense_Processing.c ****     uint32 idx;
 317:Generated_Source\PSoC4/CapSense_Processing.c ****     CapSense_RAM_WD_SLIDER_STRUCT *ptrWdSlider;
 318:Generated_Source\PSoC4/CapSense_Processing.c **** 
 319:Generated_Source\PSoC4/CapSense_Processing.c ****     #if (0u != CapSense_POSITION_FILTER_EN)
 320:Generated_Source\PSoC4/CapSense_Processing.c ****         CapSense_SLIDER_POS_HISTORY_STRUCT *ptrHistory;
 321:Generated_Source\PSoC4/CapSense_Processing.c ****     #endif /* #if (0u != CapSense_POSITION_FILTER_EN) */
 322:Generated_Source\PSoC4/CapSense_Processing.c **** 
 323:Generated_Source\PSoC4/CapSense_Processing.c ****     #if (0u != CapSense_POS_ADAPTIVE_IIR_FILTER_EN)
 324:Generated_Source\PSoC4/CapSense_Processing.c ****         ADAPTIVE_FILTER_CONTEXT_STRUCT context;
 325:Generated_Source\PSoC4/CapSense_Processing.c ****     #endif /* (0u != CapSense_POS_ADAPTIVE_IIR_FILTER_EN) */
 326:Generated_Source\PSoC4/CapSense_Processing.c **** 
 327:Generated_Source\PSoC4/CapSense_Processing.c ****     ptrWdSlider = ptrFlashWdgt->ptr2WdgtRam;
 328:Generated_Source\PSoC4/CapSense_Processing.c **** 
 329:Generated_Source\PSoC4/CapSense_Processing.c ****     /* Reset slider position data to NONE */
 330:Generated_Source\PSoC4/CapSense_Processing.c ****     for (idx = 0u; idx < CapSense_NUM_CENTROIDS; idx++)
 331:Generated_Source\PSoC4/CapSense_Processing.c ****     {
 332:Generated_Source\PSoC4/CapSense_Processing.c ****         ptrWdSlider->position[idx] = CapSense_SLIDER_POS_NONE;
 333:Generated_Source\PSoC4/CapSense_Processing.c **** 
 334:Generated_Source\PSoC4/CapSense_Processing.c ****         #if (0u != CapSense_POSITION_FILTER_EN)
 335:Generated_Source\PSoC4/CapSense_Processing.c ****             ptrHistory = ptrFlashWdgt->ptr2PosHistory;
 336:Generated_Source\PSoC4/CapSense_Processing.c ****             if (NULL != ptrHistory)
 337:Generated_Source\PSoC4/CapSense_Processing.c ****             {
 338:Generated_Source\PSoC4/CapSense_Processing.c ****                 CapSense_InitPosFiltersSd(&ptrHistory[idx], CapSense_SLIDER_POS_NONE);
 339:Generated_Source\PSoC4/CapSense_Processing.c ****                 #if (0u != CapSense_POS_ADAPTIVE_IIR_FILTER_EN)
 340:Generated_Source\PSoC4/CapSense_Processing.c ****                     AdaptiveFilter_Initialize(&ptrWdSlider->aiirConfig, &context);
 341:Generated_Source\PSoC4/CapSense_Processing.c ****                     ptrHistory->posAIIRCoeff = context.coefficient;
 342:Generated_Source\PSoC4/CapSense_Processing.c ****                 #endif /* (0u != CapSense_POS_ADAPTIVE_IIR_FILTER_EN) */
 343:Generated_Source\PSoC4/CapSense_Processing.c ****             }
 344:Generated_Source\PSoC4/CapSense_Processing.c **** 
 345:Generated_Source\PSoC4/CapSense_Processing.c ****         #endif /* #if (0u != CapSense_POSITION_FILTER_EN) */
 346:Generated_Source\PSoC4/CapSense_Processing.c ****     }
 347:Generated_Source\PSoC4/CapSense_Processing.c **** }
 348:Generated_Source\PSoC4/CapSense_Processing.c **** #endif /* #if (0u != CapSense_SLIDER_WIDGET_EN) */
 349:Generated_Source\PSoC4/CapSense_Processing.c **** 
 350:Generated_Source\PSoC4/CapSense_Processing.c **** #if (0u != CapSense_CSD_MATRIX_WIDGET_EN)
 351:Generated_Source\PSoC4/CapSense_Processing.c **** /*******************************************************************************
 352:Generated_Source\PSoC4/CapSense_Processing.c **** * Function Name: CapSense_DpInitCsdMatrix
 353:Generated_Source\PSoC4/CapSense_Processing.c **** ****************************************************************************//**
 354:Generated_Source\PSoC4/CapSense_Processing.c **** *
 355:Generated_Source\PSoC4/CapSense_Processing.c **** * \brief
 356:Generated_Source\PSoC4/CapSense_Processing.c **** *  Performs initialization of the CSD Matrix Buttons widget.
 357:Generated_Source\PSoC4/CapSense_Processing.c **** *   - Resets the active button position data to NONE.
 358:Generated_Source\PSoC4/CapSense_Processing.c **** *
 359:Generated_Source\PSoC4/CapSense_Processing.c **** * \details
 360:Generated_Source\PSoC4/CapSense_Processing.c **** *  Position data is always reset to the CapSense_MATRIX_POS_NONE value.
 361:Generated_Source\PSoC4/CapSense_Processing.c **** *
 362:Generated_Source\PSoC4/CapSense_Processing.c **** *******************************************************************************/
 363:Generated_Source\PSoC4/CapSense_Processing.c **** static CY_INLINE void CapSense_DpInitCsdMatrix(CapSense_FLASH_WD_STRUCT const * ptrFlashWdgt)
 364:Generated_Source\PSoC4/CapSense_Processing.c **** {
 365:Generated_Source\PSoC4/CapSense_Processing.c ****     CapSense_RAM_WD_CSD_MATRIX_STRUCT *ptrRamWdgt;
 366:Generated_Source\PSoC4/CapSense_Processing.c **** 
 367:Generated_Source\PSoC4/CapSense_Processing.c ****     ptrRamWdgt = (CapSense_RAM_WD_CSD_MATRIX_STRUCT *)ptrFlashWdgt->ptr2WdgtRam;
 368:Generated_Source\PSoC4/CapSense_Processing.c **** 
 369:Generated_Source\PSoC4/CapSense_Processing.c ****     /* Reset sensor id, row and col registers in data structure */
 370:Generated_Source\PSoC4/CapSense_Processing.c ****     ptrRamWdgt->posRow   = CapSense_MATRIX_POS_NONE;
 371:Generated_Source\PSoC4/CapSense_Processing.c ****     ptrRamWdgt->posCol   = CapSense_MATRIX_POS_NONE;
 372:Generated_Source\PSoC4/CapSense_Processing.c ****     ptrRamWdgt->posSnsId = CapSense_MATRIX_POS_NONE;
ARM GAS  C:\Users\inspiron\AppData\Local\Temp\ccn8daOc.s 			page 8


 373:Generated_Source\PSoC4/CapSense_Processing.c **** }
 374:Generated_Source\PSoC4/CapSense_Processing.c **** #endif /* #if (0u != CapSense_CSD_MATRIX_WIDGET_EN) */
 375:Generated_Source\PSoC4/CapSense_Processing.c **** 
 376:Generated_Source\PSoC4/CapSense_Processing.c **** /*******************************************************************************
 377:Generated_Source\PSoC4/CapSense_Processing.c **** * Function Name: CapSense_DpInitialize
 378:Generated_Source\PSoC4/CapSense_Processing.c **** ****************************************************************************//**
 379:Generated_Source\PSoC4/CapSense_Processing.c **** *
 380:Generated_Source\PSoC4/CapSense_Processing.c **** * \brief
 381:Generated_Source\PSoC4/CapSense_Processing.c **** *  Performs initialization of the data processing FW module:
 382:Generated_Source\PSoC4/CapSense_Processing.c **** *   - Resets the de-bounce counters of all the widgets
 383:Generated_Source\PSoC4/CapSense_Processing.c **** *   - Resets the position filter history for slider and touchpad widgets
 384:Generated_Source\PSoC4/CapSense_Processing.c **** *   - Clears widget and sensor statuses
 385:Generated_Source\PSoC4/CapSense_Processing.c **** *   - Enables all the widgets.
 386:Generated_Source\PSoC4/CapSense_Processing.c **** *
 387:Generated_Source\PSoC4/CapSense_Processing.c **** * \details
 388:Generated_Source\PSoC4/CapSense_Processing.c **** *  The Button and Matrix Button widgets have individual de-bounce counter per
 389:Generated_Source\PSoC4/CapSense_Processing.c **** *  sensor for the CSD widgets and per node for the CSX widgets.
 390:Generated_Source\PSoC4/CapSense_Processing.c **** *
 391:Generated_Source\PSoC4/CapSense_Processing.c **** *  The Slider and Touchpad widgets have a single de-bounce counter per widget.
 392:Generated_Source\PSoC4/CapSense_Processing.c **** *
 393:Generated_Source\PSoC4/CapSense_Processing.c **** *  The Proximity widget has two de-bounce counters per sensor. One for the
 394:Generated_Source\PSoC4/CapSense_Processing.c **** *  proximity event and second for the touch event.
 395:Generated_Source\PSoC4/CapSense_Processing.c **** *
 396:Generated_Source\PSoC4/CapSense_Processing.c **** *  All debounce counters during initialization are set to the value of the
 397:Generated_Source\PSoC4/CapSense_Processing.c **** *  onDebounce widget parameter.
 398:Generated_Source\PSoC4/CapSense_Processing.c **** *
 399:Generated_Source\PSoC4/CapSense_Processing.c **** *******************************************************************************/
 400:Generated_Source\PSoC4/CapSense_Processing.c **** void CapSense_DpInitialize(void)
 401:Generated_Source\PSoC4/CapSense_Processing.c **** {
  28              		.loc 1 401 0
  29              		.cfi_startproc
  30              		@ args = 0, pretend = 0, frame = 0
  31              		@ frame_needed = 0, uses_anonymous_args = 0
  32 0000 70B5     		push	{r4, r5, r6, lr}
  33              		.cfi_def_cfa_offset 16
  34              		.cfi_offset 4, -16
  35              		.cfi_offset 5, -12
  36              		.cfi_offset 6, -8
  37              		.cfi_offset 14, -4
  38              	.LVL0:
 402:Generated_Source\PSoC4/CapSense_Processing.c ****     uint32 wdgtId;
 403:Generated_Source\PSoC4/CapSense_Processing.c ****     CapSense_WD_TYPE_ENUM widgetType;
 404:Generated_Source\PSoC4/CapSense_Processing.c ****     CapSense_RAM_WD_BASE_STRUCT * ptrRamWdgt;
 405:Generated_Source\PSoC4/CapSense_Processing.c ****     CapSense_FLASH_WD_STRUCT const * ptrFlashWdgt;
 406:Generated_Source\PSoC4/CapSense_Processing.c **** 
 407:Generated_Source\PSoC4/CapSense_Processing.c ****     for (wdgtId = 0u; wdgtId < CapSense_WDGT_STATUS_WORDS; wdgtId++)
  39              		.loc 1 407 0
  40 0002 0023     		movs	r3, #0
  41 0004 09E0     		b	.L2
  42              	.LVL1:
  43              	.L3:
 408:Generated_Source\PSoC4/CapSense_Processing.c ****     {
 409:Generated_Source\PSoC4/CapSense_Processing.c ****         /* Clear widget status */
 410:Generated_Source\PSoC4/CapSense_Processing.c ****         CapSense_dsRam.wdgtStatus[wdgtId] = 0u;
  44              		.loc 1 410 0 discriminator 3
  45 0006 1849     		ldr	r1, .L9
  46 0008 1A1D     		adds	r2, r3, #4
ARM GAS  C:\Users\inspiron\AppData\Local\Temp\ccn8daOc.s 			page 9


  47 000a 9200     		lsls	r2, r2, #2
  48 000c 8818     		adds	r0, r1, r2
  49 000e 0024     		movs	r4, #0
  50 0010 4460     		str	r4, [r0, #4]
 411:Generated_Source\PSoC4/CapSense_Processing.c **** 
 412:Generated_Source\PSoC4/CapSense_Processing.c ****         /* Enable all the widgets */
 413:Generated_Source\PSoC4/CapSense_Processing.c ****         CapSense_dsRam.wdgtEnable[wdgtId] = 0xFFFFFFFFLu;
  51              		.loc 1 413 0 discriminator 3
  52 0012 0120     		movs	r0, #1
  53 0014 4042     		rsbs	r0, r0, #0
  54 0016 5050     		str	r0, [r2, r1]
 407:Generated_Source\PSoC4/CapSense_Processing.c ****     {
  55              		.loc 1 407 0 discriminator 3
  56 0018 0133     		adds	r3, r3, #1
  57              	.LVL2:
  58              	.L2:
 407:Generated_Source\PSoC4/CapSense_Processing.c ****     {
  59              		.loc 1 407 0 is_stmt 0 discriminator 1
  60 001a 002B     		cmp	r3, #0
  61 001c F3D0     		beq	.L3
  62 001e 134C     		ldr	r4, .L9+4
  63 0020 0123     		movs	r3, #1
  64              	.LVL3:
  65 0022 1DE0     		b	.L4
  66              	.LVL4:
  67              	.L8:
 414:Generated_Source\PSoC4/CapSense_Processing.c **** 
 415:Generated_Source\PSoC4/CapSense_Processing.c ****         /* Set all the widgets to working state if the Self-Test is not enabled */
 416:Generated_Source\PSoC4/CapSense_Processing.c ****         #if (0u != CapSense_SELF_TEST_EN)
 417:Generated_Source\PSoC4/CapSense_Processing.c ****             CapSense_dsRam.wdgtWorking[wdgtId] = 0xFFFFFFFFLu;
 418:Generated_Source\PSoC4/CapSense_Processing.c ****         #endif /* #if (0u == CapSense_SELF_TEST_EN) */
 419:Generated_Source\PSoC4/CapSense_Processing.c ****     }
 420:Generated_Source\PSoC4/CapSense_Processing.c **** 
 421:Generated_Source\PSoC4/CapSense_Processing.c ****     ptrFlashWdgt = CapSense_dsFlash.wdgtArray;
 422:Generated_Source\PSoC4/CapSense_Processing.c **** 
 423:Generated_Source\PSoC4/CapSense_Processing.c ****     for (wdgtId = CapSense_TOTAL_WIDGETS; wdgtId-- > 0u; )
 424:Generated_Source\PSoC4/CapSense_Processing.c ****     {
 425:Generated_Source\PSoC4/CapSense_Processing.c ****         ptrRamWdgt = (CapSense_RAM_WD_BASE_STRUCT *)ptrFlashWdgt->ptr2WdgtRam;
  68              		.loc 1 425 0 is_stmt 1
  69 0024 6668     		ldr	r6, [r4, #4]
  70              	.LVL5:
 426:Generated_Source\PSoC4/CapSense_Processing.c ****         widgetType = (CapSense_WD_TYPE_ENUM)ptrFlashWdgt->wdgtType;
  71              		.loc 1 426 0
  72 0026 A27E     		ldrb	r2, [r4, #26]
  73              	.LVL6:
 427:Generated_Source\PSoC4/CapSense_Processing.c **** 
 428:Generated_Source\PSoC4/CapSense_Processing.c ****         /* Clear all sensor statuses */
 429:Generated_Source\PSoC4/CapSense_Processing.c ****         CapSense_dsRam.snsStatus[wdgtId] = 0u;
  74              		.loc 1 429 0
  75 0028 2B00     		movs	r3, r5
  76 002a 0C33     		adds	r3, r3, #12
  77 002c 5B00     		lsls	r3, r3, #1
  78 002e 0020     		movs	r0, #0
  79 0030 0D49     		ldr	r1, .L9
  80 0032 5852     		strh	r0, [r3, r1]
 430:Generated_Source\PSoC4/CapSense_Processing.c **** 
 431:Generated_Source\PSoC4/CapSense_Processing.c ****         /* Reset de-bounce counters */
ARM GAS  C:\Users\inspiron\AppData\Local\Temp\ccn8daOc.s 			page 10


 432:Generated_Source\PSoC4/CapSense_Processing.c ****         switch (widgetType)
  81              		.loc 1 432 0
  82 0034 052A     		cmp	r2, #5
  83 0036 11D1     		bne	.L5
 433:Generated_Source\PSoC4/CapSense_Processing.c ****         {
 434:Generated_Source\PSoC4/CapSense_Processing.c ****         #if (0u != CapSense_MATRIX_WIDGET_EN)
 435:Generated_Source\PSoC4/CapSense_Processing.c ****             case CapSense_WD_MATRIX_BUTTON_E:
 436:Generated_Source\PSoC4/CapSense_Processing.c ****                 #if (0u != CapSense_CSD_MATRIX_WIDGET_EN)
 437:Generated_Source\PSoC4/CapSense_Processing.c ****                     if (CapSense_SENSE_METHOD_CSD_E == CapSense_GET_SENSE_METHOD(ptrFlashWdgt))
 438:Generated_Source\PSoC4/CapSense_Processing.c ****                     {
 439:Generated_Source\PSoC4/CapSense_Processing.c ****                         CapSense_DpInitCsdMatrix(ptrFlashWdgt);
 440:Generated_Source\PSoC4/CapSense_Processing.c ****                     }
 441:Generated_Source\PSoC4/CapSense_Processing.c ****                 #endif /* #if (0u != CapSense_CSD_MATRIX_WIDGET_EN) */
 442:Generated_Source\PSoC4/CapSense_Processing.c **** 
 443:Generated_Source\PSoC4/CapSense_Processing.c ****                 if (NULL != ptrFlashWdgt->ptr2DebounceArr)
 444:Generated_Source\PSoC4/CapSense_Processing.c ****                 {
 445:Generated_Source\PSoC4/CapSense_Processing.c ****                     /* Initialize array of debounce counters */
 446:Generated_Source\PSoC4/CapSense_Processing.c ****                     (void)memset(ptrFlashWdgt->ptr2DebounceArr,
 447:Generated_Source\PSoC4/CapSense_Processing.c ****                                  (int32)ptrRamWdgt->onDebounce,
 448:Generated_Source\PSoC4/CapSense_Processing.c ****                                  (size_t)ptrFlashWdgt->totalNumSns);
 449:Generated_Source\PSoC4/CapSense_Processing.c ****                 }
 450:Generated_Source\PSoC4/CapSense_Processing.c ****                 break;
 451:Generated_Source\PSoC4/CapSense_Processing.c ****         #endif /* #if (0u != CapSense_MATRIX_WIDGET_EN) */
 452:Generated_Source\PSoC4/CapSense_Processing.c **** 
 453:Generated_Source\PSoC4/CapSense_Processing.c ****         #if (0u != CapSense_BUTTON_WIDGET_EN)
 454:Generated_Source\PSoC4/CapSense_Processing.c ****             case CapSense_WD_BUTTON_E:
 455:Generated_Source\PSoC4/CapSense_Processing.c ****                 if (NULL != ptrFlashWdgt->ptr2DebounceArr)
 456:Generated_Source\PSoC4/CapSense_Processing.c ****                 {
 457:Generated_Source\PSoC4/CapSense_Processing.c ****                     /* Initialize array of debounce counters */
 458:Generated_Source\PSoC4/CapSense_Processing.c ****                     (void)memset(ptrFlashWdgt->ptr2DebounceArr,
 459:Generated_Source\PSoC4/CapSense_Processing.c ****                                  (int32)ptrRamWdgt->onDebounce,
 460:Generated_Source\PSoC4/CapSense_Processing.c ****                                  (size_t)ptrFlashWdgt->totalNumSns);
 461:Generated_Source\PSoC4/CapSense_Processing.c ****                 }
 462:Generated_Source\PSoC4/CapSense_Processing.c ****                 break;
 463:Generated_Source\PSoC4/CapSense_Processing.c ****         #endif /* #if (0u != CapSense_BUTTON_WIDGET_EN) */
 464:Generated_Source\PSoC4/CapSense_Processing.c **** 
 465:Generated_Source\PSoC4/CapSense_Processing.c ****         #if (0u != CapSense_SLIDER_WIDGET_EN)
 466:Generated_Source\PSoC4/CapSense_Processing.c ****             case CapSense_WD_LINEAR_SLIDER_E:
 467:Generated_Source\PSoC4/CapSense_Processing.c ****             case CapSense_WD_RADIAL_SLIDER_E:
 468:Generated_Source\PSoC4/CapSense_Processing.c ****                 if (NULL != ptrFlashWdgt->ptr2DebounceArr)
 469:Generated_Source\PSoC4/CapSense_Processing.c ****                 {
 470:Generated_Source\PSoC4/CapSense_Processing.c ****                     /* Initialize single debounce counter of slider */
 471:Generated_Source\PSoC4/CapSense_Processing.c ****                     *(uint8 *)(ptrFlashWdgt->ptr2DebounceArr) = ptrRamWdgt->onDebounce;
 472:Generated_Source\PSoC4/CapSense_Processing.c ****                 }
 473:Generated_Source\PSoC4/CapSense_Processing.c **** 
 474:Generated_Source\PSoC4/CapSense_Processing.c ****                 CapSense_DpInitSlider(ptrFlashWdgt);
 475:Generated_Source\PSoC4/CapSense_Processing.c **** 
 476:Generated_Source\PSoC4/CapSense_Processing.c ****                 break;
 477:Generated_Source\PSoC4/CapSense_Processing.c ****         #endif /* #if (0u != CapSense_SLIDER_WIDGET_EN) */
 478:Generated_Source\PSoC4/CapSense_Processing.c **** 
 479:Generated_Source\PSoC4/CapSense_Processing.c ****         #if (0u != CapSense_TOUCHPAD_WIDGET_EN)
 480:Generated_Source\PSoC4/CapSense_Processing.c ****             case CapSense_WD_TOUCHPAD_E:
 481:Generated_Source\PSoC4/CapSense_Processing.c ****                 if (NULL != ptrFlashWdgt->ptr2DebounceArr)
  84              		.loc 1 481 0
  85 0038 2369     		ldr	r3, [r4, #16]
  86 003a 002B     		cmp	r3, #0
  87 003c 01D0     		beq	.L7
ARM GAS  C:\Users\inspiron\AppData\Local\Temp\ccn8daOc.s 			page 11


 482:Generated_Source\PSoC4/CapSense_Processing.c ****                 {
 483:Generated_Source\PSoC4/CapSense_Processing.c ****                     /* Initialize single debounce counter of touchpad */
 484:Generated_Source\PSoC4/CapSense_Processing.c ****                     *(uint8 *)(ptrFlashWdgt->ptr2DebounceArr) = ptrRamWdgt->onDebounce;
  88              		.loc 1 484 0
  89 003e F279     		ldrb	r2, [r6, #7]
  90              	.LVL7:
  91 0040 1A70     		strb	r2, [r3]
  92              	.L7:
  93              	.LVL8:
  94              	.LBB4:
  95              	.LBB5:
 167:Generated_Source\PSoC4/CapSense_Processing.c **** 
  96              		.loc 1 167 0
  97 0042 6368     		ldr	r3, [r4, #4]
  98              	.LVL9:
 209:Generated_Source\PSoC4/CapSense_Processing.c ****         {
  99              		.loc 1 209 0
 100 0044 6269     		ldr	r2, [r4, #20]
 101 0046 1205     		lsls	r2, r2, #20
 102 0048 08D5     		bpl	.L5
 211:Generated_Source\PSoC4/CapSense_Processing.c ****             ptrWdTouchpad->posY = CapSense_TOUCHPAD_POS_NONE;
 103              		.loc 1 211 0
 104 004a 0122     		movs	r2, #1
 105 004c 5242     		rsbs	r2, r2, #0
 106 004e 9A82     		strh	r2, [r3, #20]
 212:Generated_Source\PSoC4/CapSense_Processing.c **** 
 107              		.loc 1 212 0
 108 0050 DA82     		strh	r2, [r3, #22]
 109              	.LVL10:
 217:Generated_Source\PSoC4/CapSense_Processing.c **** 
 110              		.loc 1 217 0
 111 0052 0749     		ldr	r1, .L9+8
 112 0054 0A00     		movs	r2, r1
 113 0056 E06A     		ldr	r0, [r4, #44]
 114 0058 FFF7FEFF 		bl	CapSense_InitPosFiltersDd
 115              	.LVL11:
 116              	.L5:
 117              	.LBE5:
 118              	.LBE4:
 485:Generated_Source\PSoC4/CapSense_Processing.c ****                 }
 486:Generated_Source\PSoC4/CapSense_Processing.c **** 
 487:Generated_Source\PSoC4/CapSense_Processing.c ****                 #if (0u != CapSense_CSD_TOUCHPAD_WIDGET_EN)
 488:Generated_Source\PSoC4/CapSense_Processing.c ****                     if (CapSense_SENSE_METHOD_CSD_E == CapSense_GET_SENSE_METHOD(ptrFlashWdgt))
 489:Generated_Source\PSoC4/CapSense_Processing.c ****                     {
 490:Generated_Source\PSoC4/CapSense_Processing.c ****                         CapSense_DpInitCsdTouchpad(ptrFlashWdgt);
 491:Generated_Source\PSoC4/CapSense_Processing.c ****                     }
 492:Generated_Source\PSoC4/CapSense_Processing.c ****                 #endif /* #if (0u != CapSense_CSD_TOUCHPAD_WIDGET_EN) */
 493:Generated_Source\PSoC4/CapSense_Processing.c **** 
 494:Generated_Source\PSoC4/CapSense_Processing.c ****                 #if (0u != CapSense_CSX_TOUCHPAD_WIDGET_EN)
 495:Generated_Source\PSoC4/CapSense_Processing.c ****                     if (CapSense_SENSE_METHOD_CSX_E == CapSense_GET_SENSE_METHOD(ptrFlashWdgt))
 496:Generated_Source\PSoC4/CapSense_Processing.c ****                     {
 497:Generated_Source\PSoC4/CapSense_Processing.c ****                         CapSense_DpInitCsxTouchpad(ptrFlashWdgt);
 498:Generated_Source\PSoC4/CapSense_Processing.c ****                     }
 499:Generated_Source\PSoC4/CapSense_Processing.c ****                 #endif /* #if (0u != CapSense_CSX_TOUCHPAD_WIDGET_EN) */
 500:Generated_Source\PSoC4/CapSense_Processing.c **** 
 501:Generated_Source\PSoC4/CapSense_Processing.c ****                 break;
 502:Generated_Source\PSoC4/CapSense_Processing.c ****         #endif /* #if (0u != CapSense_TOUCHPAD_WIDGET_EN) */
ARM GAS  C:\Users\inspiron\AppData\Local\Temp\ccn8daOc.s 			page 12


 503:Generated_Source\PSoC4/CapSense_Processing.c **** 
 504:Generated_Source\PSoC4/CapSense_Processing.c ****         #if (0u != CapSense_PROXIMITY_WIDGET_EN)
 505:Generated_Source\PSoC4/CapSense_Processing.c ****             case CapSense_WD_PROXIMITY_E:
 506:Generated_Source\PSoC4/CapSense_Processing.c ****                 if (NULL != ptrFlashWdgt->ptr2DebounceArr)
 507:Generated_Source\PSoC4/CapSense_Processing.c ****                 {
 508:Generated_Source\PSoC4/CapSense_Processing.c ****                     /* Proximity widgets have 2 de-bounce counters per sensor.
 509:Generated_Source\PSoC4/CapSense_Processing.c ****                      * Therefore the number of sensors is multiplied by 2.
 510:Generated_Source\PSoC4/CapSense_Processing.c ****                      */
 511:Generated_Source\PSoC4/CapSense_Processing.c ****                    (void)memset(ptrFlashWdgt->ptr2DebounceArr,
 512:Generated_Source\PSoC4/CapSense_Processing.c ****                                 (int32)ptrRamWdgt->onDebounce,
 513:Generated_Source\PSoC4/CapSense_Processing.c ****                                 (size_t)ptrFlashWdgt->totalNumSns * 2u);
 514:Generated_Source\PSoC4/CapSense_Processing.c ****                 }
 515:Generated_Source\PSoC4/CapSense_Processing.c ****                 break;
 516:Generated_Source\PSoC4/CapSense_Processing.c ****         #endif /* #if (0u != CapSense_PROXIMITY_WIDGET_EN) */
 517:Generated_Source\PSoC4/CapSense_Processing.c **** 
 518:Generated_Source\PSoC4/CapSense_Processing.c ****         #if (0u != CapSense_ENCODERDIAL_WIDGET_EN)
 519:Generated_Source\PSoC4/CapSense_Processing.c ****             case CapSense_WD_ENCODERDIAL_E:
 520:Generated_Source\PSoC4/CapSense_Processing.c ****                 if (NULL != ptrFlashWdgt->ptr2DebounceArr)
 521:Generated_Source\PSoC4/CapSense_Processing.c ****                 {
 522:Generated_Source\PSoC4/CapSense_Processing.c ****                     /* Proximity widgets have 2 de-bounce counters per sensor.
 523:Generated_Source\PSoC4/CapSense_Processing.c ****                      * Therefore the number of sensors is multiplied by 2.
 524:Generated_Source\PSoC4/CapSense_Processing.c ****                      */
 525:Generated_Source\PSoC4/CapSense_Processing.c ****                    (void)memset(ptrFlashWdgt->ptr2DebounceArr,
 526:Generated_Source\PSoC4/CapSense_Processing.c ****                                 (int32)ptrRamWdgt->onDebounce,
 527:Generated_Source\PSoC4/CapSense_Processing.c ****                                 (size_t)ptrFlashWdgt->totalNumSns);
 528:Generated_Source\PSoC4/CapSense_Processing.c ****                 }
 529:Generated_Source\PSoC4/CapSense_Processing.c ****                 break;
 530:Generated_Source\PSoC4/CapSense_Processing.c ****         #endif /* (0u != CapSense_ENCODERDIAL_WIDGET_EN) */
 531:Generated_Source\PSoC4/CapSense_Processing.c ****             default:
 532:Generated_Source\PSoC4/CapSense_Processing.c ****                 break;
 533:Generated_Source\PSoC4/CapSense_Processing.c ****         }
 534:Generated_Source\PSoC4/CapSense_Processing.c **** 
 535:Generated_Source\PSoC4/CapSense_Processing.c ****         /* Move to next widget */
 536:Generated_Source\PSoC4/CapSense_Processing.c ****         ptrFlashWdgt++;
 119              		.loc 1 536 0
 120 005c 3434     		adds	r4, r4, #52
 121              	.LVL12:
 423:Generated_Source\PSoC4/CapSense_Processing.c ****     {
 122              		.loc 1 423 0
 123 005e 2B00     		movs	r3, r5
 124              	.LVL13:
 125              	.L4:
 423:Generated_Source\PSoC4/CapSense_Processing.c ****     {
 126              		.loc 1 423 0 is_stmt 0 discriminator 1
 127 0060 5D1E     		subs	r5, r3, #1
 128              	.LVL14:
 129 0062 002B     		cmp	r3, #0
 130 0064 DED1     		bne	.L8
 537:Generated_Source\PSoC4/CapSense_Processing.c ****     }
 538:Generated_Source\PSoC4/CapSense_Processing.c **** }
 131              		.loc 1 538 0 is_stmt 1
 132              		@ sp needed
 133              	.LVL15:
 134              	.LVL16:
 135 0066 70BD     		pop	{r4, r5, r6, pc}
 136              	.L10:
 137              		.align	2
ARM GAS  C:\Users\inspiron\AppData\Local\Temp\ccn8daOc.s 			page 13


 138              	.L9:
 139 0068 00000000 		.word	CapSense_dsRam
 140 006c 00000000 		.word	CapSense_dsFlash
 141 0070 FFFF0000 		.word	65535
 142              		.cfi_endproc
 143              	.LFE2:
 144              		.size	CapSense_DpInitialize, .-CapSense_DpInitialize
 145              		.section	.text.CapSense_DpUpdateDifferences,"ax",%progbits
 146              		.align	2
 147              		.global	CapSense_DpUpdateDifferences
 148              		.code	16
 149              		.thumb_func
 150              		.type	CapSense_DpUpdateDifferences, %function
 151              	CapSense_DpUpdateDifferences:
 152              	.LFB6:
 539:Generated_Source\PSoC4/CapSense_Processing.c **** 
 540:Generated_Source\PSoC4/CapSense_Processing.c **** #if (0u != CapSense_TOTAL_CSX_WIDGETS)
 541:Generated_Source\PSoC4/CapSense_Processing.c **** /*******************************************************************************
 542:Generated_Source\PSoC4/CapSense_Processing.c **** * Function Name: CapSense_DpProcessCsxWidgetRawCounts
 543:Generated_Source\PSoC4/CapSense_Processing.c **** ****************************************************************************//**
 544:Generated_Source\PSoC4/CapSense_Processing.c **** *
 545:Generated_Source\PSoC4/CapSense_Processing.c **** * \brief
 546:Generated_Source\PSoC4/CapSense_Processing.c **** *  Performs default processing of the CSX raw counts.
 547:Generated_Source\PSoC4/CapSense_Processing.c **** *
 548:Generated_Source\PSoC4/CapSense_Processing.c **** * \details
 549:Generated_Source\PSoC4/CapSense_Processing.c **** *  Performs default processing of the CSX raw counts:
 550:Generated_Source\PSoC4/CapSense_Processing.c **** *   - Run Filters
 551:Generated_Source\PSoC4/CapSense_Processing.c **** *   - Update Baselines
 552:Generated_Source\PSoC4/CapSense_Processing.c **** *   - Update Differences
 553:Generated_Source\PSoC4/CapSense_Processing.c **** *   - Update Status.
 554:Generated_Source\PSoC4/CapSense_Processing.c **** *  The same process is applied to all the sensors of the specified widget.
 555:Generated_Source\PSoC4/CapSense_Processing.c **** *
 556:Generated_Source\PSoC4/CapSense_Processing.c **** * \param ptrFlashWdgt The pointer to the Flash widget structure.
 557:Generated_Source\PSoC4/CapSense_Processing.c **** *
 558:Generated_Source\PSoC4/CapSense_Processing.c **** * \return
 559:Generated_Source\PSoC4/CapSense_Processing.c **** *  Returns the status of the specified widget processing operation:
 560:Generated_Source\PSoC4/CapSense_Processing.c **** *  - CYRET_SUCCESS if operation was successfully completed;
 561:Generated_Source\PSoC4/CapSense_Processing.c **** *  - CapSense_PROCESS_BASELINE_FAILED if baseline processing of any
 562:Generated_Source\PSoC4/CapSense_Processing.c **** *    sensor of the specified widget failed. The result is concatenated with the index
 563:Generated_Source\PSoC4/CapSense_Processing.c **** *    of failed sensor.
 564:Generated_Source\PSoC4/CapSense_Processing.c **** *
 565:Generated_Source\PSoC4/CapSense_Processing.c **** *******************************************************************************/
 566:Generated_Source\PSoC4/CapSense_Processing.c **** uint32 CapSense_DpProcessCsxWidgetRawCounts(CapSense_FLASH_WD_STRUCT const *ptrFlashWdgt)
 567:Generated_Source\PSoC4/CapSense_Processing.c **** {
 568:Generated_Source\PSoC4/CapSense_Processing.c ****     uint32 result = CYRET_SUCCESS;
 569:Generated_Source\PSoC4/CapSense_Processing.c ****     uint32 widgetType;
 570:Generated_Source\PSoC4/CapSense_Processing.c ****     uint32 snsCount;
 571:Generated_Source\PSoC4/CapSense_Processing.c ****     CapSense_RAM_SNS_STRUCT *ptrSnsTmp;
 572:Generated_Source\PSoC4/CapSense_Processing.c ****     CapSense_RAM_WD_BASE_STRUCT *ptrRamWdgt;
 573:Generated_Source\PSoC4/CapSense_Processing.c **** 
 574:Generated_Source\PSoC4/CapSense_Processing.c ****     #if (CapSense_ENABLE == CapSense_RC_FILTER_EN)
 575:Generated_Source\PSoC4/CapSense_Processing.c ****         CapSense_PTR_FILTER_VARIANT fltrHistV;
 576:Generated_Source\PSoC4/CapSense_Processing.c **** 
 577:Generated_Source\PSoC4/CapSense_Processing.c ****         fltrHistV.ptr = ptrFlashWdgt->ptr2FltrHistory;
 578:Generated_Source\PSoC4/CapSense_Processing.c ****     #endif /* #if (CapSense_ENABLE == CapSense_RC_FILTER_EN) */
 579:Generated_Source\PSoC4/CapSense_Processing.c **** 
 580:Generated_Source\PSoC4/CapSense_Processing.c ****     ptrSnsTmp = ptrFlashWdgt->ptr2SnsRam;
ARM GAS  C:\Users\inspiron\AppData\Local\Temp\ccn8daOc.s 			page 14


 581:Generated_Source\PSoC4/CapSense_Processing.c ****     snsCount = ptrFlashWdgt->totalNumSns;
 582:Generated_Source\PSoC4/CapSense_Processing.c ****     ptrRamWdgt = (CapSense_RAM_WD_BASE_STRUCT *)ptrFlashWdgt->ptr2WdgtRam;
 583:Generated_Source\PSoC4/CapSense_Processing.c ****     widgetType = ptrFlashWdgt->wdgtType;
 584:Generated_Source\PSoC4/CapSense_Processing.c **** 
 585:Generated_Source\PSoC4/CapSense_Processing.c ****     /* Run deconvolution algorithm for the widgets with multiphase TX support */
 586:Generated_Source\PSoC4/CapSense_Processing.c ****     #if (0u != CapSense_CSX_MULTIPHASE_TX_EN)
 587:Generated_Source\PSoC4/CapSense_Processing.c ****         if (0u != (ptrFlashWdgt->staticConfig & CapSense_MULTIPHASE_TX_MASK))
 588:Generated_Source\PSoC4/CapSense_Processing.c ****         {
 589:Generated_Source\PSoC4/CapSense_Processing.c ****             CapSense_DpDeconvolution(ptrFlashWdgt);
 590:Generated_Source\PSoC4/CapSense_Processing.c ****         }
 591:Generated_Source\PSoC4/CapSense_Processing.c ****     #endif  /* #if (0u != CapSense_CSX_MULTIPHASE_TX_EN) */
 592:Generated_Source\PSoC4/CapSense_Processing.c **** 
 593:Generated_Source\PSoC4/CapSense_Processing.c ****     for (;snsCount-- > 0u;)
 594:Generated_Source\PSoC4/CapSense_Processing.c ****     {
 595:Generated_Source\PSoC4/CapSense_Processing.c ****         #if (CapSense_ENABLE == CapSense_RC_FILTER_EN)
 596:Generated_Source\PSoC4/CapSense_Processing.c ****             CapSense_FtRunEnabledFiltersInternal(fltrHistV, ptrSnsTmp, widgetType);
 597:Generated_Source\PSoC4/CapSense_Processing.c ****             #if (CapSense_ALP_FILTER_EN)
 598:Generated_Source\PSoC4/CapSense_Processing.c ****                 CapSense_ConfigRunALPInternal(fltrHistV, ptrRamWdgt, ptrSnsTmp, widgetType);
 599:Generated_Source\PSoC4/CapSense_Processing.c ****             #endif
 600:Generated_Source\PSoC4/CapSense_Processing.c ****         #endif /* #if (CapSense_ENABLE == CapSense_RC_FILTER_EN) */
 601:Generated_Source\PSoC4/CapSense_Processing.c **** 
 602:Generated_Source\PSoC4/CapSense_Processing.c ****         result = CapSense_FtUpdateBaseline(ptrRamWdgt, ptrSnsTmp, widgetType);
 603:Generated_Source\PSoC4/CapSense_Processing.c **** 
 604:Generated_Source\PSoC4/CapSense_Processing.c ****         #if (CapSense_ENABLE == CapSense_TST_BSLN_DUPLICATION_EN)
 605:Generated_Source\PSoC4/CapSense_Processing.c ****             if (CYRET_SUCCESS != result)
 606:Generated_Source\PSoC4/CapSense_Processing.c ****             {
 607:Generated_Source\PSoC4/CapSense_Processing.c ****                 result = snsCount | CapSense_PROCESS_BASELINE_FAILED;
 608:Generated_Source\PSoC4/CapSense_Processing.c ****             }
 609:Generated_Source\PSoC4/CapSense_Processing.c ****         #endif /* (CapSense_ENABLE == CapSense_TST_BSLN_DUPLICATION_EN) */
 610:Generated_Source\PSoC4/CapSense_Processing.c **** 
 611:Generated_Source\PSoC4/CapSense_Processing.c ****         CapSense_DpUpdateDifferences(ptrRamWdgt, ptrSnsTmp);
 612:Generated_Source\PSoC4/CapSense_Processing.c **** 
 613:Generated_Source\PSoC4/CapSense_Processing.c ****         /* Move pointers to the next sensor and filter history objects */
 614:Generated_Source\PSoC4/CapSense_Processing.c ****         ptrSnsTmp++;
 615:Generated_Source\PSoC4/CapSense_Processing.c **** 
 616:Generated_Source\PSoC4/CapSense_Processing.c ****         #if (CapSense_ENABLE == CapSense_RC_FILTER_EN)
 617:Generated_Source\PSoC4/CapSense_Processing.c ****             CapSense_INC_REG_FLTR_OBJ(fltrHistV);
 618:Generated_Source\PSoC4/CapSense_Processing.c ****         #endif /* #if (CapSense_ENABLE == CapSense_RC_FILTER_EN) */
 619:Generated_Source\PSoC4/CapSense_Processing.c ****     }
 620:Generated_Source\PSoC4/CapSense_Processing.c ****     return result;
 621:Generated_Source\PSoC4/CapSense_Processing.c **** }
 622:Generated_Source\PSoC4/CapSense_Processing.c **** 
 623:Generated_Source\PSoC4/CapSense_Processing.c **** /*******************************************************************************
 624:Generated_Source\PSoC4/CapSense_Processing.c **** * Function Name: CapSense_DpProcessCsxSensorRawCountsExt
 625:Generated_Source\PSoC4/CapSense_Processing.c **** ****************************************************************************//**
 626:Generated_Source\PSoC4/CapSense_Processing.c **** *
 627:Generated_Source\PSoC4/CapSense_Processing.c **** * \brief
 628:Generated_Source\PSoC4/CapSense_Processing.c **** *   Performs customized processing of the CSX sensor raw counts.
 629:Generated_Source\PSoC4/CapSense_Processing.c **** *
 630:Generated_Source\PSoC4/CapSense_Processing.c **** * \details
 631:Generated_Source\PSoC4/CapSense_Processing.c **** *   Performs customized processing of the CSX sensor raw counts.
 632:Generated_Source\PSoC4/CapSense_Processing.c **** *
 633:Generated_Source\PSoC4/CapSense_Processing.c **** *   If all bits are set at once the default processing order will take place.
 634:Generated_Source\PSoC4/CapSense_Processing.c **** *   For the custom order this API can be called multiple times and execute one task at a time.
 635:Generated_Source\PSoC4/CapSense_Processing.c **** *
 636:Generated_Source\PSoC4/CapSense_Processing.c **** * \param ptrFlashWdgt The pointer to the Flash Widget Object.
 637:Generated_Source\PSoC4/CapSense_Processing.c **** * \param curSnsPtr    The pointer to the specific RAM Sensor Object.
ARM GAS  C:\Users\inspiron\AppData\Local\Temp\ccn8daOc.s 			page 15


 638:Generated_Source\PSoC4/CapSense_Processing.c **** * \param fltrHistV    The pointer to the Filter History Object in RAM associated with specific sens
 639:Generated_Source\PSoC4/CapSense_Processing.c **** * \param mode         The bit-mask with the data processing tasks to be executed.
 640:Generated_Source\PSoC4/CapSense_Processing.c **** *   The mode parameters can take the following values:
 641:Generated_Source\PSoC4/CapSense_Processing.c **** *    - CapSense_PROCESS_FILTER     (0x01) Run Firmware Filter
 642:Generated_Source\PSoC4/CapSense_Processing.c **** *    - CapSense_PROCESS_BASELINE   (0x02) Update Baselines
 643:Generated_Source\PSoC4/CapSense_Processing.c **** *    - CapSense_PROCESS_DIFFCOUNTS (0x04) Update Difference Counts
 644:Generated_Source\PSoC4/CapSense_Processing.c **** *    - CapSense_PROCESS_ALL               Execute all tasks
 645:Generated_Source\PSoC4/CapSense_Processing.c **** *
 646:Generated_Source\PSoC4/CapSense_Processing.c **** * \return
 647:Generated_Source\PSoC4/CapSense_Processing.c **** *  Returns the status of the specified sensor processing operation:
 648:Generated_Source\PSoC4/CapSense_Processing.c **** *  - CYRET_SUCCESS if operation was successfully completed;
 649:Generated_Source\PSoC4/CapSense_Processing.c **** *  - CapSense_PROCESS_BASELINE_FAILED if baseline processing of any
 650:Generated_Source\PSoC4/CapSense_Processing.c **** *    sensor of the specified widget failed. The result is concatenated with the index
 651:Generated_Source\PSoC4/CapSense_Processing.c **** *    of failed sensor.
 652:Generated_Source\PSoC4/CapSense_Processing.c **** *
 653:Generated_Source\PSoC4/CapSense_Processing.c **** *******************************************************************************/
 654:Generated_Source\PSoC4/CapSense_Processing.c **** uint32 CapSense_DpProcessCsxSensorRawCountsExt(
 655:Generated_Source\PSoC4/CapSense_Processing.c ****                 CapSense_FLASH_WD_STRUCT const *ptrFlashWdgt,
 656:Generated_Source\PSoC4/CapSense_Processing.c ****                 CapSense_RAM_SNS_STRUCT *curSnsPtr,
 657:Generated_Source\PSoC4/CapSense_Processing.c ****                 CapSense_PTR_FILTER_VARIANT fltrHistV,
 658:Generated_Source\PSoC4/CapSense_Processing.c ****                 uint32 mode)
 659:Generated_Source\PSoC4/CapSense_Processing.c **** {
 660:Generated_Source\PSoC4/CapSense_Processing.c ****     uint32  result = CYRET_SUCCESS;
 661:Generated_Source\PSoC4/CapSense_Processing.c ****     uint32  widgetType;
 662:Generated_Source\PSoC4/CapSense_Processing.c ****     CapSense_RAM_WD_BASE_STRUCT *ptrRamWdgt;
 663:Generated_Source\PSoC4/CapSense_Processing.c **** 
 664:Generated_Source\PSoC4/CapSense_Processing.c ****     widgetType = ptrFlashWdgt->wdgtType;
 665:Generated_Source\PSoC4/CapSense_Processing.c ****     ptrRamWdgt = (CapSense_RAM_WD_BASE_STRUCT *)ptrFlashWdgt->ptr2WdgtRam;
 666:Generated_Source\PSoC4/CapSense_Processing.c **** 
 667:Generated_Source\PSoC4/CapSense_Processing.c ****     #if (CapSense_ENABLE == CapSense_RC_FILTER_EN)
 668:Generated_Source\PSoC4/CapSense_Processing.c ****         if (0u != (mode & CapSense_PROCESS_FILTER))
 669:Generated_Source\PSoC4/CapSense_Processing.c ****         {
 670:Generated_Source\PSoC4/CapSense_Processing.c ****             CapSense_FtRunEnabledFiltersInternal(fltrHistV, curSnsPtr, widgetType);
 671:Generated_Source\PSoC4/CapSense_Processing.c ****             #if (CapSense_ALP_FILTER_EN)
 672:Generated_Source\PSoC4/CapSense_Processing.c ****                 CapSense_ConfigRunALPInternal(fltrHistV, ptrRamWdgt, curSnsPtr, widgetType);
 673:Generated_Source\PSoC4/CapSense_Processing.c ****             #endif
 674:Generated_Source\PSoC4/CapSense_Processing.c ****         }
 675:Generated_Source\PSoC4/CapSense_Processing.c ****     #else
 676:Generated_Source\PSoC4/CapSense_Processing.c ****         (void)fltrHistV; /* This parameter is unused in such configurations */
 677:Generated_Source\PSoC4/CapSense_Processing.c ****     #endif /* #if (CapSense_ENABLE == CapSense_RC_FILTER_EN) */
 678:Generated_Source\PSoC4/CapSense_Processing.c **** 
 679:Generated_Source\PSoC4/CapSense_Processing.c ****     if (0u != (mode & CapSense_PROCESS_BASELINE))
 680:Generated_Source\PSoC4/CapSense_Processing.c ****     {
 681:Generated_Source\PSoC4/CapSense_Processing.c ****         result = CapSense_FtUpdateBaseline(ptrRamWdgt, curSnsPtr, widgetType);
 682:Generated_Source\PSoC4/CapSense_Processing.c ****     }
 683:Generated_Source\PSoC4/CapSense_Processing.c **** 
 684:Generated_Source\PSoC4/CapSense_Processing.c ****     if (0u != (mode & CapSense_PROCESS_DIFFCOUNTS))
 685:Generated_Source\PSoC4/CapSense_Processing.c ****     {
 686:Generated_Source\PSoC4/CapSense_Processing.c ****         CapSense_DpUpdateDifferences(ptrRamWdgt, curSnsPtr);
 687:Generated_Source\PSoC4/CapSense_Processing.c ****     }
 688:Generated_Source\PSoC4/CapSense_Processing.c ****     return result;
 689:Generated_Source\PSoC4/CapSense_Processing.c **** }
 690:Generated_Source\PSoC4/CapSense_Processing.c **** 
 691:Generated_Source\PSoC4/CapSense_Processing.c **** 
 692:Generated_Source\PSoC4/CapSense_Processing.c **** /*******************************************************************************
 693:Generated_Source\PSoC4/CapSense_Processing.c **** * Function Name: CapSense_DpProcessCsxWidgetStatus
 694:Generated_Source\PSoC4/CapSense_Processing.c **** ****************************************************************************//**
ARM GAS  C:\Users\inspiron\AppData\Local\Temp\ccn8daOc.s 			page 16


 695:Generated_Source\PSoC4/CapSense_Processing.c **** *
 696:Generated_Source\PSoC4/CapSense_Processing.c **** * \brief
 697:Generated_Source\PSoC4/CapSense_Processing.c **** *   Updates the status of the CSX widget in the Data Structure.
 698:Generated_Source\PSoC4/CapSense_Processing.c **** *
 699:Generated_Source\PSoC4/CapSense_Processing.c **** * \details
 700:Generated_Source\PSoC4/CapSense_Processing.c **** *  This API determines the type of widget and runs the appropriate function
 701:Generated_Source\PSoC4/CapSense_Processing.c **** *  that implements the status update algorithm for this type of widget.
 702:Generated_Source\PSoC4/CapSense_Processing.c **** *
 703:Generated_Source\PSoC4/CapSense_Processing.c **** *  When the widget-specific processing completes this API updates the snsStatus
 704:Generated_Source\PSoC4/CapSense_Processing.c **** *  and wdgtStatus registers in the data structure. The wdgtStatus register
 705:Generated_Source\PSoC4/CapSense_Processing.c **** *  is a bitmask were each bit corresponds to the specific widget identified by
 706:Generated_Source\PSoC4/CapSense_Processing.c **** *  the widget index. When the bit is set the widget is active (touched);
 707:Generated_Source\PSoC4/CapSense_Processing.c **** *
 708:Generated_Source\PSoC4/CapSense_Processing.c **** *  Depending on the type of widget the snsStatus register may contain either
 709:Generated_Source\PSoC4/CapSense_Processing.c **** *  status of each widget node (active/non-active) or in case of the CSX Touchpad
 710:Generated_Source\PSoC4/CapSense_Processing.c **** *  is contains the number of touches. In both cases 0 means that widget is not
 711:Generated_Source\PSoC4/CapSense_Processing.c **** *  active.
 712:Generated_Source\PSoC4/CapSense_Processing.c **** *
 713:Generated_Source\PSoC4/CapSense_Processing.c **** * \param widgetId     The widget ID number.
 714:Generated_Source\PSoC4/CapSense_Processing.c **** * \param ptrFlashWdgt The pointer to the Flash Widget Object.
 715:Generated_Source\PSoC4/CapSense_Processing.c **** *
 716:Generated_Source\PSoC4/CapSense_Processing.c **** *******************************************************************************/
 717:Generated_Source\PSoC4/CapSense_Processing.c **** void CapSense_DpProcessCsxWidgetStatus(uint32 widgetId, CapSense_FLASH_WD_STRUCT const *ptrFlashWdg
 718:Generated_Source\PSoC4/CapSense_Processing.c **** {
 719:Generated_Source\PSoC4/CapSense_Processing.c ****     uint32 sensorStatus;
 720:Generated_Source\PSoC4/CapSense_Processing.c ****     uint32 wdStatusIndex;
 721:Generated_Source\PSoC4/CapSense_Processing.c ****     uint32 wdStatusMask;
 722:Generated_Source\PSoC4/CapSense_Processing.c ****     CapSense_WD_TYPE_ENUM widgetType;
 723:Generated_Source\PSoC4/CapSense_Processing.c **** 
 724:Generated_Source\PSoC4/CapSense_Processing.c ****     widgetType = (CapSense_WD_TYPE_ENUM)ptrFlashWdgt->wdgtType;
 725:Generated_Source\PSoC4/CapSense_Processing.c ****     sensorStatus = CapSense_dsRam.snsStatus[widgetId];
 726:Generated_Source\PSoC4/CapSense_Processing.c **** 
 727:Generated_Source\PSoC4/CapSense_Processing.c ****     switch (widgetType)
 728:Generated_Source\PSoC4/CapSense_Processing.c ****     {
 729:Generated_Source\PSoC4/CapSense_Processing.c ****     #if (0u != CapSense_BUTTON_WIDGET_EN)
 730:Generated_Source\PSoC4/CapSense_Processing.c ****         case CapSense_WD_BUTTON_E:
 731:Generated_Source\PSoC4/CapSense_Processing.c ****             sensorStatus = CapSense_DpProcessButton(sensorStatus, ptrFlashWdgt);
 732:Generated_Source\PSoC4/CapSense_Processing.c ****             break;
 733:Generated_Source\PSoC4/CapSense_Processing.c ****     #endif /* #if (0u != CapSense_BUTTON_WIDGET_EN) */
 734:Generated_Source\PSoC4/CapSense_Processing.c **** 
 735:Generated_Source\PSoC4/CapSense_Processing.c ****     #if (0u != CapSense_CSX_MATRIX_WIDGET_EN)
 736:Generated_Source\PSoC4/CapSense_Processing.c ****         case CapSense_WD_MATRIX_BUTTON_E:
 737:Generated_Source\PSoC4/CapSense_Processing.c ****             sensorStatus = CapSense_DpProcessButton(sensorStatus, ptrFlashWdgt);
 738:Generated_Source\PSoC4/CapSense_Processing.c ****             break;
 739:Generated_Source\PSoC4/CapSense_Processing.c ****     #endif /* #if (0u != CapSense_CSX_MATRIX_WIDGET_EN) */
 740:Generated_Source\PSoC4/CapSense_Processing.c **** 
 741:Generated_Source\PSoC4/CapSense_Processing.c ****     #if (0u != CapSense_CSX_TOUCHPAD_WIDGET_EN)
 742:Generated_Source\PSoC4/CapSense_Processing.c ****         case CapSense_WD_TOUCHPAD_E:
 743:Generated_Source\PSoC4/CapSense_Processing.c ****             sensorStatus = CapSense_DpProcessCsxTouchpad(sensorStatus, ptrFlashWdgt);
 744:Generated_Source\PSoC4/CapSense_Processing.c ****             break;
 745:Generated_Source\PSoC4/CapSense_Processing.c ****     #endif /* #if (0u != CapSense_CSX_TOUCHPAD_WIDGET_EN) */
 746:Generated_Source\PSoC4/CapSense_Processing.c **** 
 747:Generated_Source\PSoC4/CapSense_Processing.c ****     default:
 748:Generated_Source\PSoC4/CapSense_Processing.c ****         CYASSERT(0u);
 749:Generated_Source\PSoC4/CapSense_Processing.c ****         break;
 750:Generated_Source\PSoC4/CapSense_Processing.c ****     }
 751:Generated_Source\PSoC4/CapSense_Processing.c **** 
ARM GAS  C:\Users\inspiron\AppData\Local\Temp\ccn8daOc.s 			page 17


 752:Generated_Source\PSoC4/CapSense_Processing.c ****     /* Update sensor status in the data structure */
 753:Generated_Source\PSoC4/CapSense_Processing.c ****     CapSense_dsRam.snsStatus[widgetId] = (CapSense_SNS_STS_TYPE)sensorStatus;
 754:Generated_Source\PSoC4/CapSense_Processing.c **** 
 755:Generated_Source\PSoC4/CapSense_Processing.c ****     /* The next two lines calculate index and bitmask of the widget status bit in the wdgtStatus ar
 756:Generated_Source\PSoC4/CapSense_Processing.c ****     wdStatusIndex = CapSense_GET_WDGT_STATUS_INDEX(widgetId);
 757:Generated_Source\PSoC4/CapSense_Processing.c ****     wdStatusMask = CapSense_GET_WDGT_STATUS_MASK(widgetId);
 758:Generated_Source\PSoC4/CapSense_Processing.c **** 
 759:Generated_Source\PSoC4/CapSense_Processing.c ****     /* Check if there are active sensors and update widget status accordingly */
 760:Generated_Source\PSoC4/CapSense_Processing.c ****     if (0u == sensorStatus)
 761:Generated_Source\PSoC4/CapSense_Processing.c ****     {
 762:Generated_Source\PSoC4/CapSense_Processing.c ****         CapSense_dsRam.wdgtStatus[wdStatusIndex] &= ~wdStatusMask;
 763:Generated_Source\PSoC4/CapSense_Processing.c ****     }
 764:Generated_Source\PSoC4/CapSense_Processing.c ****     else
 765:Generated_Source\PSoC4/CapSense_Processing.c ****     {
 766:Generated_Source\PSoC4/CapSense_Processing.c ****         CapSense_dsRam.wdgtStatus[wdStatusIndex] |= wdStatusMask;
 767:Generated_Source\PSoC4/CapSense_Processing.c ****     }
 768:Generated_Source\PSoC4/CapSense_Processing.c **** }
 769:Generated_Source\PSoC4/CapSense_Processing.c **** #endif /* #if CapSense_TOTAL_CSX_WIDGETS */
 770:Generated_Source\PSoC4/CapSense_Processing.c **** 
 771:Generated_Source\PSoC4/CapSense_Processing.c **** #if (0u != CapSense_TOTAL_ISX_WIDGETS)
 772:Generated_Source\PSoC4/CapSense_Processing.c **** /*******************************************************************************
 773:Generated_Source\PSoC4/CapSense_Processing.c **** * Function Name: CapSense_DpProcessIsxWidgetRawCounts
 774:Generated_Source\PSoC4/CapSense_Processing.c **** ****************************************************************************//**
 775:Generated_Source\PSoC4/CapSense_Processing.c **** *
 776:Generated_Source\PSoC4/CapSense_Processing.c **** * \brief
 777:Generated_Source\PSoC4/CapSense_Processing.c **** *  Performs default processing of the ISX raw counts.
 778:Generated_Source\PSoC4/CapSense_Processing.c **** *
 779:Generated_Source\PSoC4/CapSense_Processing.c **** * \details
 780:Generated_Source\PSoC4/CapSense_Processing.c **** *  Performs default processing of the ISX raw counts:
 781:Generated_Source\PSoC4/CapSense_Processing.c **** *   - Run Filters
 782:Generated_Source\PSoC4/CapSense_Processing.c **** *   - Update Baselines
 783:Generated_Source\PSoC4/CapSense_Processing.c **** *   - Update Differences
 784:Generated_Source\PSoC4/CapSense_Processing.c **** *   - Update Status.
 785:Generated_Source\PSoC4/CapSense_Processing.c **** *  The same process is applied to all the sensors of the specified widget.
 786:Generated_Source\PSoC4/CapSense_Processing.c **** *
 787:Generated_Source\PSoC4/CapSense_Processing.c **** * \param ptrFlashWdgt The pointer to the Flash widget structure.
 788:Generated_Source\PSoC4/CapSense_Processing.c **** *
 789:Generated_Source\PSoC4/CapSense_Processing.c **** * \return
 790:Generated_Source\PSoC4/CapSense_Processing.c **** *  Returns the status of the specified widget processing operation:
 791:Generated_Source\PSoC4/CapSense_Processing.c **** *  - CYRET_SUCCESS if operation was successfully completed;
 792:Generated_Source\PSoC4/CapSense_Processing.c **** *  - CapSense_PROCESS_BASELINE_FAILED if baseline processing of any
 793:Generated_Source\PSoC4/CapSense_Processing.c **** *    sensor of the specified widget failed. The result is concatenated with the index
 794:Generated_Source\PSoC4/CapSense_Processing.c **** *    of failed sensor.
 795:Generated_Source\PSoC4/CapSense_Processing.c **** *
 796:Generated_Source\PSoC4/CapSense_Processing.c **** *******************************************************************************/
 797:Generated_Source\PSoC4/CapSense_Processing.c **** uint32 CapSense_DpProcessIsxWidgetRawCounts(CapSense_FLASH_WD_STRUCT const *ptrFlashWdgt)
 798:Generated_Source\PSoC4/CapSense_Processing.c **** {
 799:Generated_Source\PSoC4/CapSense_Processing.c ****     uint32 result = CYRET_SUCCESS;
 800:Generated_Source\PSoC4/CapSense_Processing.c ****     uint32 widgetType;
 801:Generated_Source\PSoC4/CapSense_Processing.c ****     uint32 snsCount;
 802:Generated_Source\PSoC4/CapSense_Processing.c ****     CapSense_RAM_SNS_STRUCT *ptrSns;
 803:Generated_Source\PSoC4/CapSense_Processing.c ****     CapSense_RAM_WD_BASE_STRUCT *ptrRamWdgt;
 804:Generated_Source\PSoC4/CapSense_Processing.c **** 
 805:Generated_Source\PSoC4/CapSense_Processing.c ****     #if (CapSense_ENABLE == CapSense_RC_FILTER_EN)
 806:Generated_Source\PSoC4/CapSense_Processing.c ****         CapSense_PTR_FILTER_VARIANT fltrHistV;
 807:Generated_Source\PSoC4/CapSense_Processing.c **** 
 808:Generated_Source\PSoC4/CapSense_Processing.c ****         fltrHistV.ptr = ptrFlashWdgt->ptr2FltrHistory;
ARM GAS  C:\Users\inspiron\AppData\Local\Temp\ccn8daOc.s 			page 18


 809:Generated_Source\PSoC4/CapSense_Processing.c ****     #endif /* #if (CapSense_ENABLE == CapSense_RC_FILTER_EN) */
 810:Generated_Source\PSoC4/CapSense_Processing.c **** 
 811:Generated_Source\PSoC4/CapSense_Processing.c ****     ptrSns = ptrFlashWdgt->ptr2SnsRam;
 812:Generated_Source\PSoC4/CapSense_Processing.c ****     snsCount = ptrFlashWdgt->totalNumSns;
 813:Generated_Source\PSoC4/CapSense_Processing.c ****     ptrRamWdgt = ptrFlashWdgt->ptr2WdgtRam;
 814:Generated_Source\PSoC4/CapSense_Processing.c ****     widgetType = ptrFlashWdgt->wdgtType;
 815:Generated_Source\PSoC4/CapSense_Processing.c **** 
 816:Generated_Source\PSoC4/CapSense_Processing.c ****     #if (0u != CapSense_ISX_SKIP_OVSMPL_SPECIFIC_NODES)
 817:Generated_Source\PSoC4/CapSense_Processing.c ****         if (0u != ptrSns->resolution)
 818:Generated_Source\PSoC4/CapSense_Processing.c ****     #endif
 819:Generated_Source\PSoC4/CapSense_Processing.c ****     {
 820:Generated_Source\PSoC4/CapSense_Processing.c ****         for(;snsCount-- > 0u;)
 821:Generated_Source\PSoC4/CapSense_Processing.c ****         {
 822:Generated_Source\PSoC4/CapSense_Processing.c ****             #if (CapSense_ENABLE == CapSense_RC_FILTER_EN)
 823:Generated_Source\PSoC4/CapSense_Processing.c ****                 CapSense_FtRunEnabledFiltersInternal(fltrHistV, ptrSns, widgetType);
 824:Generated_Source\PSoC4/CapSense_Processing.c ****             #endif /* #if (CapSense_ENABLE == CapSense_RC_FILTER_EN) */
 825:Generated_Source\PSoC4/CapSense_Processing.c **** 
 826:Generated_Source\PSoC4/CapSense_Processing.c ****             result = CapSense_FtUpdateBaseline(ptrRamWdgt, ptrSns, widgetType);
 827:Generated_Source\PSoC4/CapSense_Processing.c **** 
 828:Generated_Source\PSoC4/CapSense_Processing.c ****             #if (CapSense_ENABLE == CapSense_TST_BSLN_DUPLICATION_EN)
 829:Generated_Source\PSoC4/CapSense_Processing.c ****                 if (CYRET_SUCCESS != result)
 830:Generated_Source\PSoC4/CapSense_Processing.c ****                 {
 831:Generated_Source\PSoC4/CapSense_Processing.c ****                     result = CapSense_PROCESS_BASELINE_FAILED;
 832:Generated_Source\PSoC4/CapSense_Processing.c ****                 }
 833:Generated_Source\PSoC4/CapSense_Processing.c ****             #endif /* (CapSense_ENABLE == CapSense_TST_BSLN_DUPLICATION_EN) */
 834:Generated_Source\PSoC4/CapSense_Processing.c **** 
 835:Generated_Source\PSoC4/CapSense_Processing.c ****             CapSense_DpUpdateDifferences(ptrRamWdgt, ptrSns);
 836:Generated_Source\PSoC4/CapSense_Processing.c ****             ptrSns++;
 837:Generated_Source\PSoC4/CapSense_Processing.c **** 
 838:Generated_Source\PSoC4/CapSense_Processing.c ****             #if (CapSense_ENABLE == CapSense_RC_FILTER_EN)
 839:Generated_Source\PSoC4/CapSense_Processing.c ****                 CapSense_INC_FLTR_OBJ_VARIANT(0u, fltrHistV);
 840:Generated_Source\PSoC4/CapSense_Processing.c ****             #endif /* #if (CapSense_ENABLE == CapSense_RC_FILTER_EN) */
 841:Generated_Source\PSoC4/CapSense_Processing.c ****         }
 842:Generated_Source\PSoC4/CapSense_Processing.c ****     }
 843:Generated_Source\PSoC4/CapSense_Processing.c **** 
 844:Generated_Source\PSoC4/CapSense_Processing.c ****     return result;
 845:Generated_Source\PSoC4/CapSense_Processing.c **** }
 846:Generated_Source\PSoC4/CapSense_Processing.c **** 
 847:Generated_Source\PSoC4/CapSense_Processing.c **** /*******************************************************************************
 848:Generated_Source\PSoC4/CapSense_Processing.c **** * Function Name: CapSense_DpProcessIsxSensorRawCountsExt
 849:Generated_Source\PSoC4/CapSense_Processing.c **** ****************************************************************************//**
 850:Generated_Source\PSoC4/CapSense_Processing.c **** *
 851:Generated_Source\PSoC4/CapSense_Processing.c **** * \brief
 852:Generated_Source\PSoC4/CapSense_Processing.c **** *   Performs customized processing of the ISX sensor raw counts.
 853:Generated_Source\PSoC4/CapSense_Processing.c **** *
 854:Generated_Source\PSoC4/CapSense_Processing.c **** * \details
 855:Generated_Source\PSoC4/CapSense_Processing.c **** *   Performs customized processing of the ISX sensor raw counts.
 856:Generated_Source\PSoC4/CapSense_Processing.c **** *
 857:Generated_Source\PSoC4/CapSense_Processing.c **** *   If all bits are set at once the default processing order will take place.
 858:Generated_Source\PSoC4/CapSense_Processing.c **** *   For the custom order this API can be called multiple times and execute one task at a time.
 859:Generated_Source\PSoC4/CapSense_Processing.c **** *
 860:Generated_Source\PSoC4/CapSense_Processing.c **** * \param ptrFlashWdgt The pointer to the Flash Widget Object.
 861:Generated_Source\PSoC4/CapSense_Processing.c **** * \param ptrSns       The pointer to the specific RAM Sensor Object.
 862:Generated_Source\PSoC4/CapSense_Processing.c **** * \param fltrHistV    The pointer to the Filter History Object in RAM associated with specific sens
 863:Generated_Source\PSoC4/CapSense_Processing.c **** * \param mode         The bit-mask with the data processing tasks to be executed.
 864:Generated_Source\PSoC4/CapSense_Processing.c **** *   The mode parameters can take the following values:
 865:Generated_Source\PSoC4/CapSense_Processing.c **** *    - CapSense_PROCESS_FILTER     (0x01) Run Firmware Filter
ARM GAS  C:\Users\inspiron\AppData\Local\Temp\ccn8daOc.s 			page 19


 866:Generated_Source\PSoC4/CapSense_Processing.c **** *    - CapSense_PROCESS_BASELINE   (0x02) Update Baselines
 867:Generated_Source\PSoC4/CapSense_Processing.c **** *    - CapSense_PROCESS_DIFFCOUNTS (0x04) Update Difference Counts
 868:Generated_Source\PSoC4/CapSense_Processing.c **** *    - CapSense_PROCESS_ALL               Execute all tasks
 869:Generated_Source\PSoC4/CapSense_Processing.c **** *
 870:Generated_Source\PSoC4/CapSense_Processing.c **** * \return
 871:Generated_Source\PSoC4/CapSense_Processing.c **** *  Returns the status of the specified sensor processing operation:
 872:Generated_Source\PSoC4/CapSense_Processing.c **** *  - CYRET_SUCCESS if operation was successfully completed;
 873:Generated_Source\PSoC4/CapSense_Processing.c **** *  - CapSense_PROCESS_BASELINE_FAILED if baseline processing of any
 874:Generated_Source\PSoC4/CapSense_Processing.c **** *    sensor of the specified widget failed. The result is concatenated with the index
 875:Generated_Source\PSoC4/CapSense_Processing.c **** *    of failed sensor.
 876:Generated_Source\PSoC4/CapSense_Processing.c **** *
 877:Generated_Source\PSoC4/CapSense_Processing.c **** *******************************************************************************/
 878:Generated_Source\PSoC4/CapSense_Processing.c **** uint32 CapSense_DpProcessIsxSensorRawCountsExt(
 879:Generated_Source\PSoC4/CapSense_Processing.c ****                 CapSense_FLASH_WD_STRUCT const *ptrFlashWdgt,
 880:Generated_Source\PSoC4/CapSense_Processing.c ****                 CapSense_RAM_SNS_STRUCT *ptrSns,
 881:Generated_Source\PSoC4/CapSense_Processing.c ****                 CapSense_PTR_FILTER_VARIANT fltrHistV,
 882:Generated_Source\PSoC4/CapSense_Processing.c ****                 uint32 mode)
 883:Generated_Source\PSoC4/CapSense_Processing.c **** {
 884:Generated_Source\PSoC4/CapSense_Processing.c ****     uint32  result = CYRET_SUCCESS;
 885:Generated_Source\PSoC4/CapSense_Processing.c ****     uint32  widgetType;
 886:Generated_Source\PSoC4/CapSense_Processing.c ****     CapSense_RAM_WD_BASE_STRUCT *ptrRamWdgt;
 887:Generated_Source\PSoC4/CapSense_Processing.c **** 
 888:Generated_Source\PSoC4/CapSense_Processing.c ****     widgetType = ptrFlashWdgt->wdgtType;
 889:Generated_Source\PSoC4/CapSense_Processing.c ****     ptrRamWdgt = ptrFlashWdgt->ptr2WdgtRam;
 890:Generated_Source\PSoC4/CapSense_Processing.c **** 
 891:Generated_Source\PSoC4/CapSense_Processing.c ****     #if (CapSense_ENABLE == CapSense_RC_FILTER_EN)
 892:Generated_Source\PSoC4/CapSense_Processing.c ****         if (0u != (mode & CapSense_PROCESS_FILTER))
 893:Generated_Source\PSoC4/CapSense_Processing.c ****         {
 894:Generated_Source\PSoC4/CapSense_Processing.c ****             CapSense_FtRunEnabledFiltersInternal(fltrHistV, ptrSns, widgetType);
 895:Generated_Source\PSoC4/CapSense_Processing.c ****         }
 896:Generated_Source\PSoC4/CapSense_Processing.c ****     #else
 897:Generated_Source\PSoC4/CapSense_Processing.c ****         (void)fltrHistV; /* This parameter is unused in such configurations */
 898:Generated_Source\PSoC4/CapSense_Processing.c ****     #endif /* #if (CapSense_ENABLE == CapSense_RC_FILTER_EN) */
 899:Generated_Source\PSoC4/CapSense_Processing.c **** 
 900:Generated_Source\PSoC4/CapSense_Processing.c ****     if (0u != (mode & CapSense_PROCESS_BASELINE))
 901:Generated_Source\PSoC4/CapSense_Processing.c ****     {
 902:Generated_Source\PSoC4/CapSense_Processing.c ****         result = CapSense_FtUpdateBaseline(ptrRamWdgt, ptrSns, widgetType);
 903:Generated_Source\PSoC4/CapSense_Processing.c ****     }
 904:Generated_Source\PSoC4/CapSense_Processing.c **** 
 905:Generated_Source\PSoC4/CapSense_Processing.c ****     if (0u != (mode & CapSense_PROCESS_DIFFCOUNTS))
 906:Generated_Source\PSoC4/CapSense_Processing.c ****     {
 907:Generated_Source\PSoC4/CapSense_Processing.c ****         CapSense_DpUpdateDifferences(ptrRamWdgt, ptrSns);
 908:Generated_Source\PSoC4/CapSense_Processing.c ****     }
 909:Generated_Source\PSoC4/CapSense_Processing.c ****     return result;
 910:Generated_Source\PSoC4/CapSense_Processing.c **** }
 911:Generated_Source\PSoC4/CapSense_Processing.c **** 
 912:Generated_Source\PSoC4/CapSense_Processing.c **** 
 913:Generated_Source\PSoC4/CapSense_Processing.c **** /*******************************************************************************
 914:Generated_Source\PSoC4/CapSense_Processing.c **** * Function Name: CapSense_DpProcessIsxWidgetStatus
 915:Generated_Source\PSoC4/CapSense_Processing.c **** ****************************************************************************//**
 916:Generated_Source\PSoC4/CapSense_Processing.c **** *
 917:Generated_Source\PSoC4/CapSense_Processing.c **** * \brief
 918:Generated_Source\PSoC4/CapSense_Processing.c **** *   Updates the status of the ISX widget in the Data Structure.
 919:Generated_Source\PSoC4/CapSense_Processing.c **** *
 920:Generated_Source\PSoC4/CapSense_Processing.c **** * \details
 921:Generated_Source\PSoC4/CapSense_Processing.c **** *  This API determines the type of widget and runs the appropriate function
 922:Generated_Source\PSoC4/CapSense_Processing.c **** *  that implements the status update algorithm for this type of widget.
ARM GAS  C:\Users\inspiron\AppData\Local\Temp\ccn8daOc.s 			page 20


 923:Generated_Source\PSoC4/CapSense_Processing.c **** *
 924:Generated_Source\PSoC4/CapSense_Processing.c **** *  When the widget-specific processing completes this API updates the snsStatus
 925:Generated_Source\PSoC4/CapSense_Processing.c **** *  and wdgtStatus registers in the data structure. The wdgtStatus register
 926:Generated_Source\PSoC4/CapSense_Processing.c **** *  is a bitmask were each bit corresponds to the specific widget identified by
 927:Generated_Source\PSoC4/CapSense_Processing.c **** *  the widget index. When the bit is set the widget is active (touched);
 928:Generated_Source\PSoC4/CapSense_Processing.c **** *
 929:Generated_Source\PSoC4/CapSense_Processing.c **** *  Depending on the type of widget the snsStatus register may contain either
 930:Generated_Source\PSoC4/CapSense_Processing.c **** *  status of each widget node (active/non-active) or in case of the ISX Touchpad
 931:Generated_Source\PSoC4/CapSense_Processing.c **** *  is contains the number of touches. In both cases 0 means that widget is not
 932:Generated_Source\PSoC4/CapSense_Processing.c **** *  active.
 933:Generated_Source\PSoC4/CapSense_Processing.c **** *
 934:Generated_Source\PSoC4/CapSense_Processing.c **** * \param wdgtId       The widget index number.
 935:Generated_Source\PSoC4/CapSense_Processing.c **** * \param ptrFlashWdgt The pointer to the Flash Widget Object.
 936:Generated_Source\PSoC4/CapSense_Processing.c **** *
 937:Generated_Source\PSoC4/CapSense_Processing.c **** *******************************************************************************/
 938:Generated_Source\PSoC4/CapSense_Processing.c **** void CapSense_DpProcessIsxWidgetStatus(uint32 wdgtId, CapSense_FLASH_WD_STRUCT const *ptrFlashWdgt)
 939:Generated_Source\PSoC4/CapSense_Processing.c **** {
 940:Generated_Source\PSoC4/CapSense_Processing.c ****     uint32 sensorStatus;
 941:Generated_Source\PSoC4/CapSense_Processing.c ****     uint32 wdStatusIndex;
 942:Generated_Source\PSoC4/CapSense_Processing.c ****     uint32 wdStatusMask;
 943:Generated_Source\PSoC4/CapSense_Processing.c ****     CapSense_WD_TYPE_ENUM widgetType;
 944:Generated_Source\PSoC4/CapSense_Processing.c **** 
 945:Generated_Source\PSoC4/CapSense_Processing.c ****     widgetType = (CapSense_WD_TYPE_ENUM)ptrFlashWdgt->wdgtType;
 946:Generated_Source\PSoC4/CapSense_Processing.c ****     sensorStatus = CapSense_dsRam.snsStatus[wdgtId];
 947:Generated_Source\PSoC4/CapSense_Processing.c **** 
 948:Generated_Source\PSoC4/CapSense_Processing.c ****     switch (widgetType)
 949:Generated_Source\PSoC4/CapSense_Processing.c ****     {
 950:Generated_Source\PSoC4/CapSense_Processing.c ****     #if (0u != CapSense_PROXIMITY_WIDGET_EN)
 951:Generated_Source\PSoC4/CapSense_Processing.c ****         case CapSense_WD_PROXIMITY_E:
 952:Generated_Source\PSoC4/CapSense_Processing.c ****             sensorStatus = CapSense_DpProcessProximity(sensorStatus, ptrFlashWdgt);
 953:Generated_Source\PSoC4/CapSense_Processing.c ****             break;
 954:Generated_Source\PSoC4/CapSense_Processing.c ****     #endif /* #if (0u != CapSense_Proximity_WIDGET_EN) */
 955:Generated_Source\PSoC4/CapSense_Processing.c ****     #if (0u != CapSense_ENCODERDIAL_WIDGET_EN)
 956:Generated_Source\PSoC4/CapSense_Processing.c ****         case CapSense_WD_ENCODERDIAL_E:
 957:Generated_Source\PSoC4/CapSense_Processing.c ****             sensorStatus = CapSense_DpProcessEncoderDial(sensorStatus, ptrFlashWdgt);
 958:Generated_Source\PSoC4/CapSense_Processing.c ****             break;
 959:Generated_Source\PSoC4/CapSense_Processing.c ****     #endif /* #if (0u != CapSense_Proximity_WIDGET_EN) */
 960:Generated_Source\PSoC4/CapSense_Processing.c ****     #if (0u != CapSense_BUTTON_WIDGET_EN)
 961:Generated_Source\PSoC4/CapSense_Processing.c ****         case CapSense_WD_BUTTON_E:
 962:Generated_Source\PSoC4/CapSense_Processing.c ****             sensorStatus = CapSense_DpProcessButton(sensorStatus, ptrFlashWdgt);
 963:Generated_Source\PSoC4/CapSense_Processing.c ****             break;
 964:Generated_Source\PSoC4/CapSense_Processing.c ****     #endif /* #if (0u != CapSense_Proximity_WIDGET_EN) */
 965:Generated_Source\PSoC4/CapSense_Processing.c **** 
 966:Generated_Source\PSoC4/CapSense_Processing.c ****     default:
 967:Generated_Source\PSoC4/CapSense_Processing.c ****         CYASSERT(0u);
 968:Generated_Source\PSoC4/CapSense_Processing.c ****         break;
 969:Generated_Source\PSoC4/CapSense_Processing.c ****     }
 970:Generated_Source\PSoC4/CapSense_Processing.c **** 
 971:Generated_Source\PSoC4/CapSense_Processing.c ****     /* Update sensor status in the data structure */
 972:Generated_Source\PSoC4/CapSense_Processing.c ****     CapSense_dsRam.snsStatus[wdgtId] = (CapSense_SNS_STS_TYPE)sensorStatus;
 973:Generated_Source\PSoC4/CapSense_Processing.c **** 
 974:Generated_Source\PSoC4/CapSense_Processing.c ****     /* The next two lines calculate index and bitmask of the widget status bit in the wdgtStatus ar
 975:Generated_Source\PSoC4/CapSense_Processing.c ****     wdStatusIndex = CapSense_GET_WDGT_STATUS_INDEX(wdgtId);
 976:Generated_Source\PSoC4/CapSense_Processing.c ****     wdStatusMask = CapSense_GET_WDGT_STATUS_MASK(wdgtId);
 977:Generated_Source\PSoC4/CapSense_Processing.c **** 
 978:Generated_Source\PSoC4/CapSense_Processing.c ****     /* Check if there are active sensors and update widget status accordingly */
 979:Generated_Source\PSoC4/CapSense_Processing.c ****     if (0u == sensorStatus)
ARM GAS  C:\Users\inspiron\AppData\Local\Temp\ccn8daOc.s 			page 21


 980:Generated_Source\PSoC4/CapSense_Processing.c ****     {
 981:Generated_Source\PSoC4/CapSense_Processing.c ****         CapSense_dsRam.wdgtStatus[wdStatusIndex] &= ~wdStatusMask;
 982:Generated_Source\PSoC4/CapSense_Processing.c ****     }
 983:Generated_Source\PSoC4/CapSense_Processing.c ****     else
 984:Generated_Source\PSoC4/CapSense_Processing.c ****     {
 985:Generated_Source\PSoC4/CapSense_Processing.c ****         CapSense_dsRam.wdgtStatus[wdStatusIndex] |= wdStatusMask;
 986:Generated_Source\PSoC4/CapSense_Processing.c ****     }
 987:Generated_Source\PSoC4/CapSense_Processing.c **** }
 988:Generated_Source\PSoC4/CapSense_Processing.c **** #endif /* #if CapSense_TOTAL_ISX_WIDGETS */
 989:Generated_Source\PSoC4/CapSense_Processing.c **** 
 990:Generated_Source\PSoC4/CapSense_Processing.c **** #if (0u != CapSense_TOTAL_CSD_WIDGETS)
 991:Generated_Source\PSoC4/CapSense_Processing.c **** /*******************************************************************************
 992:Generated_Source\PSoC4/CapSense_Processing.c **** * Function Name: CapSense_DpProcessCsdWidgetRawCounts
 993:Generated_Source\PSoC4/CapSense_Processing.c **** ****************************************************************************//**
 994:Generated_Source\PSoC4/CapSense_Processing.c **** *
 995:Generated_Source\PSoC4/CapSense_Processing.c **** * \brief
 996:Generated_Source\PSoC4/CapSense_Processing.c **** *   Performs default processing for the CSD widget raw counts.
 997:Generated_Source\PSoC4/CapSense_Processing.c **** *
 998:Generated_Source\PSoC4/CapSense_Processing.c **** * \details
 999:Generated_Source\PSoC4/CapSense_Processing.c **** *   Performs default processing for the CSD widget raw counts:
1000:Generated_Source\PSoC4/CapSense_Processing.c **** *    - Run Filters
1001:Generated_Source\PSoC4/CapSense_Processing.c **** *    - Update Thresholds (FW Auto-tuning)
1002:Generated_Source\PSoC4/CapSense_Processing.c **** *    - Update Baselines
1003:Generated_Source\PSoC4/CapSense_Processing.c **** *    - Update Differences.
1004:Generated_Source\PSoC4/CapSense_Processing.c **** *   The process is applied to all widget's sensors.
1005:Generated_Source\PSoC4/CapSense_Processing.c **** *
1006:Generated_Source\PSoC4/CapSense_Processing.c **** * \param ptrFlashWdgt The pointer to the Flash Widget Object.
1007:Generated_Source\PSoC4/CapSense_Processing.c **** *
1008:Generated_Source\PSoC4/CapSense_Processing.c **** * \return
1009:Generated_Source\PSoC4/CapSense_Processing.c **** *  Returns the status of the specified widget processing operation:
1010:Generated_Source\PSoC4/CapSense_Processing.c **** *  - CYRET_SUCCESS if operation was successfully completed;
1011:Generated_Source\PSoC4/CapSense_Processing.c **** *  - CapSense_PROCESS_BASELINE_FAILED if baseline processing of any
1012:Generated_Source\PSoC4/CapSense_Processing.c **** *    sensor of the specified widget failed. The result is concatenated with the index
1013:Generated_Source\PSoC4/CapSense_Processing.c **** *    of failed sensor.
1014:Generated_Source\PSoC4/CapSense_Processing.c **** *
1015:Generated_Source\PSoC4/CapSense_Processing.c **** *******************************************************************************/
1016:Generated_Source\PSoC4/CapSense_Processing.c **** uint32 CapSense_DpProcessCsdWidgetRawCounts(CapSense_FLASH_WD_STRUCT const *ptrFlashWdgt)
1017:Generated_Source\PSoC4/CapSense_Processing.c **** {
1018:Generated_Source\PSoC4/CapSense_Processing.c ****     uint32  result = CYRET_SUCCESS;
1019:Generated_Source\PSoC4/CapSense_Processing.c **** 
1020:Generated_Source\PSoC4/CapSense_Processing.c ****     #if (CapSense_ENABLE == CapSense_TST_BSLN_DUPLICATION_EN)
1021:Generated_Source\PSoC4/CapSense_Processing.c ****         uint32 bslnTstResult = CYRET_SUCCESS;
1022:Generated_Source\PSoC4/CapSense_Processing.c ****     #endif /* (CapSense_ENABLE == CapSense_TST_BSLN_DUPLICATION_EN) */
1023:Generated_Source\PSoC4/CapSense_Processing.c **** 
1024:Generated_Source\PSoC4/CapSense_Processing.c ****     uint32  widgetType;
1025:Generated_Source\PSoC4/CapSense_Processing.c ****     uint32  snsId;
1026:Generated_Source\PSoC4/CapSense_Processing.c ****     CapSense_RAM_SNS_STRUCT *ptrSnsTmp;
1027:Generated_Source\PSoC4/CapSense_Processing.c ****     CapSense_RAM_WD_BASE_STRUCT *ptrRamWdgt;
1028:Generated_Source\PSoC4/CapSense_Processing.c **** 
1029:Generated_Source\PSoC4/CapSense_Processing.c ****     #if (0u != (CapSense_CSD_AUTOTUNE & CapSense_CSD_SS_TH_EN))
1030:Generated_Source\PSoC4/CapSense_Processing.c ****         /* The noise envelope data is available only when Full CSD Auto-Tuning is enabled */
1031:Generated_Source\PSoC4/CapSense_Processing.c ****         SMARTSENSE_CSD_NOISE_ENVELOPE_STRUCT *ptrNoiseEnvelope;
1032:Generated_Source\PSoC4/CapSense_Processing.c ****         #if (CapSense_ENABLE == CapSense_PROXIMITY_WIDGET_EN)
1033:Generated_Source\PSoC4/CapSense_Processing.c ****             uint32  proximityThreshold;
1034:Generated_Source\PSoC4/CapSense_Processing.c ****         #endif /* (0 != CapSense_PROXIMITY_WIDGET_EN) */
1035:Generated_Source\PSoC4/CapSense_Processing.c ****     #endif /* #if (0u != (CapSense_CSD_AUTOTUNE & CapSense_CSD_SS_TH_EN)) */
1036:Generated_Source\PSoC4/CapSense_Processing.c **** 
ARM GAS  C:\Users\inspiron\AppData\Local\Temp\ccn8daOc.s 			page 22


1037:Generated_Source\PSoC4/CapSense_Processing.c ****     #if (CapSense_ENABLE == CapSense_RC_FILTER_EN)
1038:Generated_Source\PSoC4/CapSense_Processing.c ****         CapSense_PTR_FILTER_VARIANT fltrHistV;
1039:Generated_Source\PSoC4/CapSense_Processing.c **** 
1040:Generated_Source\PSoC4/CapSense_Processing.c ****         /* Determine if widget type is proximity */
1041:Generated_Source\PSoC4/CapSense_Processing.c ****         uint32 isProxWdgt = (CapSense_GET_WIDGET_TYPE(ptrFlashWdgt) == CapSense_WD_PROXIMITY_E) ? 1
1042:Generated_Source\PSoC4/CapSense_Processing.c **** 
1043:Generated_Source\PSoC4/CapSense_Processing.c ****         /* Get pointer to the filter history object */
1044:Generated_Source\PSoC4/CapSense_Processing.c ****         fltrHistV.ptr = ptrFlashWdgt->ptr2FltrHistory;
1045:Generated_Source\PSoC4/CapSense_Processing.c ****     #endif /* #if (CapSense_ENABLE == CapSense_RC_FILTER_EN) */
1046:Generated_Source\PSoC4/CapSense_Processing.c **** 
1047:Generated_Source\PSoC4/CapSense_Processing.c ****     ptrSnsTmp = ptrFlashWdgt->ptr2SnsRam;
1048:Generated_Source\PSoC4/CapSense_Processing.c ****     ptrRamWdgt = (CapSense_RAM_WD_BASE_STRUCT *)ptrFlashWdgt->ptr2WdgtRam;
1049:Generated_Source\PSoC4/CapSense_Processing.c ****     widgetType = ptrFlashWdgt->wdgtType;
1050:Generated_Source\PSoC4/CapSense_Processing.c **** 
1051:Generated_Source\PSoC4/CapSense_Processing.c ****     #if (0u != (CapSense_CSD_AUTOTUNE & CapSense_CSD_SS_TH_EN))
1052:Generated_Source\PSoC4/CapSense_Processing.c ****         ptrNoiseEnvelope = ptrFlashWdgt->ptr2NoiseEnvlp;
1053:Generated_Source\PSoC4/CapSense_Processing.c ****     #endif /* #if (0u != (CapSense_CSD_AUTOTUNE & CapSense_CSD_SS_TH_EN)) */
1054:Generated_Source\PSoC4/CapSense_Processing.c **** 
1055:Generated_Source\PSoC4/CapSense_Processing.c ****     /* Iterate through all widget's sensors */
1056:Generated_Source\PSoC4/CapSense_Processing.c ****     for(snsId = 0u; snsId < ptrFlashWdgt->totalNumSns; snsId++)
1057:Generated_Source\PSoC4/CapSense_Processing.c ****     {
1058:Generated_Source\PSoC4/CapSense_Processing.c ****         /* Run all enabled filter on specified widget's sensor */
1059:Generated_Source\PSoC4/CapSense_Processing.c ****         #if (CapSense_ENABLE == CapSense_RC_FILTER_EN)
1060:Generated_Source\PSoC4/CapSense_Processing.c ****             CapSense_FtRunEnabledFiltersInternal(fltrHistV, ptrSnsTmp, widgetType);
1061:Generated_Source\PSoC4/CapSense_Processing.c ****             #if (CapSense_ALP_FILTER_EN)
1062:Generated_Source\PSoC4/CapSense_Processing.c ****                 CapSense_ConfigRunALPInternal(fltrHistV, ptrRamWdgt, ptrSnsTmp, widgetType);
1063:Generated_Source\PSoC4/CapSense_Processing.c ****             #endif
1064:Generated_Source\PSoC4/CapSense_Processing.c ****         #endif /* #if (CapSense_ENABLE == CapSense_RC_FILTER_EN) */
1065:Generated_Source\PSoC4/CapSense_Processing.c **** 
1066:Generated_Source\PSoC4/CapSense_Processing.c ****         /* Run auto-tuning activities */
1067:Generated_Source\PSoC4/CapSense_Processing.c ****         #if (0u != (CapSense_CSD_AUTOTUNE & CapSense_CSD_SS_TH_EN))
1068:Generated_Source\PSoC4/CapSense_Processing.c ****             SmartSense_RunNoiseEnvelope(ptrSnsTmp->raw[0u], ptrRamWdgt->sigPFC, ptrNoiseEnvelope);
1069:Generated_Source\PSoC4/CapSense_Processing.c ****             CapSense_DpUpdateThresholds(ptrRamWdgt, ptrNoiseEnvelope, snsId);
1070:Generated_Source\PSoC4/CapSense_Processing.c **** 
1071:Generated_Source\PSoC4/CapSense_Processing.c ****             /* Calculate Proximity Touch Threshold in SmartSense mode based on Finger Threshold and
1072:Generated_Source\PSoC4/CapSense_Processing.c ****             #if (CapSense_ENABLE == CapSense_PROXIMITY_WIDGET_EN)
1073:Generated_Source\PSoC4/CapSense_Processing.c ****                 if (CapSense_WD_PROXIMITY_E == CapSense_GET_WIDGET_TYPE(ptrFlashWdgt))
1074:Generated_Source\PSoC4/CapSense_Processing.c ****                 {
1075:Generated_Source\PSoC4/CapSense_Processing.c ****                     proximityThreshold = ((uint32)ptrRamWdgt->fingerTh * CapSense_PROX_TOUCH_COEFF)
1076:Generated_Source\PSoC4/CapSense_Processing.c ****                     if ((((1Lu) << CapSense_THRESHOLD_SIZE) - 1u) < proximityThreshold)
1077:Generated_Source\PSoC4/CapSense_Processing.c ****                     {
1078:Generated_Source\PSoC4/CapSense_Processing.c ****                         proximityThreshold = ((1Lu) << CapSense_THRESHOLD_SIZE) - 1u;
1079:Generated_Source\PSoC4/CapSense_Processing.c ****                     }
1080:Generated_Source\PSoC4/CapSense_Processing.c ****                     ((CapSense_RAM_WD_PROXIMITY_STRUCT *)ptrFlashWdgt->ptr2WdgtRam)->proxTouchTh =
1081:Generated_Source\PSoC4/CapSense_Processing.c ****                         (CapSense_THRESHOLD_TYPE)proximityThreshold;
1082:Generated_Source\PSoC4/CapSense_Processing.c ****                 }
1083:Generated_Source\PSoC4/CapSense_Processing.c ****             #endif /* (0 != CapSense_PROXIMITY_WIDGET_EN) */
1084:Generated_Source\PSoC4/CapSense_Processing.c **** 
1085:Generated_Source\PSoC4/CapSense_Processing.c ****             /* Move to next noise-envelope object */
1086:Generated_Source\PSoC4/CapSense_Processing.c ****             ptrNoiseEnvelope++;
1087:Generated_Source\PSoC4/CapSense_Processing.c ****         #endif /* (0u != (CapSense_CSD_AUTOTUNE & CapSense_CSD_SS_TH_EN)) */
1088:Generated_Source\PSoC4/CapSense_Processing.c **** 
1089:Generated_Source\PSoC4/CapSense_Processing.c ****         #if (CapSense_ENABLE == CapSense_TST_BSLN_DUPLICATION_EN)
1090:Generated_Source\PSoC4/CapSense_Processing.c ****             bslnTstResult = CapSense_FtUpdateBaseline(ptrRamWdgt, ptrSnsTmp, widgetType);
1091:Generated_Source\PSoC4/CapSense_Processing.c ****             if ((CYRET_SUCCESS != bslnTstResult) && (CYRET_SUCCESS == result))
1092:Generated_Source\PSoC4/CapSense_Processing.c ****             {
1093:Generated_Source\PSoC4/CapSense_Processing.c ****                 result = snsId | CapSense_PROCESS_BASELINE_FAILED;
ARM GAS  C:\Users\inspiron\AppData\Local\Temp\ccn8daOc.s 			page 23


1094:Generated_Source\PSoC4/CapSense_Processing.c ****             }
1095:Generated_Source\PSoC4/CapSense_Processing.c ****         #else /* (CapSense_ENABLE == CapSense_TST_BSLN_DUPLICATION_EN) */
1096:Generated_Source\PSoC4/CapSense_Processing.c ****             result = CapSense_FtUpdateBaseline(ptrRamWdgt, ptrSnsTmp, widgetType);
1097:Generated_Source\PSoC4/CapSense_Processing.c ****         #endif /* (CapSense_ENABLE == CapSense_TST_BSLN_DUPLICATION_EN) */
1098:Generated_Source\PSoC4/CapSense_Processing.c **** 
1099:Generated_Source\PSoC4/CapSense_Processing.c ****         CapSense_DpUpdateDifferences(ptrRamWdgt, ptrSnsTmp);
1100:Generated_Source\PSoC4/CapSense_Processing.c **** 
1101:Generated_Source\PSoC4/CapSense_Processing.c ****         /* Move to next sensor object */
1102:Generated_Source\PSoC4/CapSense_Processing.c ****         ptrSnsTmp++;
1103:Generated_Source\PSoC4/CapSense_Processing.c **** 
1104:Generated_Source\PSoC4/CapSense_Processing.c ****         #if (CapSense_ENABLE == CapSense_RC_FILTER_EN)
1105:Generated_Source\PSoC4/CapSense_Processing.c ****             /* Move to the next filter history object */
1106:Generated_Source\PSoC4/CapSense_Processing.c ****             CapSense_INC_FLTR_OBJ_VARIANT(isProxWdgt, fltrHistV);
1107:Generated_Source\PSoC4/CapSense_Processing.c ****         #endif /* #if (CapSense_ENABLE == CapSense_RC_FILTER_EN) */
1108:Generated_Source\PSoC4/CapSense_Processing.c ****     }
1109:Generated_Source\PSoC4/CapSense_Processing.c ****     return result;
1110:Generated_Source\PSoC4/CapSense_Processing.c **** }
1111:Generated_Source\PSoC4/CapSense_Processing.c **** 
1112:Generated_Source\PSoC4/CapSense_Processing.c **** 
1113:Generated_Source\PSoC4/CapSense_Processing.c **** /*******************************************************************************
1114:Generated_Source\PSoC4/CapSense_Processing.c **** * Function Name: CapSense_DpProcessCsdSensorRawCountsExt
1115:Generated_Source\PSoC4/CapSense_Processing.c **** ****************************************************************************//**
1116:Generated_Source\PSoC4/CapSense_Processing.c **** *
1117:Generated_Source\PSoC4/CapSense_Processing.c **** * \brief
1118:Generated_Source\PSoC4/CapSense_Processing.c **** *   Performs customized processing of the CSD sensor raw counts.
1119:Generated_Source\PSoC4/CapSense_Processing.c **** *
1120:Generated_Source\PSoC4/CapSense_Processing.c **** * \details
1121:Generated_Source\PSoC4/CapSense_Processing.c **** *   Performs customized processing of the CSD sensor raw counts.
1122:Generated_Source\PSoC4/CapSense_Processing.c **** *
1123:Generated_Source\PSoC4/CapSense_Processing.c **** *   Note that this API updates data associated only with the sensor. It cannot be used to update
1124:Generated_Source\PSoC4/CapSense_Processing.c **** *   widget status.
1125:Generated_Source\PSoC4/CapSense_Processing.c **** *
1126:Generated_Source\PSoC4/CapSense_Processing.c **** * \param ptrFlashWdgt The pointer to the Flash widget structure.
1127:Generated_Source\PSoC4/CapSense_Processing.c **** * \param curSnsPtr    The pointer to the sensor object in RAM.
1128:Generated_Source\PSoC4/CapSense_Processing.c **** * \param fltrHistV    The pointer to the Filter History Object in RAM.
1129:Generated_Source\PSoC4/CapSense_Processing.c **** * \param mode         The bit-mask with the data processing tasks to be executed.
1130:Generated_Source\PSoC4/CapSense_Processing.c **** *   The mode parameters can take the following values:
1131:Generated_Source\PSoC4/CapSense_Processing.c **** *    - CapSense_PROCESS_FILTER     (0x01) Run Firmware Filter
1132:Generated_Source\PSoC4/CapSense_Processing.c **** *    - CapSense_PROCESS_BASELINE   (0x02) Update Baselines
1133:Generated_Source\PSoC4/CapSense_Processing.c **** *    - CapSense_PROCESS_DIFFCOUNTS (0x04) Update Difference Counts
1134:Generated_Source\PSoC4/CapSense_Processing.c **** *    - CapSense_PROCESS_CALC_NOISE (0x08) Calculate Noise (only if FW Tuning is enabled)
1135:Generated_Source\PSoC4/CapSense_Processing.c **** *    - CapSense_PROCESS_THRESHOLDS (0x10) Update Thresholds (only if FW Tuning is enabled)
1136:Generated_Source\PSoC4/CapSense_Processing.c **** *    - CapSense_PROCESS_ALL               Execute all tasks
1137:Generated_Source\PSoC4/CapSense_Processing.c **** *
1138:Generated_Source\PSoC4/CapSense_Processing.c **** * \return
1139:Generated_Source\PSoC4/CapSense_Processing.c **** *  Returns the status of the specified sensor processing operation:
1140:Generated_Source\PSoC4/CapSense_Processing.c **** *  - CYRET_SUCCESS if operation was successfully completed.
1141:Generated_Source\PSoC4/CapSense_Processing.c **** *  - CapSense_PROCESS_BASELINE_FAILED if baseline processing of any
1142:Generated_Source\PSoC4/CapSense_Processing.c **** *    sensor of the specified widget failed. The result is concatenated with the index
1143:Generated_Source\PSoC4/CapSense_Processing.c **** *    of failed sensor.
1144:Generated_Source\PSoC4/CapSense_Processing.c **** *
1145:Generated_Source\PSoC4/CapSense_Processing.c **** *******************************************************************************/
1146:Generated_Source\PSoC4/CapSense_Processing.c **** uint32 CapSense_DpProcessCsdSensorRawCountsExt(
1147:Generated_Source\PSoC4/CapSense_Processing.c ****                 CapSense_FLASH_WD_STRUCT const *ptrFlashWdgt,
1148:Generated_Source\PSoC4/CapSense_Processing.c ****                 CapSense_RAM_SNS_STRUCT *curSnsPtr,
1149:Generated_Source\PSoC4/CapSense_Processing.c ****                 CapSense_PTR_FILTER_VARIANT fltrHistV,
1150:Generated_Source\PSoC4/CapSense_Processing.c ****                  uint32 mode)
ARM GAS  C:\Users\inspiron\AppData\Local\Temp\ccn8daOc.s 			page 24


1151:Generated_Source\PSoC4/CapSense_Processing.c **** {
1152:Generated_Source\PSoC4/CapSense_Processing.c ****     uint32 result = CYRET_SUCCESS;
1153:Generated_Source\PSoC4/CapSense_Processing.c ****     uint32  widgetType;
1154:Generated_Source\PSoC4/CapSense_Processing.c ****     CapSense_RAM_WD_BASE_STRUCT *ptrRamWdgt;
1155:Generated_Source\PSoC4/CapSense_Processing.c **** 
1156:Generated_Source\PSoC4/CapSense_Processing.c ****     #if (0u != (CapSense_CSD_AUTOTUNE & CapSense_CSD_SS_TH_EN))
1157:Generated_Source\PSoC4/CapSense_Processing.c ****         SMARTSENSE_CSD_NOISE_ENVELOPE_STRUCT *ptrNoiseEnvelope;
1158:Generated_Source\PSoC4/CapSense_Processing.c ****         #if (CapSense_ENABLE == CapSense_PROXIMITY_WIDGET_EN)
1159:Generated_Source\PSoC4/CapSense_Processing.c ****             uint32  proximityThreshold;
1160:Generated_Source\PSoC4/CapSense_Processing.c ****         #endif /* (0 != CapSense_PROXIMITY_WIDGET_EN) */
1161:Generated_Source\PSoC4/CapSense_Processing.c **** 
1162:Generated_Source\PSoC4/CapSense_Processing.c ****         /* Need to specify pointer to corresponding sensor's noise-envelope object.*/
1163:Generated_Source\PSoC4/CapSense_Processing.c ****         ptrNoiseEnvelope = ptrFlashWdgt->ptr2NoiseEnvlp;
1164:Generated_Source\PSoC4/CapSense_Processing.c ****     #endif /* (0u != (CapSense_CSD_AUTOTUNE & CapSense_CSD_SS_TH_EN)) */
1165:Generated_Source\PSoC4/CapSense_Processing.c **** 
1166:Generated_Source\PSoC4/CapSense_Processing.c ****     widgetType = ptrFlashWdgt->wdgtType;
1167:Generated_Source\PSoC4/CapSense_Processing.c ****     ptrRamWdgt = (CapSense_RAM_WD_BASE_STRUCT *)ptrFlashWdgt->ptr2WdgtRam;
1168:Generated_Source\PSoC4/CapSense_Processing.c **** 
1169:Generated_Source\PSoC4/CapSense_Processing.c ****     #if (CapSense_ENABLE == CapSense_RC_FILTER_EN)
1170:Generated_Source\PSoC4/CapSense_Processing.c ****         if (0u != (mode & CapSense_PROCESS_FILTER))
1171:Generated_Source\PSoC4/CapSense_Processing.c ****         {
1172:Generated_Source\PSoC4/CapSense_Processing.c ****             CapSense_FtRunEnabledFiltersInternal(fltrHistV, curSnsPtr, widgetType);
1173:Generated_Source\PSoC4/CapSense_Processing.c ****             #if (CapSense_ALP_FILTER_EN)
1174:Generated_Source\PSoC4/CapSense_Processing.c ****                 CapSense_ConfigRunALPInternal(fltrHistV, ptrRamWdgt, curSnsPtr, widgetType);
1175:Generated_Source\PSoC4/CapSense_Processing.c ****             #endif
1176:Generated_Source\PSoC4/CapSense_Processing.c ****         }
1177:Generated_Source\PSoC4/CapSense_Processing.c ****     #else
1178:Generated_Source\PSoC4/CapSense_Processing.c ****         (void)fltrHistV; /* This parameter is unused in such configurations */
1179:Generated_Source\PSoC4/CapSense_Processing.c ****     #endif /* #if (CapSense_ENABLE == CapSense_RC_FILTER_EN) */
1180:Generated_Source\PSoC4/CapSense_Processing.c **** 
1181:Generated_Source\PSoC4/CapSense_Processing.c ****     #if (0u != (CapSense_CSD_AUTOTUNE & CapSense_CSD_SS_TH_EN))
1182:Generated_Source\PSoC4/CapSense_Processing.c ****         if (0u != (mode & CapSense_PROCESS_CALC_NOISE))
1183:Generated_Source\PSoC4/CapSense_Processing.c ****         {
1184:Generated_Source\PSoC4/CapSense_Processing.c ****             SmartSense_RunNoiseEnvelope(curSnsPtr->raw[0u], ptrRamWdgt->sigPFC, ptrNoiseEnvelope);
1185:Generated_Source\PSoC4/CapSense_Processing.c ****         }
1186:Generated_Source\PSoC4/CapSense_Processing.c **** 
1187:Generated_Source\PSoC4/CapSense_Processing.c ****         if (0u != (mode & CapSense_PROCESS_THRESHOLDS))
1188:Generated_Source\PSoC4/CapSense_Processing.c ****         {
1189:Generated_Source\PSoC4/CapSense_Processing.c ****             CapSense_DpUpdateThresholds(ptrRamWdgt, ptrNoiseEnvelope, 0u);
1190:Generated_Source\PSoC4/CapSense_Processing.c **** 
1191:Generated_Source\PSoC4/CapSense_Processing.c ****             /* Calculate Proximity Touch Threshold in SmartSense mode based on Finger Threshold and
1192:Generated_Source\PSoC4/CapSense_Processing.c ****             #if (CapSense_ENABLE == CapSense_PROXIMITY_WIDGET_EN)
1193:Generated_Source\PSoC4/CapSense_Processing.c ****                 if (CapSense_WD_PROXIMITY_E == CapSense_GET_WIDGET_TYPE(ptrFlashWdgt))
1194:Generated_Source\PSoC4/CapSense_Processing.c ****                 {
1195:Generated_Source\PSoC4/CapSense_Processing.c ****                     proximityThreshold = ((uint32)ptrRamWdgt->fingerTh * CapSense_PROX_TOUCH_COEFF)
1196:Generated_Source\PSoC4/CapSense_Processing.c ****                     if ((((1Lu) << CapSense_THRESHOLD_SIZE) - 1u) < proximityThreshold)
1197:Generated_Source\PSoC4/CapSense_Processing.c ****                     {
1198:Generated_Source\PSoC4/CapSense_Processing.c ****                         proximityThreshold = ((1Lu) << CapSense_THRESHOLD_SIZE) - 1u;
1199:Generated_Source\PSoC4/CapSense_Processing.c ****                     }
1200:Generated_Source\PSoC4/CapSense_Processing.c ****                     ((CapSense_RAM_WD_PROXIMITY_STRUCT *)ptrFlashWdgt->ptr2WdgtRam)->proxTouchTh =
1201:Generated_Source\PSoC4/CapSense_Processing.c ****                         (CapSense_THRESHOLD_TYPE)proximityThreshold;
1202:Generated_Source\PSoC4/CapSense_Processing.c ****                 }
1203:Generated_Source\PSoC4/CapSense_Processing.c ****             #endif /* (0 != CapSense_PROXIMITY_WIDGET_EN) */
1204:Generated_Source\PSoC4/CapSense_Processing.c ****         }
1205:Generated_Source\PSoC4/CapSense_Processing.c ****     #endif /* #if (0u != (CapSense_CSD_AUTOTUNE & CapSense_CSD_SS_TH_EN)) */
1206:Generated_Source\PSoC4/CapSense_Processing.c **** 
1207:Generated_Source\PSoC4/CapSense_Processing.c ****     if (0u != (mode & CapSense_PROCESS_BASELINE))
ARM GAS  C:\Users\inspiron\AppData\Local\Temp\ccn8daOc.s 			page 25


1208:Generated_Source\PSoC4/CapSense_Processing.c ****     {
1209:Generated_Source\PSoC4/CapSense_Processing.c ****         result = CapSense_FtUpdateBaseline(ptrRamWdgt, curSnsPtr, widgetType);
1210:Generated_Source\PSoC4/CapSense_Processing.c ****     }
1211:Generated_Source\PSoC4/CapSense_Processing.c **** 
1212:Generated_Source\PSoC4/CapSense_Processing.c ****     if (0u != (mode & CapSense_PROCESS_DIFFCOUNTS))
1213:Generated_Source\PSoC4/CapSense_Processing.c ****     {
1214:Generated_Source\PSoC4/CapSense_Processing.c ****         CapSense_DpUpdateDifferences(ptrRamWdgt, curSnsPtr);
1215:Generated_Source\PSoC4/CapSense_Processing.c ****     }
1216:Generated_Source\PSoC4/CapSense_Processing.c ****     return result;
1217:Generated_Source\PSoC4/CapSense_Processing.c **** }
1218:Generated_Source\PSoC4/CapSense_Processing.c **** 
1219:Generated_Source\PSoC4/CapSense_Processing.c **** /*******************************************************************************
1220:Generated_Source\PSoC4/CapSense_Processing.c **** * Function Name: CapSense_DpProcessCsdWidgetStatus
1221:Generated_Source\PSoC4/CapSense_Processing.c **** ****************************************************************************//**
1222:Generated_Source\PSoC4/CapSense_Processing.c **** *
1223:Generated_Source\PSoC4/CapSense_Processing.c **** * \brief
1224:Generated_Source\PSoC4/CapSense_Processing.c **** *  Runs the status processing of the CSD widget and updates it in the Data Structure.
1225:Generated_Source\PSoC4/CapSense_Processing.c **** *
1226:Generated_Source\PSoC4/CapSense_Processing.c **** * \details
1227:Generated_Source\PSoC4/CapSense_Processing.c **** *  This API determines the widget type and calls the appropriate low-level processing
1228:Generated_Source\PSoC4/CapSense_Processing.c **** *  function. Based on the returned results it updates the widget and sensor
1229:Generated_Source\PSoC4/CapSense_Processing.c **** *  status in the data structure. Any widget specific registers like the centroid
1230:Generated_Source\PSoC4/CapSense_Processing.c **** *  position are updated directly in the low-level processing function.
1231:Generated_Source\PSoC4/CapSense_Processing.c **** *
1232:Generated_Source\PSoC4/CapSense_Processing.c **** *  When the widget-specific processing completes this API updates the snsStatus
1233:Generated_Source\PSoC4/CapSense_Processing.c **** *  and wdgtStatus registers in the data structure. The wdgtStatus register
1234:Generated_Source\PSoC4/CapSense_Processing.c **** *  is a bitmask were each bit corresponds to the specific widget identified by
1235:Generated_Source\PSoC4/CapSense_Processing.c **** *  the widget index. When the bit is set the widget is active (touched);
1236:Generated_Source\PSoC4/CapSense_Processing.c **** *
1237:Generated_Source\PSoC4/CapSense_Processing.c **** *  The snsStatus register for CSD widgets contains status of each widget sensor
1238:Generated_Source\PSoC4/CapSense_Processing.c **** *  (active/non-active). Each bit corresponds to one sensor. In case of the
1239:Generated_Source\PSoC4/CapSense_Processing.c **** *  Proximity widget two bits are used per sensor: one for proximity status and
1240:Generated_Source\PSoC4/CapSense_Processing.c **** *  second for the touch status.
1241:Generated_Source\PSoC4/CapSense_Processing.c **** *
1242:Generated_Source\PSoC4/CapSense_Processing.c **** * \param widgetId      The widget index number.
1243:Generated_Source\PSoC4/CapSense_Processing.c **** * \param ptrFlashWdgt  The pointer to the Flash widget structure.
1244:Generated_Source\PSoC4/CapSense_Processing.c **** *
1245:Generated_Source\PSoC4/CapSense_Processing.c **** *******************************************************************************/
1246:Generated_Source\PSoC4/CapSense_Processing.c **** void CapSense_DpProcessCsdWidgetStatus(uint32 widgetId, CapSense_FLASH_WD_STRUCT const *ptrFlashWdg
1247:Generated_Source\PSoC4/CapSense_Processing.c **** {
1248:Generated_Source\PSoC4/CapSense_Processing.c ****     uint32 sensorStatus;
1249:Generated_Source\PSoC4/CapSense_Processing.c ****     uint32 wdStatusIndex;
1250:Generated_Source\PSoC4/CapSense_Processing.c ****     uint32 wdStatusMask;
1251:Generated_Source\PSoC4/CapSense_Processing.c ****     CapSense_WD_TYPE_ENUM widgetType;
1252:Generated_Source\PSoC4/CapSense_Processing.c **** 
1253:Generated_Source\PSoC4/CapSense_Processing.c ****     widgetType = (CapSense_WD_TYPE_ENUM)ptrFlashWdgt->wdgtType;
1254:Generated_Source\PSoC4/CapSense_Processing.c ****     sensorStatus = CapSense_dsRam.snsStatus[widgetId];
1255:Generated_Source\PSoC4/CapSense_Processing.c **** 
1256:Generated_Source\PSoC4/CapSense_Processing.c ****     switch (widgetType)
1257:Generated_Source\PSoC4/CapSense_Processing.c ****     {
1258:Generated_Source\PSoC4/CapSense_Processing.c ****     #if (0u != CapSense_BUTTON_WIDGET_EN)
1259:Generated_Source\PSoC4/CapSense_Processing.c ****         case CapSense_WD_BUTTON_E:
1260:Generated_Source\PSoC4/CapSense_Processing.c ****             sensorStatus = CapSense_DpProcessButton(sensorStatus, ptrFlashWdgt);
1261:Generated_Source\PSoC4/CapSense_Processing.c ****             break;
1262:Generated_Source\PSoC4/CapSense_Processing.c ****     #endif /* #if (0u != CapSense_BUTTON_WIDGET_EN) */
1263:Generated_Source\PSoC4/CapSense_Processing.c **** 
1264:Generated_Source\PSoC4/CapSense_Processing.c ****     #if (0u != CapSense_SLIDER_WIDGET_EN)
ARM GAS  C:\Users\inspiron\AppData\Local\Temp\ccn8daOc.s 			page 26


1265:Generated_Source\PSoC4/CapSense_Processing.c ****         case CapSense_WD_LINEAR_SLIDER_E:
1266:Generated_Source\PSoC4/CapSense_Processing.c ****         case CapSense_WD_RADIAL_SLIDER_E:
1267:Generated_Source\PSoC4/CapSense_Processing.c ****             sensorStatus = CapSense_DpProcessSlider(sensorStatus, ptrFlashWdgt);
1268:Generated_Source\PSoC4/CapSense_Processing.c ****             break;
1269:Generated_Source\PSoC4/CapSense_Processing.c ****     #endif /* #if (0u != CapSense_SLIDER_WIDGET_EN) */
1270:Generated_Source\PSoC4/CapSense_Processing.c **** 
1271:Generated_Source\PSoC4/CapSense_Processing.c ****     #if (0u != CapSense_CSD_MATRIX_WIDGET_EN)
1272:Generated_Source\PSoC4/CapSense_Processing.c ****         case CapSense_WD_MATRIX_BUTTON_E:
1273:Generated_Source\PSoC4/CapSense_Processing.c ****             sensorStatus = CapSense_DpProcessCsdMatrix(sensorStatus, ptrFlashWdgt);
1274:Generated_Source\PSoC4/CapSense_Processing.c ****             break;
1275:Generated_Source\PSoC4/CapSense_Processing.c ****     #endif /* #if (0u != CapSense_CSD_MATRIX_WIDGET_EN) */
1276:Generated_Source\PSoC4/CapSense_Processing.c **** 
1277:Generated_Source\PSoC4/CapSense_Processing.c ****     #if (0u != CapSense_CSD_TOUCHPAD_WIDGET_EN)
1278:Generated_Source\PSoC4/CapSense_Processing.c ****         case CapSense_WD_TOUCHPAD_E:
1279:Generated_Source\PSoC4/CapSense_Processing.c ****             sensorStatus = CapSense_DpProcessCsdTouchpad(sensorStatus, ptrFlashWdgt);
1280:Generated_Source\PSoC4/CapSense_Processing.c ****             #if (0u != CapSense_BALLISTIC_MULTIPLIER_EN)
1281:Generated_Source\PSoC4/CapSense_Processing.c ****                 CapSense_RunBallisticMultiplier(widgetId);
1282:Generated_Source\PSoC4/CapSense_Processing.c ****             #endif /* (0u != CapSense_BALLISTIC_MULTIPLIER_EN) */
1283:Generated_Source\PSoC4/CapSense_Processing.c ****             break;
1284:Generated_Source\PSoC4/CapSense_Processing.c ****     #endif /* #if (0u != CapSense_CSD_TOUCHPAD_WIDGET_EN) */
1285:Generated_Source\PSoC4/CapSense_Processing.c **** 
1286:Generated_Source\PSoC4/CapSense_Processing.c ****     #if (0u != CapSense_PROXIMITY_WIDGET_EN)
1287:Generated_Source\PSoC4/CapSense_Processing.c ****         case CapSense_WD_PROXIMITY_E:
1288:Generated_Source\PSoC4/CapSense_Processing.c ****             sensorStatus = CapSense_DpProcessProximity(sensorStatus, ptrFlashWdgt);
1289:Generated_Source\PSoC4/CapSense_Processing.c ****             break;
1290:Generated_Source\PSoC4/CapSense_Processing.c ****     #endif /* #if (0u != CapSense_PROXIMITY_WIDGET_EN) */
1291:Generated_Source\PSoC4/CapSense_Processing.c **** 
1292:Generated_Source\PSoC4/CapSense_Processing.c ****     default:
1293:Generated_Source\PSoC4/CapSense_Processing.c ****         CYASSERT(0u);
1294:Generated_Source\PSoC4/CapSense_Processing.c ****         break;
1295:Generated_Source\PSoC4/CapSense_Processing.c ****     }
1296:Generated_Source\PSoC4/CapSense_Processing.c **** 
1297:Generated_Source\PSoC4/CapSense_Processing.c ****     CapSense_dsRam.snsStatus[widgetId] = (CapSense_SNS_STS_TYPE)sensorStatus;
1298:Generated_Source\PSoC4/CapSense_Processing.c **** 
1299:Generated_Source\PSoC4/CapSense_Processing.c ****     /* The next two lines calculate index and bitmask of the widget status bit in the wdgtStatus ar
1300:Generated_Source\PSoC4/CapSense_Processing.c ****     wdStatusIndex = CapSense_GET_WDGT_STATUS_INDEX(widgetId);
1301:Generated_Source\PSoC4/CapSense_Processing.c ****     wdStatusMask = CapSense_GET_WDGT_STATUS_MASK(widgetId);
1302:Generated_Source\PSoC4/CapSense_Processing.c **** 
1303:Generated_Source\PSoC4/CapSense_Processing.c ****     /* Check if there are active sensors and update widget status accordingly */
1304:Generated_Source\PSoC4/CapSense_Processing.c ****     if (0u == sensorStatus)
1305:Generated_Source\PSoC4/CapSense_Processing.c ****     {
1306:Generated_Source\PSoC4/CapSense_Processing.c ****         CapSense_dsRam.wdgtStatus[wdStatusIndex] &= ~wdStatusMask;
1307:Generated_Source\PSoC4/CapSense_Processing.c ****     }
1308:Generated_Source\PSoC4/CapSense_Processing.c ****     else
1309:Generated_Source\PSoC4/CapSense_Processing.c ****     {
1310:Generated_Source\PSoC4/CapSense_Processing.c ****         CapSense_dsRam.wdgtStatus[wdStatusIndex] |= wdStatusMask;
1311:Generated_Source\PSoC4/CapSense_Processing.c ****     }
1312:Generated_Source\PSoC4/CapSense_Processing.c **** }
1313:Generated_Source\PSoC4/CapSense_Processing.c **** #endif /* #if (0u != CapSense_TOTAL_CSD_WIDGETS) */
1314:Generated_Source\PSoC4/CapSense_Processing.c **** 
1315:Generated_Source\PSoC4/CapSense_Processing.c **** 
1316:Generated_Source\PSoC4/CapSense_Processing.c **** #if (0 != (CapSense_CSD_AUTOTUNE & CapSense_CSD_SS_TH_EN))
1317:Generated_Source\PSoC4/CapSense_Processing.c **** /*******************************************************************************
1318:Generated_Source\PSoC4/CapSense_Processing.c **** * Function Name: CapSense_DpUpdateThresholds
1319:Generated_Source\PSoC4/CapSense_Processing.c **** ****************************************************************************//**
1320:Generated_Source\PSoC4/CapSense_Processing.c **** *
1321:Generated_Source\PSoC4/CapSense_Processing.c **** * \brief
ARM GAS  C:\Users\inspiron\AppData\Local\Temp\ccn8daOc.s 			page 27


1322:Generated_Source\PSoC4/CapSense_Processing.c **** *   Updates noise and finger thresholds for a specified widget.
1323:Generated_Source\PSoC4/CapSense_Processing.c **** *
1324:Generated_Source\PSoC4/CapSense_Processing.c **** * \details
1325:Generated_Source\PSoC4/CapSense_Processing.c **** *   Updates noise and finger thresholds for a specified widget.
1326:Generated_Source\PSoC4/CapSense_Processing.c **** *   This algorithm is a part of Auto-tuning feature.
1327:Generated_Source\PSoC4/CapSense_Processing.c **** *
1328:Generated_Source\PSoC4/CapSense_Processing.c **** * \param ptrRamWdgt       The pointer to the RAM widget object.
1329:Generated_Source\PSoC4/CapSense_Processing.c **** * \param ptrNoiseEnvelope The pointer to the noise-envelope object in RAM.
1330:Generated_Source\PSoC4/CapSense_Processing.c **** * \param startFlag        The flag indicates when new widget is processed.
1331:Generated_Source\PSoC4/CapSense_Processing.c **** *
1332:Generated_Source\PSoC4/CapSense_Processing.c **** *******************************************************************************/
1333:Generated_Source\PSoC4/CapSense_Processing.c **** void CapSense_DpUpdateThresholds(CapSense_RAM_WD_BASE_STRUCT *ptrRamWdgt,
1334:Generated_Source\PSoC4/CapSense_Processing.c ****                                          SMARTSENSE_CSD_NOISE_ENVELOPE_STRUCT *ptrNoiseEnvelope,
1335:Generated_Source\PSoC4/CapSense_Processing.c ****                                          uint32 startFlag)
1336:Generated_Source\PSoC4/CapSense_Processing.c **** {
1337:Generated_Source\PSoC4/CapSense_Processing.c ****     SMARTSENSE_UPDATE_THRESHOLDS_STRUCT thresholds;
1338:Generated_Source\PSoC4/CapSense_Processing.c ****     SMARTSENSE_UPDATE_THRESHOLDS_STRUCT *ptrThresholds = &thresholds;
1339:Generated_Source\PSoC4/CapSense_Processing.c ****     ptrThresholds->fingerTh = ptrRamWdgt->fingerTh;
1340:Generated_Source\PSoC4/CapSense_Processing.c **** 
1341:Generated_Source\PSoC4/CapSense_Processing.c ****     SmartSense_UpdateThresholds(ptrNoiseEnvelope, ptrThresholds, ptrRamWdgt->sigPFC, startFlag);
1342:Generated_Source\PSoC4/CapSense_Processing.c **** 
1343:Generated_Source\PSoC4/CapSense_Processing.c ****     ptrRamWdgt->fingerTh = ptrThresholds->fingerTh;
1344:Generated_Source\PSoC4/CapSense_Processing.c ****     ptrRamWdgt->noiseTh = ptrThresholds->noiseTh;
1345:Generated_Source\PSoC4/CapSense_Processing.c ****     ptrRamWdgt->nNoiseTh = ptrThresholds->nNoiseTh;
1346:Generated_Source\PSoC4/CapSense_Processing.c ****     ptrRamWdgt->hysteresis = ptrThresholds->hysteresis;
1347:Generated_Source\PSoC4/CapSense_Processing.c **** }
1348:Generated_Source\PSoC4/CapSense_Processing.c **** #endif /* #if (0u != (CapSense_CSD_AUTOTUNE & CapSense_CSD_SS_TH_EN)) */
1349:Generated_Source\PSoC4/CapSense_Processing.c **** 
1350:Generated_Source\PSoC4/CapSense_Processing.c **** 
1351:Generated_Source\PSoC4/CapSense_Processing.c **** /*******************************************************************************
1352:Generated_Source\PSoC4/CapSense_Processing.c **** * Function Name: CapSense_DpUpdateDifferences
1353:Generated_Source\PSoC4/CapSense_Processing.c **** ****************************************************************************//**
1354:Generated_Source\PSoC4/CapSense_Processing.c **** *
1355:Generated_Source\PSoC4/CapSense_Processing.c **** * \brief
1356:Generated_Source\PSoC4/CapSense_Processing.c **** *   Calculates new difference values.
1357:Generated_Source\PSoC4/CapSense_Processing.c **** *   Also, executes the multi-frequency scan algorithm if it is enabled.
1358:Generated_Source\PSoC4/CapSense_Processing.c **** *
1359:Generated_Source\PSoC4/CapSense_Processing.c **** * \details
1360:Generated_Source\PSoC4/CapSense_Processing.c **** *   This API calculates the difference between the baseline and raw counts.
1361:Generated_Source\PSoC4/CapSense_Processing.c **** *   If the difference is positive (raw > baseline), and higher than the widget
1362:Generated_Source\PSoC4/CapSense_Processing.c **** *   noise threshold, it is saved into the data structure for further processing.
1363:Generated_Source\PSoC4/CapSense_Processing.c **** *   Otherwise the difference is set to zero. The final difference value is saved
1364:Generated_Source\PSoC4/CapSense_Processing.c **** *   with the subtracted noise threshold value.
1365:Generated_Source\PSoC4/CapSense_Processing.c **** *
1366:Generated_Source\PSoC4/CapSense_Processing.c **** *   If the multi-frequency scan algorithm is enabled, the difference is calculated
1367:Generated_Source\PSoC4/CapSense_Processing.c **** *   for the three sets of data available for each sensor. Then
1368:Generated_Source\PSoC4/CapSense_Processing.c **** *   the median filter selects the final difference value.
1369:Generated_Source\PSoC4/CapSense_Processing.c **** *
1370:Generated_Source\PSoC4/CapSense_Processing.c **** * \param ptrRamWdgt The pointer to the RAR Widget Object.
1371:Generated_Source\PSoC4/CapSense_Processing.c **** * \param curSnsPtr  The pointer to the sensor object in RAM.
1372:Generated_Source\PSoC4/CapSense_Processing.c **** *
1373:Generated_Source\PSoC4/CapSense_Processing.c **** *******************************************************************************/
1374:Generated_Source\PSoC4/CapSense_Processing.c **** void CapSense_DpUpdateDifferences(
1375:Generated_Source\PSoC4/CapSense_Processing.c ****                         CapSense_RAM_WD_BASE_STRUCT *ptrRamWdgt,
1376:Generated_Source\PSoC4/CapSense_Processing.c ****                         CapSense_RAM_SNS_STRUCT *curSnsPtr)
1377:Generated_Source\PSoC4/CapSense_Processing.c **** {
 153              		.loc 1 1377 0
ARM GAS  C:\Users\inspiron\AppData\Local\Temp\ccn8daOc.s 			page 28


 154              		.cfi_startproc
 155              		@ args = 0, pretend = 0, frame = 0
 156              		@ frame_needed = 0, uses_anonymous_args = 0
 157              	.LVL17:
 158 0000 30B5     		push	{r4, r5, lr}
 159              		.cfi_def_cfa_offset 12
 160              		.cfi_offset 4, -12
 161              		.cfi_offset 5, -8
 162              		.cfi_offset 14, -4
 163              	.LVL18:
1378:Generated_Source\PSoC4/CapSense_Processing.c ****     register int32 diffValue = 0;
1379:Generated_Source\PSoC4/CapSense_Processing.c **** 
1380:Generated_Source\PSoC4/CapSense_Processing.c ****     #if (0u != CapSense_MULTI_FREQ_SCAN_EN)
1381:Generated_Source\PSoC4/CapSense_Processing.c ****         register int32 diffValue_0 = 0;
1382:Generated_Source\PSoC4/CapSense_Processing.c ****         register int32 diffValue_2 = 0;
1383:Generated_Source\PSoC4/CapSense_Processing.c ****     #endif /* #if (0u != CapSense_MULTI_FREQ_SCAN_EN) */
1384:Generated_Source\PSoC4/CapSense_Processing.c **** 
1385:Generated_Source\PSoC4/CapSense_Processing.c ****     /* Calculate difference */
1386:Generated_Source\PSoC4/CapSense_Processing.c ****     diffValue = (int32)curSnsPtr->raw[0u] - (int32)curSnsPtr->bsln[0u];
 164              		.loc 1 1386 0
 165 0002 0B88     		ldrh	r3, [r1]
 166 0004 4A88     		ldrh	r2, [r1, #2]
 167 0006 9C1A     		subs	r4, r3, r2
 168              	.LVL19:
1387:Generated_Source\PSoC4/CapSense_Processing.c **** 
1388:Generated_Source\PSoC4/CapSense_Processing.c ****     #if (0u != CapSense_MULTI_FREQ_SCAN_EN)
1389:Generated_Source\PSoC4/CapSense_Processing.c ****         diffValue_0 = (int32)curSnsPtr->raw[1u] - (int32)curSnsPtr->bsln[1u];
1390:Generated_Source\PSoC4/CapSense_Processing.c ****         diffValue_2 = (int32)curSnsPtr->raw[2u] - (int32)curSnsPtr->bsln[2u];
1391:Generated_Source\PSoC4/CapSense_Processing.c **** 
1392:Generated_Source\PSoC4/CapSense_Processing.c ****         /* Find median and put it into [0u] element */
1393:Generated_Source\PSoC4/CapSense_Processing.c ****         if (diffValue_0 > diffValue)
1394:Generated_Source\PSoC4/CapSense_Processing.c ****         {
1395:Generated_Source\PSoC4/CapSense_Processing.c ****             register int32 swapv = diffValue_0;
1396:Generated_Source\PSoC4/CapSense_Processing.c ****             diffValue_0 = diffValue;
1397:Generated_Source\PSoC4/CapSense_Processing.c ****             diffValue = swapv;
1398:Generated_Source\PSoC4/CapSense_Processing.c ****         }
1399:Generated_Source\PSoC4/CapSense_Processing.c **** 
1400:Generated_Source\PSoC4/CapSense_Processing.c ****         if (diffValue > diffValue_2)
1401:Generated_Source\PSoC4/CapSense_Processing.c ****         {
1402:Generated_Source\PSoC4/CapSense_Processing.c ****             register int32 swapv = diffValue;
1403:Generated_Source\PSoC4/CapSense_Processing.c ****             diffValue = diffValue_2;
1404:Generated_Source\PSoC4/CapSense_Processing.c ****             diffValue_2 = swapv;
1405:Generated_Source\PSoC4/CapSense_Processing.c ****         }
1406:Generated_Source\PSoC4/CapSense_Processing.c **** 
1407:Generated_Source\PSoC4/CapSense_Processing.c ****         if (diffValue_0 > diffValue)
1408:Generated_Source\PSoC4/CapSense_Processing.c ****         {
1409:Generated_Source\PSoC4/CapSense_Processing.c ****             register int32 swapv = diffValue_0;
1410:Generated_Source\PSoC4/CapSense_Processing.c ****             diffValue_0 = diffValue;
1411:Generated_Source\PSoC4/CapSense_Processing.c ****             diffValue = swapv;
1412:Generated_Source\PSoC4/CapSense_Processing.c ****         }
1413:Generated_Source\PSoC4/CapSense_Processing.c ****     #endif /* #if (0u != CapSense_MULTI_FREQ_SCAN_EN) */
1414:Generated_Source\PSoC4/CapSense_Processing.c **** 
1415:Generated_Source\PSoC4/CapSense_Processing.c ****     curSnsPtr->diff = 0u;
 169              		.loc 1 1415 0
 170 0008 0025     		movs	r5, #0
 171 000a CD80     		strh	r5, [r1, #6]
1416:Generated_Source\PSoC4/CapSense_Processing.c **** 
ARM GAS  C:\Users\inspiron\AppData\Local\Temp\ccn8daOc.s 			page 29


1417:Generated_Source\PSoC4/CapSense_Processing.c ****     if (diffValue > (int32)ptrRamWdgt->noiseTh)
 172              		.loc 1 1417 0
 173 000c 0079     		ldrb	r0, [r0, #4]
 174              	.LVL20:
 175 000e 8442     		cmp	r4, r0
 176 0010 00DD     		ble	.L11
1418:Generated_Source\PSoC4/CapSense_Processing.c ****     {
1419:Generated_Source\PSoC4/CapSense_Processing.c ****         curSnsPtr->diff = (CapSense_THRESHOLD_TYPE) diffValue;
 177              		.loc 1 1419 0
 178 0012 CC80     		strh	r4, [r1, #6]
 179              	.L11:
1420:Generated_Source\PSoC4/CapSense_Processing.c ****     }
1421:Generated_Source\PSoC4/CapSense_Processing.c **** }
 180              		.loc 1 1421 0
 181              		@ sp needed
 182              	.LVL21:
 183 0014 30BD     		pop	{r4, r5, pc}
 184              		.cfi_endproc
 185              	.LFE6:
 186              		.size	CapSense_DpUpdateDifferences, .-CapSense_DpUpdateDifferences
 187 0016 C046     		.section	.text.CapSense_DpProcessCsdWidgetRawCounts,"ax",%progbits
 188              		.align	2
 189              		.global	CapSense_DpProcessCsdWidgetRawCounts
 190              		.code	16
 191              		.thumb_func
 192              		.type	CapSense_DpProcessCsdWidgetRawCounts, %function
 193              	CapSense_DpProcessCsdWidgetRawCounts:
 194              	.LFB3:
1017:Generated_Source\PSoC4/CapSense_Processing.c ****     uint32  result = CYRET_SUCCESS;
 195              		.loc 1 1017 0
 196              		.cfi_startproc
 197              		@ args = 0, pretend = 0, frame = 8
 198              		@ frame_needed = 0, uses_anonymous_args = 0
 199              	.LVL22:
 200 0000 F0B5     		push	{r4, r5, r6, r7, lr}
 201              		.cfi_def_cfa_offset 20
 202              		.cfi_offset 4, -20
 203              		.cfi_offset 5, -16
 204              		.cfi_offset 6, -12
 205              		.cfi_offset 7, -8
 206              		.cfi_offset 14, -4
 207 0002 83B0     		sub	sp, sp, #12
 208              		.cfi_def_cfa_offset 32
 209 0004 0700     		movs	r7, r0
 210              	.LVL23:
1047:Generated_Source\PSoC4/CapSense_Processing.c ****     ptrRamWdgt = (CapSense_RAM_WD_BASE_STRUCT *)ptrFlashWdgt->ptr2WdgtRam;
 211              		.loc 1 1047 0
 212 0006 8468     		ldr	r4, [r0, #8]
 213              	.LVL24:
1048:Generated_Source\PSoC4/CapSense_Processing.c ****     widgetType = ptrFlashWdgt->wdgtType;
 214              		.loc 1 1048 0
 215 0008 4568     		ldr	r5, [r0, #4]
 216              	.LVL25:
1049:Generated_Source\PSoC4/CapSense_Processing.c **** 
 217              		.loc 1 1049 0
 218 000a 837E     		ldrb	r3, [r0, #26]
 219 000c 0193     		str	r3, [sp, #4]
ARM GAS  C:\Users\inspiron\AppData\Local\Temp\ccn8daOc.s 			page 30


 220              	.LVL26:
1056:Generated_Source\PSoC4/CapSense_Processing.c ****     {
 221              		.loc 1 1056 0
 222 000e 0026     		movs	r6, #0
1018:Generated_Source\PSoC4/CapSense_Processing.c **** 
 223              		.loc 1 1018 0
 224 0010 0023     		movs	r3, #0
 225              	.LVL27:
 226 0012 0093     		str	r3, [sp]
1056:Generated_Source\PSoC4/CapSense_Processing.c ****     {
 227              		.loc 1 1056 0
 228 0014 0BE0     		b	.L14
 229              	.LVL28:
 230              	.L15:
1096:Generated_Source\PSoC4/CapSense_Processing.c ****         #endif /* (CapSense_ENABLE == CapSense_TST_BSLN_DUPLICATION_EN) */
 231              		.loc 1 1096 0 discriminator 3
 232 0016 019A     		ldr	r2, [sp, #4]
 233 0018 2100     		movs	r1, r4
 234 001a 2800     		movs	r0, r5
 235 001c FFF7FEFF 		bl	CapSense_FtUpdateBaseline
 236              	.LVL29:
 237 0020 0090     		str	r0, [sp]
 238              	.LVL30:
1099:Generated_Source\PSoC4/CapSense_Processing.c **** 
 239              		.loc 1 1099 0 discriminator 3
 240 0022 2100     		movs	r1, r4
 241 0024 2800     		movs	r0, r5
 242              	.LVL31:
 243 0026 FFF7FEFF 		bl	CapSense_DpUpdateDifferences
 244              	.LVL32:
1102:Generated_Source\PSoC4/CapSense_Processing.c **** 
 245              		.loc 1 1102 0 discriminator 3
 246 002a 0A34     		adds	r4, r4, #10
 247              	.LVL33:
1056:Generated_Source\PSoC4/CapSense_Processing.c ****     {
 248              		.loc 1 1056 0 discriminator 3
 249 002c 0136     		adds	r6, r6, #1
 250              	.LVL34:
 251              	.L14:
1056:Generated_Source\PSoC4/CapSense_Processing.c ****     {
 252              		.loc 1 1056 0 is_stmt 0 discriminator 1
 253 002e 3B8B     		ldrh	r3, [r7, #24]
 254 0030 9E42     		cmp	r6, r3
 255 0032 F0D3     		bcc	.L15
1110:Generated_Source\PSoC4/CapSense_Processing.c **** 
 256              		.loc 1 1110 0 is_stmt 1
 257 0034 0098     		ldr	r0, [sp]
 258 0036 03B0     		add	sp, sp, #12
 259              	.LVL35:
 260              		@ sp needed
 261              	.LVL36:
 262              	.LVL37:
 263              	.LVL38:
 264              	.LVL39:
 265 0038 F0BD     		pop	{r4, r5, r6, r7, pc}
 266              		.cfi_endproc
 267              	.LFE3:
ARM GAS  C:\Users\inspiron\AppData\Local\Temp\ccn8daOc.s 			page 31


 268              		.size	CapSense_DpProcessCsdWidgetRawCounts, .-CapSense_DpProcessCsdWidgetRawCounts
 269 003a C046     		.section	.text.CapSense_DpProcessCsdSensorRawCountsExt,"ax",%progbits
 270              		.align	2
 271              		.global	CapSense_DpProcessCsdSensorRawCountsExt
 272              		.code	16
 273              		.thumb_func
 274              		.type	CapSense_DpProcessCsdSensorRawCountsExt, %function
 275              	CapSense_DpProcessCsdSensorRawCountsExt:
 276              	.LFB4:
1151:Generated_Source\PSoC4/CapSense_Processing.c ****     uint32 result = CYRET_SUCCESS;
 277              		.loc 1 1151 0
 278              		.cfi_startproc
 279              		@ args = 0, pretend = 0, frame = 0
 280              		@ frame_needed = 0, uses_anonymous_args = 0
 281              	.LVL40:
 282 0000 F8B5     		push	{r3, r4, r5, r6, r7, lr}
 283              		.cfi_def_cfa_offset 24
 284              		.cfi_offset 3, -24
 285              		.cfi_offset 4, -20
 286              		.cfi_offset 5, -16
 287              		.cfi_offset 6, -12
 288              		.cfi_offset 7, -8
 289              		.cfi_offset 14, -4
 290 0002 0E00     		movs	r6, r1
 291 0004 1C00     		movs	r4, r3
 292              	.LVL41:
1166:Generated_Source\PSoC4/CapSense_Processing.c ****     ptrRamWdgt = (CapSense_RAM_WD_BASE_STRUCT *)ptrFlashWdgt->ptr2WdgtRam;
 293              		.loc 1 1166 0
 294 0006 827E     		ldrb	r2, [r0, #26]
 295              	.LVL42:
1167:Generated_Source\PSoC4/CapSense_Processing.c **** 
 296              		.loc 1 1167 0
 297 0008 4768     		ldr	r7, [r0, #4]
 298              	.LVL43:
1207:Generated_Source\PSoC4/CapSense_Processing.c ****     {
 299              		.loc 1 1207 0
 300 000a A307     		lsls	r3, r4, #30
 301 000c 04D5     		bpl	.L19
 302              	.LVL44:
1209:Generated_Source\PSoC4/CapSense_Processing.c ****     }
 303              		.loc 1 1209 0
 304 000e 3800     		movs	r0, r7
 305              	.LVL45:
 306 0010 FFF7FEFF 		bl	CapSense_FtUpdateBaseline
 307              	.LVL46:
 308 0014 0500     		movs	r5, r0
 309              	.LVL47:
 310 0016 00E0     		b	.L17
 311              	.LVL48:
 312              	.L19:
1152:Generated_Source\PSoC4/CapSense_Processing.c ****     uint32  widgetType;
 313              		.loc 1 1152 0
 314 0018 0025     		movs	r5, #0
 315              	.LVL49:
 316              	.L17:
1212:Generated_Source\PSoC4/CapSense_Processing.c ****     {
 317              		.loc 1 1212 0
ARM GAS  C:\Users\inspiron\AppData\Local\Temp\ccn8daOc.s 			page 32


 318 001a 6307     		lsls	r3, r4, #29
 319 001c 03D5     		bpl	.L18
1214:Generated_Source\PSoC4/CapSense_Processing.c ****     }
 320              		.loc 1 1214 0
 321 001e 3100     		movs	r1, r6
 322 0020 3800     		movs	r0, r7
 323 0022 FFF7FEFF 		bl	CapSense_DpUpdateDifferences
 324              	.LVL50:
 325              	.L18:
1217:Generated_Source\PSoC4/CapSense_Processing.c **** 
 326              		.loc 1 1217 0
 327 0026 2800     		movs	r0, r5
 328              		@ sp needed
 329              	.LVL51:
 330              	.LVL52:
 331              	.LVL53:
 332              	.LVL54:
 333 0028 F8BD     		pop	{r3, r4, r5, r6, r7, pc}
 334              		.cfi_endproc
 335              	.LFE4:
 336              		.size	CapSense_DpProcessCsdSensorRawCountsExt, .-CapSense_DpProcessCsdSensorRawCountsExt
 337 002a C046     		.section	.text.CapSense_DpProcessCsdTouchpad,"ax",%progbits
 338              		.align	2
 339              		.global	CapSense_DpProcessCsdTouchpad
 340              		.code	16
 341              		.thumb_func
 342              		.type	CapSense_DpProcessCsdTouchpad, %function
 343              	CapSense_DpProcessCsdTouchpad:
 344              	.LFB7:
1422:Generated_Source\PSoC4/CapSense_Processing.c **** 
1423:Generated_Source\PSoC4/CapSense_Processing.c **** 
1424:Generated_Source\PSoC4/CapSense_Processing.c **** #if ((0u != CapSense_BUTTON_WIDGET_EN) || (0u != CapSense_CSX_MATRIX_WIDGET_EN))
1425:Generated_Source\PSoC4/CapSense_Processing.c **** /*******************************************************************************
1426:Generated_Source\PSoC4/CapSense_Processing.c **** * Function Name: CapSense_DpProcessButton
1427:Generated_Source\PSoC4/CapSense_Processing.c **** ****************************************************************************//**
1428:Generated_Source\PSoC4/CapSense_Processing.c **** *
1429:Generated_Source\PSoC4/CapSense_Processing.c **** * \brief
1430:Generated_Source\PSoC4/CapSense_Processing.c **** *   Processes the status of the Button widget.
1431:Generated_Source\PSoC4/CapSense_Processing.c **** *
1432:Generated_Source\PSoC4/CapSense_Processing.c **** * \details
1433:Generated_Source\PSoC4/CapSense_Processing.c **** *   This API processes the status of the CSD/CSX Button widget and
1434:Generated_Source\PSoC4/CapSense_Processing.c **** *   CSX Matrix Button widget. It applies the hysteresis and de-bounce algorithm
1435:Generated_Source\PSoC4/CapSense_Processing.c **** *   to each sensor difference value. This API is expected to be called
1436:Generated_Source\PSoC4/CapSense_Processing.c **** *   after each new widget scan. If it is called multiple times for the same
1437:Generated_Source\PSoC4/CapSense_Processing.c **** *   scan data, the de-bounce algorithm will not work properly.
1438:Generated_Source\PSoC4/CapSense_Processing.c **** *
1439:Generated_Source\PSoC4/CapSense_Processing.c **** *   This API does not update any Data Structure registers
1440:Generated_Source\PSoC4/CapSense_Processing.c **** *   except the de-bounce counters.
1441:Generated_Source\PSoC4/CapSense_Processing.c **** *
1442:Generated_Source\PSoC4/CapSense_Processing.c **** * \param currStatus   The current status of the widget sensors.
1443:Generated_Source\PSoC4/CapSense_Processing.c **** * \param ptrFlashWdgt The pointer to the Flash Widget Object.
1444:Generated_Source\PSoC4/CapSense_Processing.c **** *
1445:Generated_Source\PSoC4/CapSense_Processing.c **** * \return Returns the status of the widget's sensors. Bit #0 - corresponds to Sensor #0.
1446:Generated_Source\PSoC4/CapSense_Processing.c **** *
1447:Generated_Source\PSoC4/CapSense_Processing.c **** *******************************************************************************/
1448:Generated_Source\PSoC4/CapSense_Processing.c **** uint32 CapSense_DpProcessButton(uint32 currStatus, CapSense_FLASH_WD_STRUCT const *ptrFlashWdgt)
1449:Generated_Source\PSoC4/CapSense_Processing.c **** {
ARM GAS  C:\Users\inspiron\AppData\Local\Temp\ccn8daOc.s 			page 33


1450:Generated_Source\PSoC4/CapSense_Processing.c ****     uint32 snsCnt;
1451:Generated_Source\PSoC4/CapSense_Processing.c ****     uint32 snsMask;
1452:Generated_Source\PSoC4/CapSense_Processing.c ****     uint32 newStatus;
1453:Generated_Source\PSoC4/CapSense_Processing.c ****     uint32 touchTh;
1454:Generated_Source\PSoC4/CapSense_Processing.c ****     CapSense_RAM_SNS_STRUCT *ptrSnsTmp;
1455:Generated_Source\PSoC4/CapSense_Processing.c ****     CapSense_RAM_WD_BASE_STRUCT *ptrRamWdgt;
1456:Generated_Source\PSoC4/CapSense_Processing.c ****     uint8 * ptrDebounceCnt;
1457:Generated_Source\PSoC4/CapSense_Processing.c **** 
1458:Generated_Source\PSoC4/CapSense_Processing.c ****     snsCnt = ptrFlashWdgt->totalNumSns;
1459:Generated_Source\PSoC4/CapSense_Processing.c ****     ptrSnsTmp = ptrFlashWdgt->ptr2SnsRam;
1460:Generated_Source\PSoC4/CapSense_Processing.c ****     ptrRamWdgt = (CapSense_RAM_WD_BASE_STRUCT *)ptrFlashWdgt->ptr2WdgtRam;
1461:Generated_Source\PSoC4/CapSense_Processing.c ****     ptrDebounceCnt = ptrFlashWdgt->ptr2DebounceArr;
1462:Generated_Source\PSoC4/CapSense_Processing.c **** 
1463:Generated_Source\PSoC4/CapSense_Processing.c ****     /* Go through all widget's sensors */
1464:Generated_Source\PSoC4/CapSense_Processing.c ****     snsMask = 1Lu;
1465:Generated_Source\PSoC4/CapSense_Processing.c ****     for (; snsCnt-- > 0u; )
1466:Generated_Source\PSoC4/CapSense_Processing.c ****     {
1467:Generated_Source\PSoC4/CapSense_Processing.c ****         /* Calculate touch threshold taking into account hysteresis
1468:Generated_Source\PSoC4/CapSense_Processing.c ****            and current sensor state. */
1469:Generated_Source\PSoC4/CapSense_Processing.c ****         touchTh = (0u == (currStatus & snsMask)) ?
1470:Generated_Source\PSoC4/CapSense_Processing.c ****                   ((uint32)ptrRamWdgt->fingerTh + ptrRamWdgt->hysteresis) :
1471:Generated_Source\PSoC4/CapSense_Processing.c ****                   ((uint32)ptrRamWdgt->fingerTh - ptrRamWdgt->hysteresis);
1472:Generated_Source\PSoC4/CapSense_Processing.c **** 
1473:Generated_Source\PSoC4/CapSense_Processing.c ****         /* Determine new potential sensor state */
1474:Generated_Source\PSoC4/CapSense_Processing.c ****         newStatus = (ptrSnsTmp->diff > touchTh) ? snsMask : 0u;
1475:Generated_Source\PSoC4/CapSense_Processing.c **** 
1476:Generated_Source\PSoC4/CapSense_Processing.c ****         /* Sensor state changed ? */
1477:Generated_Source\PSoC4/CapSense_Processing.c ****         if (newStatus != (currStatus & snsMask))
1478:Generated_Source\PSoC4/CapSense_Processing.c ****         {
1479:Generated_Source\PSoC4/CapSense_Processing.c ****             /* Decrement de-bounce counter */
1480:Generated_Source\PSoC4/CapSense_Processing.c ****             (*ptrDebounceCnt)--;
1481:Generated_Source\PSoC4/CapSense_Processing.c ****         }
1482:Generated_Source\PSoC4/CapSense_Processing.c **** 
1483:Generated_Source\PSoC4/CapSense_Processing.c ****         /*
1484:Generated_Source\PSoC4/CapSense_Processing.c ****         *  This piece of code has two objectives:
1485:Generated_Source\PSoC4/CapSense_Processing.c ****         *  1. Reset de-bounce counter if the sensor state did not change.
1486:Generated_Source\PSoC4/CapSense_Processing.c ****         *     (It is possible that during previous processing cycles sensor
1487:Generated_Source\PSoC4/CapSense_Processing.c ****         *     was active and de-bounce counter was decremented.)
1488:Generated_Source\PSoC4/CapSense_Processing.c ****         *  2. Set new sensor state after successful de-bounce.
1489:Generated_Source\PSoC4/CapSense_Processing.c ****         */
1490:Generated_Source\PSoC4/CapSense_Processing.c ****         if ((newStatus == (currStatus & snsMask)) || (0u == (*ptrDebounceCnt)))
1491:Generated_Source\PSoC4/CapSense_Processing.c ****         {
1492:Generated_Source\PSoC4/CapSense_Processing.c ****             /* Set new sensor status */
1493:Generated_Source\PSoC4/CapSense_Processing.c ****             currStatus &= ~snsMask;
1494:Generated_Source\PSoC4/CapSense_Processing.c ****             currStatus |= newStatus;
1495:Generated_Source\PSoC4/CapSense_Processing.c **** 
1496:Generated_Source\PSoC4/CapSense_Processing.c ****             /* Reset de-bounce counter */
1497:Generated_Source\PSoC4/CapSense_Processing.c ****             #if (0u != CapSense_OFF_DEBOUNCE_EN)
1498:Generated_Source\PSoC4/CapSense_Processing.c ****                 *ptrDebounceCnt = (0Lu == newStatus) ? ptrRamWdgt->onDebounce : ptrRamWdgt->offDebo
1499:Generated_Source\PSoC4/CapSense_Processing.c ****             #else
1500:Generated_Source\PSoC4/CapSense_Processing.c ****                 *ptrDebounceCnt = (0Lu == newStatus) ? ptrRamWdgt->onDebounce : DEFAULT_OFF_DEBOUNC
1501:Generated_Source\PSoC4/CapSense_Processing.c ****             #endif /* #if (0u != CapSense_OFF_DEBOUNCE_EN) */
1502:Generated_Source\PSoC4/CapSense_Processing.c ****         }
1503:Generated_Source\PSoC4/CapSense_Processing.c **** 
1504:Generated_Source\PSoC4/CapSense_Processing.c ****         /* Move mask to the next sensor */
1505:Generated_Source\PSoC4/CapSense_Processing.c ****         snsMask <<= 1u;
1506:Generated_Source\PSoC4/CapSense_Processing.c **** 
ARM GAS  C:\Users\inspiron\AppData\Local\Temp\ccn8daOc.s 			page 34


1507:Generated_Source\PSoC4/CapSense_Processing.c ****         ptrSnsTmp++;
1508:Generated_Source\PSoC4/CapSense_Processing.c ****         ptrDebounceCnt++;
1509:Generated_Source\PSoC4/CapSense_Processing.c ****     }
1510:Generated_Source\PSoC4/CapSense_Processing.c **** 
1511:Generated_Source\PSoC4/CapSense_Processing.c ****     return currStatus;
1512:Generated_Source\PSoC4/CapSense_Processing.c **** }
1513:Generated_Source\PSoC4/CapSense_Processing.c **** #endif /* #if ((0u != CapSense_BUTTON_WIDGET_EN) || (0u != CapSense_CSX_MATRIX_WIDGET_EN)) */
1514:Generated_Source\PSoC4/CapSense_Processing.c **** 
1515:Generated_Source\PSoC4/CapSense_Processing.c **** 
1516:Generated_Source\PSoC4/CapSense_Processing.c **** #if (0u != CapSense_PROXIMITY_WIDGET_EN)
1517:Generated_Source\PSoC4/CapSense_Processing.c **** /*******************************************************************************
1518:Generated_Source\PSoC4/CapSense_Processing.c **** * Function Name: CapSense_DpProcessProximity
1519:Generated_Source\PSoC4/CapSense_Processing.c **** ****************************************************************************//**
1520:Generated_Source\PSoC4/CapSense_Processing.c **** *
1521:Generated_Source\PSoC4/CapSense_Processing.c **** * \brief
1522:Generated_Source\PSoC4/CapSense_Processing.c **** *   Processes the status of the Proximity widget.
1523:Generated_Source\PSoC4/CapSense_Processing.c **** *
1524:Generated_Source\PSoC4/CapSense_Processing.c **** * \details
1525:Generated_Source\PSoC4/CapSense_Processing.c **** *   This API processes the status of the CSD Proximity widget. It applies the
1526:Generated_Source\PSoC4/CapSense_Processing.c **** *   hysteresis and debounce algorithm to each sensor difference value.
1527:Generated_Source\PSoC4/CapSense_Processing.c **** *   The proximity and touch events are considered independently so debounce and
1528:Generated_Source\PSoC4/CapSense_Processing.c **** *   hysteresis are also applied independently.
1529:Generated_Source\PSoC4/CapSense_Processing.c **** *
1530:Generated_Source\PSoC4/CapSense_Processing.c **** *   This API is expected to be called after each new widget scan. If it is
1531:Generated_Source\PSoC4/CapSense_Processing.c **** *   called multiple times for the same scan data the debounce algorithm
1532:Generated_Source\PSoC4/CapSense_Processing.c **** *   will not work properly.
1533:Generated_Source\PSoC4/CapSense_Processing.c **** *
1534:Generated_Source\PSoC4/CapSense_Processing.c **** *   This API does not update any Data Structure registers
1535:Generated_Source\PSoC4/CapSense_Processing.c **** *   except the debounce counters.
1536:Generated_Source\PSoC4/CapSense_Processing.c **** *
1537:Generated_Source\PSoC4/CapSense_Processing.c **** * \param currStatus   The value with the current widget status.
1538:Generated_Source\PSoC4/CapSense_Processing.c **** * \param ptrFlashWdgt The pointer to the Flash Widget Object.
1539:Generated_Source\PSoC4/CapSense_Processing.c **** *
1540:Generated_Source\PSoC4/CapSense_Processing.c **** * \return
1541:Generated_Source\PSoC4/CapSense_Processing.c **** *  Returns the status of the proximity sensors. Each sensor is represented by two bits
1542:Generated_Source\PSoC4/CapSense_Processing.c **** *  that can take the following values:
1543:Generated_Source\PSoC4/CapSense_Processing.c **** *   - 00b not active
1544:Generated_Source\PSoC4/CapSense_Processing.c **** *   - 01b proximity is detected (signal is above finger threshold)
1545:Generated_Source\PSoC4/CapSense_Processing.c **** *   - 11b finger touch is detected (signal is above the touch threshold)
1546:Generated_Source\PSoC4/CapSense_Processing.c **** *
1547:Generated_Source\PSoC4/CapSense_Processing.c **** *******************************************************************************/
1548:Generated_Source\PSoC4/CapSense_Processing.c **** uint32 CapSense_DpProcessProximity(uint32 currStatus, CapSense_FLASH_WD_STRUCT const *ptrFlashWdgt)
1549:Generated_Source\PSoC4/CapSense_Processing.c **** {
1550:Generated_Source\PSoC4/CapSense_Processing.c ****     uint32 currTh;
1551:Generated_Source\PSoC4/CapSense_Processing.c ****     uint32 snsCnt;
1552:Generated_Source\PSoC4/CapSense_Processing.c ****     uint32 snsMask;
1553:Generated_Source\PSoC4/CapSense_Processing.c ****     uint32 newStatus;
1554:Generated_Source\PSoC4/CapSense_Processing.c ****     uint32 difference;
1555:Generated_Source\PSoC4/CapSense_Processing.c **** 
1556:Generated_Source\PSoC4/CapSense_Processing.c ****     uint8 *ptrDebounceCnt;
1557:Generated_Source\PSoC4/CapSense_Processing.c ****     CapSense_RAM_SNS_STRUCT *ptrSnsTmp;
1558:Generated_Source\PSoC4/CapSense_Processing.c ****     CapSense_RAM_WD_PROXIMITY_STRUCT *ptrRamWdgt;
1559:Generated_Source\PSoC4/CapSense_Processing.c **** 
1560:Generated_Source\PSoC4/CapSense_Processing.c ****     /* Mask for proximity status bits. (All odd bits.) */
1561:Generated_Source\PSoC4/CapSense_Processing.c ****     const uint32 proxMask = UINT32_ODD_BITS_CONST;
1562:Generated_Source\PSoC4/CapSense_Processing.c **** 
1563:Generated_Source\PSoC4/CapSense_Processing.c ****     ptrSnsTmp = ptrFlashWdgt->ptr2SnsRam;
ARM GAS  C:\Users\inspiron\AppData\Local\Temp\ccn8daOc.s 			page 35


1564:Generated_Source\PSoC4/CapSense_Processing.c ****     ptrRamWdgt = (CapSense_RAM_WD_PROXIMITY_STRUCT *)ptrFlashWdgt->ptr2WdgtRam;
1565:Generated_Source\PSoC4/CapSense_Processing.c ****     ptrDebounceCnt = ptrFlashWdgt->ptr2DebounceArr;
1566:Generated_Source\PSoC4/CapSense_Processing.c **** 
1567:Generated_Source\PSoC4/CapSense_Processing.c ****     /* Get number of sensors and multiply it by 2 - proximity and touch statuses per sensor. */
1568:Generated_Source\PSoC4/CapSense_Processing.c ****     snsCnt = (uint32)ptrFlashWdgt->totalNumSns << 1u;
1569:Generated_Source\PSoC4/CapSense_Processing.c **** 
1570:Generated_Source\PSoC4/CapSense_Processing.c ****     /* Go through all sensor's status bits */
1571:Generated_Source\PSoC4/CapSense_Processing.c ****     snsMask = 1Lu;
1572:Generated_Source\PSoC4/CapSense_Processing.c ****     for (; snsCnt-- > 0u;)
1573:Generated_Source\PSoC4/CapSense_Processing.c ****     {
1574:Generated_Source\PSoC4/CapSense_Processing.c ****         difference = ptrSnsTmp->diff;
1575:Generated_Source\PSoC4/CapSense_Processing.c **** 
1576:Generated_Source\PSoC4/CapSense_Processing.c ****         /* Determine current event (proximity - odd; touch - even) and get appropriate threshold. *
1577:Generated_Source\PSoC4/CapSense_Processing.c ****         currTh = ptrRamWdgt->fingerTh;
1578:Generated_Source\PSoC4/CapSense_Processing.c **** 
1579:Generated_Source\PSoC4/CapSense_Processing.c ****         if (0u == (snsMask & proxMask))
1580:Generated_Source\PSoC4/CapSense_Processing.c ****         {
1581:Generated_Source\PSoC4/CapSense_Processing.c ****             currTh = ptrRamWdgt->proxTouchTh;
1582:Generated_Source\PSoC4/CapSense_Processing.c ****             ptrSnsTmp++;
1583:Generated_Source\PSoC4/CapSense_Processing.c ****         }
1584:Generated_Source\PSoC4/CapSense_Processing.c **** 
1585:Generated_Source\PSoC4/CapSense_Processing.c ****         /* Calculate finger threshold applying hysteresis based on current sensor state. */
1586:Generated_Source\PSoC4/CapSense_Processing.c ****         currTh = (0u == (currStatus & snsMask)) ? (currTh + ptrRamWdgt->hysteresis) : (currTh - ptr
1587:Generated_Source\PSoC4/CapSense_Processing.c **** 
1588:Generated_Source\PSoC4/CapSense_Processing.c ****         /* Determine new potential sensor state before de-bounce */
1589:Generated_Source\PSoC4/CapSense_Processing.c ****         newStatus = (difference > currTh) ? snsMask : 0Lu;
1590:Generated_Source\PSoC4/CapSense_Processing.c **** 
1591:Generated_Source\PSoC4/CapSense_Processing.c ****         /* Sensor state changed ? */
1592:Generated_Source\PSoC4/CapSense_Processing.c ****         if (newStatus != (currStatus & snsMask))
1593:Generated_Source\PSoC4/CapSense_Processing.c ****         {
1594:Generated_Source\PSoC4/CapSense_Processing.c ****             /* Decrement de-bounce counter */
1595:Generated_Source\PSoC4/CapSense_Processing.c ****             (*ptrDebounceCnt)--;
1596:Generated_Source\PSoC4/CapSense_Processing.c ****         }
1597:Generated_Source\PSoC4/CapSense_Processing.c **** 
1598:Generated_Source\PSoC4/CapSense_Processing.c ****         /*
1599:Generated_Source\PSoC4/CapSense_Processing.c ****         *  This piece of code has two objectives:
1600:Generated_Source\PSoC4/CapSense_Processing.c ****         *  1. Reset de-bounce counter if new sensor state has not changed.
1601:Generated_Source\PSoC4/CapSense_Processing.c ****         *     (It is possible that during previous processing cycles the sensor
1602:Generated_Source\PSoC4/CapSense_Processing.c ****         *     state was different which caused de-bounce counter change.)
1603:Generated_Source\PSoC4/CapSense_Processing.c ****         *  2. Set new sensor state after successful de-bounce.
1604:Generated_Source\PSoC4/CapSense_Processing.c ****         */
1605:Generated_Source\PSoC4/CapSense_Processing.c ****         if ((newStatus == (currStatus & snsMask)) || (0u == (*ptrDebounceCnt)))
1606:Generated_Source\PSoC4/CapSense_Processing.c ****         {
1607:Generated_Source\PSoC4/CapSense_Processing.c ****             /* Set new sensor status */
1608:Generated_Source\PSoC4/CapSense_Processing.c ****             currStatus &= ~snsMask;
1609:Generated_Source\PSoC4/CapSense_Processing.c ****             currStatus |= newStatus;
1610:Generated_Source\PSoC4/CapSense_Processing.c **** 
1611:Generated_Source\PSoC4/CapSense_Processing.c ****             /* Reset de-bounce counter */
1612:Generated_Source\PSoC4/CapSense_Processing.c ****             #if (0u != CapSense_OFF_DEBOUNCE_EN)
1613:Generated_Source\PSoC4/CapSense_Processing.c ****                 *ptrDebounceCnt = (0Lu == newStatus) ? ptrRamWdgt->onDebounce : ptrRamWdgt->offDebo
1614:Generated_Source\PSoC4/CapSense_Processing.c ****             #else
1615:Generated_Source\PSoC4/CapSense_Processing.c ****                 *ptrDebounceCnt = (0Lu == newStatus) ? ptrRamWdgt->onDebounce : DEFAULT_OFF_DEBOUNC
1616:Generated_Source\PSoC4/CapSense_Processing.c ****             #endif /* #if (0u != CapSense_OFF_DEBOUNCE_EN) */
1617:Generated_Source\PSoC4/CapSense_Processing.c ****         }
1618:Generated_Source\PSoC4/CapSense_Processing.c **** 
1619:Generated_Source\PSoC4/CapSense_Processing.c ****         ptrDebounceCnt++;
1620:Generated_Source\PSoC4/CapSense_Processing.c **** 
ARM GAS  C:\Users\inspiron\AppData\Local\Temp\ccn8daOc.s 			page 36


1621:Generated_Source\PSoC4/CapSense_Processing.c ****         /* Move sensor mask to the next sensor */
1622:Generated_Source\PSoC4/CapSense_Processing.c ****         snsMask <<= 1u;
1623:Generated_Source\PSoC4/CapSense_Processing.c ****     }
1624:Generated_Source\PSoC4/CapSense_Processing.c **** 
1625:Generated_Source\PSoC4/CapSense_Processing.c ****     return currStatus;
1626:Generated_Source\PSoC4/CapSense_Processing.c **** }
1627:Generated_Source\PSoC4/CapSense_Processing.c **** #endif /* (0u != CapSense_PROXIMITY_WIDGET_EN) */
1628:Generated_Source\PSoC4/CapSense_Processing.c **** 
1629:Generated_Source\PSoC4/CapSense_Processing.c **** 
1630:Generated_Source\PSoC4/CapSense_Processing.c **** #if (0u != CapSense_ENCODERDIAL_WIDGET_EN)
1631:Generated_Source\PSoC4/CapSense_Processing.c **** /*******************************************************************************
1632:Generated_Source\PSoC4/CapSense_Processing.c **** * Function Name: CapSense_DpProcessEncoderDial
1633:Generated_Source\PSoC4/CapSense_Processing.c **** ****************************************************************************//**
1634:Generated_Source\PSoC4/CapSense_Processing.c **** *
1635:Generated_Source\PSoC4/CapSense_Processing.c **** * \brief
1636:Generated_Source\PSoC4/CapSense_Processing.c **** *   Processes the status of the Encoder Dial widget.
1637:Generated_Source\PSoC4/CapSense_Processing.c **** *
1638:Generated_Source\PSoC4/CapSense_Processing.c **** * \details
1639:Generated_Source\PSoC4/CapSense_Processing.c **** *   This API processes the status of the Encoder Dial Widget. It applies the
1640:Generated_Source\PSoC4/CapSense_Processing.c **** *   hysteresis and debounce algorithm to each sensor difference value.
1641:Generated_Source\PSoC4/CapSense_Processing.c **** *
1642:Generated_Source\PSoC4/CapSense_Processing.c **** *   This API is expected to be called after each new widget scan. If it is
1643:Generated_Source\PSoC4/CapSense_Processing.c **** *   called multiple times for the same scan data the debounce algorithm
1644:Generated_Source\PSoC4/CapSense_Processing.c **** *   will not work properly.
1645:Generated_Source\PSoC4/CapSense_Processing.c **** *
1646:Generated_Source\PSoC4/CapSense_Processing.c **** *   This function updates the position and numTurns data structure members.
1647:Generated_Source\PSoC4/CapSense_Processing.c **** *
1648:Generated_Source\PSoC4/CapSense_Processing.c **** * \param currStatus   The value with the current widget status.
1649:Generated_Source\PSoC4/CapSense_Processing.c **** * \param ptrFlashWdgt The pointer to the Flash Widget Object.
1650:Generated_Source\PSoC4/CapSense_Processing.c **** *
1651:Generated_Source\PSoC4/CapSense_Processing.c **** * \return Returns the 4-bit status of the widget.
1652:Generated_Source\PSoC4/CapSense_Processing.c **** *
1653:Generated_Source\PSoC4/CapSense_Processing.c **** *******************************************************************************/
1654:Generated_Source\PSoC4/CapSense_Processing.c **** uint32 CapSense_DpProcessEncoderDial(uint32 currStatus, CapSense_FLASH_WD_STRUCT const *ptrFlashWdg
1655:Generated_Source\PSoC4/CapSense_Processing.c **** {
1656:Generated_Source\PSoC4/CapSense_Processing.c ****     uint32 currTh;
1657:Generated_Source\PSoC4/CapSense_Processing.c ****     uint32 snsCnt;
1658:Generated_Source\PSoC4/CapSense_Processing.c ****     uint32 snsMask;
1659:Generated_Source\PSoC4/CapSense_Processing.c ****     uint32 newStatus;
1660:Generated_Source\PSoC4/CapSense_Processing.c ****     uint32 difference;
1661:Generated_Source\PSoC4/CapSense_Processing.c ****     uint32 historicStatus;
1662:Generated_Source\PSoC4/CapSense_Processing.c **** 
1663:Generated_Source\PSoC4/CapSense_Processing.c ****     uint8 *ptrDebounceCnt;
1664:Generated_Source\PSoC4/CapSense_Processing.c ****     CapSense_RAM_SNS_STRUCT *ptrSnsTmp;
1665:Generated_Source\PSoC4/CapSense_Processing.c ****     CapSense_RAM_WD_ENCODERDIAL_STRUCT *ptrRamWdgt;
1666:Generated_Source\PSoC4/CapSense_Processing.c **** 
1667:Generated_Source\PSoC4/CapSense_Processing.c ****     ptrSnsTmp = ptrFlashWdgt->ptr2SnsRam;
1668:Generated_Source\PSoC4/CapSense_Processing.c ****     ptrRamWdgt = (CapSense_RAM_WD_ENCODERDIAL_STRUCT *)ptrFlashWdgt->ptr2WdgtRam;
1669:Generated_Source\PSoC4/CapSense_Processing.c ****     ptrDebounceCnt = ptrFlashWdgt->ptr2DebounceArr;
1670:Generated_Source\PSoC4/CapSense_Processing.c **** 
1671:Generated_Source\PSoC4/CapSense_Processing.c ****     /* Get number of sensors. */
1672:Generated_Source\PSoC4/CapSense_Processing.c ****     snsCnt = (uint32)ptrFlashWdgt->totalNumSns;
1673:Generated_Source\PSoC4/CapSense_Processing.c **** 
1674:Generated_Source\PSoC4/CapSense_Processing.c ****     /* Put current status in encoder history position */
1675:Generated_Source\PSoC4/CapSense_Processing.c ****     currStatus = currStatus & 0x3u;
1676:Generated_Source\PSoC4/CapSense_Processing.c ****     historicStatus = currStatus << 2u;
1677:Generated_Source\PSoC4/CapSense_Processing.c ****     /* Go through all sensors' status bits */
ARM GAS  C:\Users\inspiron\AppData\Local\Temp\ccn8daOc.s 			page 37


1678:Generated_Source\PSoC4/CapSense_Processing.c ****     snsMask = 1Lu;
1679:Generated_Source\PSoC4/CapSense_Processing.c ****     for (; snsCnt-- > 0u;)
1680:Generated_Source\PSoC4/CapSense_Processing.c ****     {
1681:Generated_Source\PSoC4/CapSense_Processing.c ****         difference = ptrSnsTmp->diff;
1682:Generated_Source\PSoC4/CapSense_Processing.c **** 
1683:Generated_Source\PSoC4/CapSense_Processing.c ****         /* Determine current threshold. */
1684:Generated_Source\PSoC4/CapSense_Processing.c ****         currTh = ptrRamWdgt->fingerTh;
1685:Generated_Source\PSoC4/CapSense_Processing.c **** 
1686:Generated_Source\PSoC4/CapSense_Processing.c ****         /* Calculate finger threshold applying hysteresis based on current sensor state. */
1687:Generated_Source\PSoC4/CapSense_Processing.c ****         currTh = (0u == (currStatus & snsMask)) ? (currTh + ptrRamWdgt->hysteresis) : (currTh - ptr
1688:Generated_Source\PSoC4/CapSense_Processing.c **** 
1689:Generated_Source\PSoC4/CapSense_Processing.c ****         /* Determine new potential sensor state before de-bounce */
1690:Generated_Source\PSoC4/CapSense_Processing.c ****         newStatus = (difference > currTh) ? snsMask : 0Lu;
1691:Generated_Source\PSoC4/CapSense_Processing.c **** 
1692:Generated_Source\PSoC4/CapSense_Processing.c ****         /* Sensor state changed ? */
1693:Generated_Source\PSoC4/CapSense_Processing.c ****         if (newStatus != (currStatus & snsMask))
1694:Generated_Source\PSoC4/CapSense_Processing.c ****         {
1695:Generated_Source\PSoC4/CapSense_Processing.c ****             /* Decrement de-bounce counter */
1696:Generated_Source\PSoC4/CapSense_Processing.c ****             (*ptrDebounceCnt)--;
1697:Generated_Source\PSoC4/CapSense_Processing.c ****         }
1698:Generated_Source\PSoC4/CapSense_Processing.c **** 
1699:Generated_Source\PSoC4/CapSense_Processing.c ****         /*
1700:Generated_Source\PSoC4/CapSense_Processing.c ****         *  This piece of code has two objectives:
1701:Generated_Source\PSoC4/CapSense_Processing.c ****         *  1. Reset de-bounce counter if new sensor state has not changed.
1702:Generated_Source\PSoC4/CapSense_Processing.c ****         *     (It is possible that during previous processing cycles the sensor
1703:Generated_Source\PSoC4/CapSense_Processing.c ****         *     state was different which caused de-bounce counter change.)
1704:Generated_Source\PSoC4/CapSense_Processing.c ****         *  2. Set new sensor state after successful de-bounce.
1705:Generated_Source\PSoC4/CapSense_Processing.c ****         */
1706:Generated_Source\PSoC4/CapSense_Processing.c ****         if ((newStatus == (currStatus & snsMask)) || (0u == (*ptrDebounceCnt)))
1707:Generated_Source\PSoC4/CapSense_Processing.c ****         {
1708:Generated_Source\PSoC4/CapSense_Processing.c ****             /* Set new sensor status */
1709:Generated_Source\PSoC4/CapSense_Processing.c ****             currStatus &= ~snsMask;
1710:Generated_Source\PSoC4/CapSense_Processing.c ****             currStatus |= newStatus;
1711:Generated_Source\PSoC4/CapSense_Processing.c **** 
1712:Generated_Source\PSoC4/CapSense_Processing.c ****             /* Reset de-bounce counter */
1713:Generated_Source\PSoC4/CapSense_Processing.c ****             #if (0u != CapSense_OFF_DEBOUNCE_EN)
1714:Generated_Source\PSoC4/CapSense_Processing.c ****                 *ptrDebounceCnt = (0Lu == newStatus) ? ptrRamWdgt->onDebounce : ptrRamWdgt->offDebo
1715:Generated_Source\PSoC4/CapSense_Processing.c ****             #else
1716:Generated_Source\PSoC4/CapSense_Processing.c ****                 *ptrDebounceCnt = ptrRamWdgt->onDebounce;
1717:Generated_Source\PSoC4/CapSense_Processing.c ****             #endif /* #if (0u != CapSense_OFF_DEBOUNCE_EN) */
1718:Generated_Source\PSoC4/CapSense_Processing.c ****         }
1719:Generated_Source\PSoC4/CapSense_Processing.c **** 
1720:Generated_Source\PSoC4/CapSense_Processing.c ****         ptrDebounceCnt++;
1721:Generated_Source\PSoC4/CapSense_Processing.c **** 
1722:Generated_Source\PSoC4/CapSense_Processing.c ****         /* Move sensor mask to the next sensor */
1723:Generated_Source\PSoC4/CapSense_Processing.c ****         snsMask <<= 1u;
1724:Generated_Source\PSoC4/CapSense_Processing.c ****         ptrSnsTmp++;
1725:Generated_Source\PSoC4/CapSense_Processing.c ****     }
1726:Generated_Source\PSoC4/CapSense_Processing.c **** 
1727:Generated_Source\PSoC4/CapSense_Processing.c ****     currStatus |= historicStatus;
1728:Generated_Source\PSoC4/CapSense_Processing.c **** 
1729:Generated_Source\PSoC4/CapSense_Processing.c ****     /* Update dial position based on status */
1730:Generated_Source\PSoC4/CapSense_Processing.c ****     switch (currStatus)
1731:Generated_Source\PSoC4/CapSense_Processing.c ****     {
1732:Generated_Source\PSoC4/CapSense_Processing.c ****     /* Clockwise rotations */
1733:Generated_Source\PSoC4/CapSense_Processing.c ****     case CapSense_DIALTRANSITION_CW0:
1734:Generated_Source\PSoC4/CapSense_Processing.c ****     case CapSense_DIALTRANSITION_CW1:
ARM GAS  C:\Users\inspiron\AppData\Local\Temp\ccn8daOc.s 			page 38


1735:Generated_Source\PSoC4/CapSense_Processing.c ****     case CapSense_DIALTRANSITION_CW2:
1736:Generated_Source\PSoC4/CapSense_Processing.c ****     case CapSense_DIALTRANSITION_CW3:
1737:Generated_Source\PSoC4/CapSense_Processing.c **** 
1738:Generated_Source\PSoC4/CapSense_Processing.c ****         /* Decrement angle by 90/numTargs */
1739:Generated_Source\PSoC4/CapSense_Processing.c ****         if(ptrRamWdgt->position[0] == 0u)
1740:Generated_Source\PSoC4/CapSense_Processing.c ****         {
1741:Generated_Source\PSoC4/CapSense_Processing.c ****             ptrRamWdgt->position[0] = 0xffffu; /* Underflow without setting flag */
1742:Generated_Source\PSoC4/CapSense_Processing.c ****         }
1743:Generated_Source\PSoC4/CapSense_Processing.c ****         else
1744:Generated_Source\PSoC4/CapSense_Processing.c ****         {
1745:Generated_Source\PSoC4/CapSense_Processing.c ****             ptrRamWdgt->position[0] -= 1u;
1746:Generated_Source\PSoC4/CapSense_Processing.c ****         }
1747:Generated_Source\PSoC4/CapSense_Processing.c ****         break;
1748:Generated_Source\PSoC4/CapSense_Processing.c ****     /* Counterclockwise rotations */
1749:Generated_Source\PSoC4/CapSense_Processing.c ****     case CapSense_DIALTRANSITION_CCW0:
1750:Generated_Source\PSoC4/CapSense_Processing.c ****     case CapSense_DIALTRANSITION_CCW1:
1751:Generated_Source\PSoC4/CapSense_Processing.c ****     case CapSense_DIALTRANSITION_CCW2:
1752:Generated_Source\PSoC4/CapSense_Processing.c ****     case CapSense_DIALTRANSITION_CCW3:
1753:Generated_Source\PSoC4/CapSense_Processing.c **** 
1754:Generated_Source\PSoC4/CapSense_Processing.c ****         /* Increment angle by 90/numTargs */
1755:Generated_Source\PSoC4/CapSense_Processing.c ****         if(ptrRamWdgt->position[0] == 0xffffu)
1756:Generated_Source\PSoC4/CapSense_Processing.c ****         {
1757:Generated_Source\PSoC4/CapSense_Processing.c ****             ptrRamWdgt->position[0] = 0u; /* Overflow without setting flag */
1758:Generated_Source\PSoC4/CapSense_Processing.c ****         }
1759:Generated_Source\PSoC4/CapSense_Processing.c ****         else
1760:Generated_Source\PSoC4/CapSense_Processing.c ****         {
1761:Generated_Source\PSoC4/CapSense_Processing.c ****             ptrRamWdgt->position[0] += 1u;
1762:Generated_Source\PSoC4/CapSense_Processing.c ****         }
1763:Generated_Source\PSoC4/CapSense_Processing.c ****         break;
1764:Generated_Source\PSoC4/CapSense_Processing.c ****     /* No rotation */
1765:Generated_Source\PSoC4/CapSense_Processing.c ****     default:
1766:Generated_Source\PSoC4/CapSense_Processing.c ****         break;
1767:Generated_Source\PSoC4/CapSense_Processing.c ****     }
1768:Generated_Source\PSoC4/CapSense_Processing.c ****     return currStatus;
1769:Generated_Source\PSoC4/CapSense_Processing.c **** }
1770:Generated_Source\PSoC4/CapSense_Processing.c **** #endif /* #if (0u != CapSense_ENCODERDIAL_WIDGET_EN) */
1771:Generated_Source\PSoC4/CapSense_Processing.c **** 
1772:Generated_Source\PSoC4/CapSense_Processing.c **** #if (0u != CapSense_SLIDER_WIDGET_EN)
1773:Generated_Source\PSoC4/CapSense_Processing.c **** /*******************************************************************************
1774:Generated_Source\PSoC4/CapSense_Processing.c **** * Function Name: CapSense_DpProcessSlider
1775:Generated_Source\PSoC4/CapSense_Processing.c **** ****************************************************************************//**
1776:Generated_Source\PSoC4/CapSense_Processing.c **** *
1777:Generated_Source\PSoC4/CapSense_Processing.c **** * \brief
1778:Generated_Source\PSoC4/CapSense_Processing.c **** *   Processes the status of the Linear/Radial Slider widget.
1779:Generated_Source\PSoC4/CapSense_Processing.c **** *   The process involves running the Linear/Radial Centroid algorithm.
1780:Generated_Source\PSoC4/CapSense_Processing.c **** *
1781:Generated_Source\PSoC4/CapSense_Processing.c **** * \details
1782:Generated_Source\PSoC4/CapSense_Processing.c **** *   This API processes the status of the CSD Slider widget (Linear and Radial).
1783:Generated_Source\PSoC4/CapSense_Processing.c **** *   It applies the hysteresis and de-bounce algorithm to the widget ignoring
1784:Generated_Source\PSoC4/CapSense_Processing.c **** *   the individual states of the sensors.
1785:Generated_Source\PSoC4/CapSense_Processing.c **** *
1786:Generated_Source\PSoC4/CapSense_Processing.c **** *   This API is expected to be called after each new widget scan. If it is
1787:Generated_Source\PSoC4/CapSense_Processing.c **** *   called multiple times for the same scan data, the debounce algorithm
1788:Generated_Source\PSoC4/CapSense_Processing.c **** *   will not work properly.
1789:Generated_Source\PSoC4/CapSense_Processing.c **** *
1790:Generated_Source\PSoC4/CapSense_Processing.c **** *   Slider widgets do not support the ON to OFF debounce.
1791:Generated_Source\PSoC4/CapSense_Processing.c **** *
ARM GAS  C:\Users\inspiron\AppData\Local\Temp\ccn8daOc.s 			page 39


1792:Generated_Source\PSoC4/CapSense_Processing.c **** *   This API does not update any Data Structure registers
1793:Generated_Source\PSoC4/CapSense_Processing.c **** *   except the debounce counters.
1794:Generated_Source\PSoC4/CapSense_Processing.c **** *
1795:Generated_Source\PSoC4/CapSense_Processing.c **** * \param currStatus   The current sensor status of the Slider widget.
1796:Generated_Source\PSoC4/CapSense_Processing.c **** * \param ptrFlashWdgt The pointer to the Flash Widget Object.
1797:Generated_Source\PSoC4/CapSense_Processing.c **** *
1798:Generated_Source\PSoC4/CapSense_Processing.c **** * \return Returns the status of the widget's sensors. Bit #0 - corresponds to Sensor #0.
1799:Generated_Source\PSoC4/CapSense_Processing.c **** *
1800:Generated_Source\PSoC4/CapSense_Processing.c **** *******************************************************************************/
1801:Generated_Source\PSoC4/CapSense_Processing.c **** uint32 CapSense_DpProcessSlider(uint32 currStatus, CapSense_FLASH_WD_STRUCT const *ptrFlashWdgt)
1802:Generated_Source\PSoC4/CapSense_Processing.c **** {
1803:Generated_Source\PSoC4/CapSense_Processing.c ****     uint32 snsCnt;
1804:Generated_Source\PSoC4/CapSense_Processing.c ****     uint32 snsMask;
1805:Generated_Source\PSoC4/CapSense_Processing.c ****     uint32 touchTh;
1806:Generated_Source\PSoC4/CapSense_Processing.c ****     uint32 newStatus = 0Lu;
1807:Generated_Source\PSoC4/CapSense_Processing.c ****     uint8 * ptrDebounceCnt;
1808:Generated_Source\PSoC4/CapSense_Processing.c ****     CapSense_RAM_SNS_STRUCT *ptrSnsTmp;
1809:Generated_Source\PSoC4/CapSense_Processing.c ****     CapSense_RAM_WD_SLIDER_STRUCT *ptrRamWdgt;
1810:Generated_Source\PSoC4/CapSense_Processing.c **** 
1811:Generated_Source\PSoC4/CapSense_Processing.c ****     #if (0u != CapSense_POSITION_FILTER_EN)
1812:Generated_Source\PSoC4/CapSense_Processing.c ****         CapSense_SLIDER_POS_HISTORY_STRUCT *ptrHistory;
1813:Generated_Source\PSoC4/CapSense_Processing.c ****     #endif /* #if (0u != CapSense_POSITION_FILTER_EN) */
1814:Generated_Source\PSoC4/CapSense_Processing.c **** 
1815:Generated_Source\PSoC4/CapSense_Processing.c ****     uint32 touchIdx;
1816:Generated_Source\PSoC4/CapSense_Processing.c ****     uint32 touchCnt = 0Lu;
1817:Generated_Source\PSoC4/CapSense_Processing.c ****     uint16 newPos[CapSense_NUM_CENTROIDS];
1818:Generated_Source\PSoC4/CapSense_Processing.c **** 
1819:Generated_Source\PSoC4/CapSense_Processing.c ****     snsCnt = ptrFlashWdgt->totalNumSns;
1820:Generated_Source\PSoC4/CapSense_Processing.c ****     ptrSnsTmp = ptrFlashWdgt->ptr2SnsRam;
1821:Generated_Source\PSoC4/CapSense_Processing.c ****     ptrRamWdgt = (CapSense_RAM_WD_SLIDER_STRUCT *)ptrFlashWdgt->ptr2WdgtRam;
1822:Generated_Source\PSoC4/CapSense_Processing.c ****     ptrDebounceCnt = ptrFlashWdgt->ptr2DebounceArr;
1823:Generated_Source\PSoC4/CapSense_Processing.c **** 
1824:Generated_Source\PSoC4/CapSense_Processing.c ****     #if (0u != CapSense_POSITION_FILTER_EN)
1825:Generated_Source\PSoC4/CapSense_Processing.c ****         ptrHistory = ptrFlashWdgt->ptr2PosHistory;
1826:Generated_Source\PSoC4/CapSense_Processing.c ****     #endif /* #if (0u != CapSense_POSITION_FILTER_EN) */
1827:Generated_Source\PSoC4/CapSense_Processing.c **** 
1828:Generated_Source\PSoC4/CapSense_Processing.c ****     /* Calculate touch threshold based on current slider state */
1829:Generated_Source\PSoC4/CapSense_Processing.c ****     touchTh = (0Lu == currStatus ) ?
1830:Generated_Source\PSoC4/CapSense_Processing.c ****               ((uint32)ptrRamWdgt->fingerTh + ptrRamWdgt->hysteresis) :
1831:Generated_Source\PSoC4/CapSense_Processing.c ****               ((uint32)ptrRamWdgt->fingerTh - ptrRamWdgt->hysteresis);
1832:Generated_Source\PSoC4/CapSense_Processing.c **** 
1833:Generated_Source\PSoC4/CapSense_Processing.c ****     /* Go through all widget's sensors */
1834:Generated_Source\PSoC4/CapSense_Processing.c ****     snsMask = 1Lu;
1835:Generated_Source\PSoC4/CapSense_Processing.c ****     for (; snsCnt-- > 0Lu; )
1836:Generated_Source\PSoC4/CapSense_Processing.c ****     {
1837:Generated_Source\PSoC4/CapSense_Processing.c ****         /* Determine new potential sensor state */
1838:Generated_Source\PSoC4/CapSense_Processing.c ****         newStatus |= (ptrSnsTmp->diff > touchTh) ? snsMask : 0Lu;
1839:Generated_Source\PSoC4/CapSense_Processing.c ****         ptrSnsTmp++;
1840:Generated_Source\PSoC4/CapSense_Processing.c **** 
1841:Generated_Source\PSoC4/CapSense_Processing.c ****         snsMask <<= 1u;
1842:Generated_Source\PSoC4/CapSense_Processing.c ****     }
1843:Generated_Source\PSoC4/CapSense_Processing.c **** 
1844:Generated_Source\PSoC4/CapSense_Processing.c ****     /* If widget is active, check whether debounce is needed */
1845:Generated_Source\PSoC4/CapSense_Processing.c ****     if (0Lu != newStatus)
1846:Generated_Source\PSoC4/CapSense_Processing.c ****     {
1847:Generated_Source\PSoC4/CapSense_Processing.c ****         if (0u < (*ptrDebounceCnt))
1848:Generated_Source\PSoC4/CapSense_Processing.c ****         {
ARM GAS  C:\Users\inspiron\AppData\Local\Temp\ccn8daOc.s 			page 40


1849:Generated_Source\PSoC4/CapSense_Processing.c ****             /* Decrement debounce counter */
1850:Generated_Source\PSoC4/CapSense_Processing.c ****             (*ptrDebounceCnt)--;
1851:Generated_Source\PSoC4/CapSense_Processing.c ****         }
1852:Generated_Source\PSoC4/CapSense_Processing.c **** 
1853:Generated_Source\PSoC4/CapSense_Processing.c ****         if (0u == (*ptrDebounceCnt))
1854:Generated_Source\PSoC4/CapSense_Processing.c ****         {
1855:Generated_Source\PSoC4/CapSense_Processing.c ****             /* Update slider sensor state when debounce completes */
1856:Generated_Source\PSoC4/CapSense_Processing.c ****             currStatus = newStatus;
1857:Generated_Source\PSoC4/CapSense_Processing.c ****         }
1858:Generated_Source\PSoC4/CapSense_Processing.c ****     }
1859:Generated_Source\PSoC4/CapSense_Processing.c ****     else
1860:Generated_Source\PSoC4/CapSense_Processing.c ****     {
1861:Generated_Source\PSoC4/CapSense_Processing.c ****         /* Reset debounce counter */
1862:Generated_Source\PSoC4/CapSense_Processing.c ****         *ptrDebounceCnt = ptrRamWdgt->onDebounce;
1863:Generated_Source\PSoC4/CapSense_Processing.c **** 
1864:Generated_Source\PSoC4/CapSense_Processing.c ****         /* Clear slider sensor state */
1865:Generated_Source\PSoC4/CapSense_Processing.c ****         currStatus = 0Lu;
1866:Generated_Source\PSoC4/CapSense_Processing.c ****     }
1867:Generated_Source\PSoC4/CapSense_Processing.c **** 
1868:Generated_Source\PSoC4/CapSense_Processing.c ****     /* Centroid processing */
1869:Generated_Source\PSoC4/CapSense_Processing.c ****     /* If there are active sensors after debounce run the centroid algorithm */
1870:Generated_Source\PSoC4/CapSense_Processing.c ****     if (0u != currStatus)
1871:Generated_Source\PSoC4/CapSense_Processing.c ****     {
1872:Generated_Source\PSoC4/CapSense_Processing.c ****         /* Centroid always uses the lowest finger threshold (minus hysteresis)
1873:Generated_Source\PSoC4/CapSense_Processing.c ****          * to produce same results for first and all consecutive invocations */
1874:Generated_Source\PSoC4/CapSense_Processing.c ****         touchTh = (uint32)ptrRamWdgt->fingerTh - ptrRamWdgt->hysteresis;
1875:Generated_Source\PSoC4/CapSense_Processing.c ****         snsCnt = ptrFlashWdgt->totalNumSns;
1876:Generated_Source\PSoC4/CapSense_Processing.c **** 
1877:Generated_Source\PSoC4/CapSense_Processing.c ****         #if (0u != CapSense_TOTAL_DIPLEXED_SLIDERS)
1878:Generated_Source\PSoC4/CapSense_Processing.c ****             if ((0u != (ptrFlashWdgt->staticConfig & CapSense_DIPLEXING_MASK)))
1879:Generated_Source\PSoC4/CapSense_Processing.c ****             {
1880:Generated_Source\PSoC4/CapSense_Processing.c ****                 /* Run local maximum search for duplexed slider */
1881:Generated_Source\PSoC4/CapSense_Processing.c ****                 touchCnt = CapSense_DpFindLocalMaxDiplex(
1882:Generated_Source\PSoC4/CapSense_Processing.c ****                                 ptrFlashWdgt->ptr2SnsRam, snsCnt, ptrFlashWdgt->ptr2DiplexTable, to
1883:Generated_Source\PSoC4/CapSense_Processing.c **** 
1884:Generated_Source\PSoC4/CapSense_Processing.c ****                 /* Centroid calculation API requires double sensor count for the diplexed sliders. 
1885:Generated_Source\PSoC4/CapSense_Processing.c ****                 snsCnt *= 2u;
1886:Generated_Source\PSoC4/CapSense_Processing.c ****             }
1887:Generated_Source\PSoC4/CapSense_Processing.c ****             else
1888:Generated_Source\PSoC4/CapSense_Processing.c ****             {
1889:Generated_Source\PSoC4/CapSense_Processing.c ****                 /* Run local maximum search for NON-duplexed slider */
1890:Generated_Source\PSoC4/CapSense_Processing.c ****                 #if (CapSense_ENABLE == CapSense_4PTS_LOCAL_MAX_EN)
1891:Generated_Source\PSoC4/CapSense_Processing.c ****                     touchCnt = CapSense_DpFindLocalMaxSd4pts(ptrFlashWdgt, ptrFlashWdgt->ptr2SnsRam
1892:Generated_Source\PSoC4/CapSense_Processing.c ****                 #else
1893:Generated_Source\PSoC4/CapSense_Processing.c ****                     touchCnt = CapSense_DpFindLocalMaxSd(ptrFlashWdgt->ptr2SnsRam, snsCnt, touchTh)
1894:Generated_Source\PSoC4/CapSense_Processing.c ****                 #endif
1895:Generated_Source\PSoC4/CapSense_Processing.c ****             }
1896:Generated_Source\PSoC4/CapSense_Processing.c ****         #else
1897:Generated_Source\PSoC4/CapSense_Processing.c ****             /* Run local maximum search for NON-duplexed slider */
1898:Generated_Source\PSoC4/CapSense_Processing.c ****             #if (CapSense_ENABLE == CapSense_4PTS_LOCAL_MAX_EN)
1899:Generated_Source\PSoC4/CapSense_Processing.c ****                 touchCnt = CapSense_DpFindLocalMaxSd4pts(ptrFlashWdgt, ptrFlashWdgt->ptr2SnsRam, sn
1900:Generated_Source\PSoC4/CapSense_Processing.c ****             #else
1901:Generated_Source\PSoC4/CapSense_Processing.c ****                 touchCnt = CapSense_DpFindLocalMaxSd(ptrFlashWdgt->ptr2SnsRam, snsCnt, touchTh);
1902:Generated_Source\PSoC4/CapSense_Processing.c ****             #endif
1903:Generated_Source\PSoC4/CapSense_Processing.c ****         #endif /* #if (0u != CapSense_TOTAL_DIPLEXED_SLIDERS) */
1904:Generated_Source\PSoC4/CapSense_Processing.c **** 
1905:Generated_Source\PSoC4/CapSense_Processing.c ****         /* If at least one touch is detected */
ARM GAS  C:\Users\inspiron\AppData\Local\Temp\ccn8daOc.s 			page 41


1906:Generated_Source\PSoC4/CapSense_Processing.c ****         if (0u != touchCnt)
1907:Generated_Source\PSoC4/CapSense_Processing.c ****         {
1908:Generated_Source\PSoC4/CapSense_Processing.c ****             /* Determine slider type and calculate new position(s) */
1909:Generated_Source\PSoC4/CapSense_Processing.c ****             #if (0u != CapSense_TOTAL_LINEAR_SLIDERS)
1910:Generated_Source\PSoC4/CapSense_Processing.c ****                 if ((CapSense_WD_TYPE_ENUM)ptrFlashWdgt->wdgtType == CapSense_WD_LINEAR_SLIDER_E)
1911:Generated_Source\PSoC4/CapSense_Processing.c ****                 {
1912:Generated_Source\PSoC4/CapSense_Processing.c ****                     #if (CapSense_ENABLE == CapSense_SLIDER_MULT_METHOD)
1913:Generated_Source\PSoC4/CapSense_Processing.c ****                         touchCnt = CapSense_DpCalcLinearCentroid(newPos, (uint32)ptrFlashWdgt->xCen
1914:Generated_Source\PSoC4/CapSense_Processing.c ****                                     snsCnt, (uint32)(ptrFlashWdgt->xCentroidMultiplier >> 1));
1915:Generated_Source\PSoC4/CapSense_Processing.c ****                     #else
1916:Generated_Source\PSoC4/CapSense_Processing.c ****                         touchCnt = CapSense_DpCalcLinearCentroid(
1917:Generated_Source\PSoC4/CapSense_Processing.c ****                                         newPos, (uint32)ptrFlashWdgt->xCentroidMultiplier, snsCnt, 
1918:Generated_Source\PSoC4/CapSense_Processing.c ****                     #endif
1919:Generated_Source\PSoC4/CapSense_Processing.c ****                     DpUpdateLinSlider(newPos, touchCnt, ptrFlashWdgt, ptrRamWdgt);
1920:Generated_Source\PSoC4/CapSense_Processing.c ****                 }
1921:Generated_Source\PSoC4/CapSense_Processing.c ****             #endif /* #if (0u != CapSense_TOTAL_LINEAR_SLIDERS) */
1922:Generated_Source\PSoC4/CapSense_Processing.c **** 
1923:Generated_Source\PSoC4/CapSense_Processing.c ****             #if (0u != CapSense_TOTAL_RADIAL_SLIDERS)
1924:Generated_Source\PSoC4/CapSense_Processing.c ****                 if ((CapSense_WD_TYPE_ENUM)ptrFlashWdgt->wdgtType == CapSense_WD_RADIAL_SLIDER_E)
1925:Generated_Source\PSoC4/CapSense_Processing.c ****                 {
1926:Generated_Source\PSoC4/CapSense_Processing.c ****                     touchCnt = CapSense_DpCalcRadialCentroid(
1927:Generated_Source\PSoC4/CapSense_Processing.c ****                                     newPos, (uint32)ptrFlashWdgt->xCentroidMultiplier, snsCnt);
1928:Generated_Source\PSoC4/CapSense_Processing.c ****                     DpUpdateRadSlider(newPos, touchCnt, ptrFlashWdgt, ptrRamWdgt);
1929:Generated_Source\PSoC4/CapSense_Processing.c ****                 }
1930:Generated_Source\PSoC4/CapSense_Processing.c ****             #endif /* #if (0u != CapSense_TOTAL_RADIAL_SLIDERS) */
1931:Generated_Source\PSoC4/CapSense_Processing.c ****         }
1932:Generated_Source\PSoC4/CapSense_Processing.c ****     }
1933:Generated_Source\PSoC4/CapSense_Processing.c **** 
1934:Generated_Source\PSoC4/CapSense_Processing.c ****     /* Clear not active position data slots */
1935:Generated_Source\PSoC4/CapSense_Processing.c ****     for (touchIdx = touchCnt; touchIdx < CapSense_NUM_CENTROIDS; touchIdx++)
1936:Generated_Source\PSoC4/CapSense_Processing.c ****     {
1937:Generated_Source\PSoC4/CapSense_Processing.c ****         ptrRamWdgt->position[touchIdx] = CapSense_SLIDER_POS_NONE;
1938:Generated_Source\PSoC4/CapSense_Processing.c **** 
1939:Generated_Source\PSoC4/CapSense_Processing.c ****         #if (0u != CapSense_POSITION_FILTER_EN)
1940:Generated_Source\PSoC4/CapSense_Processing.c ****             if (NULL != ptrHistory)
1941:Generated_Source\PSoC4/CapSense_Processing.c ****             {
1942:Generated_Source\PSoC4/CapSense_Processing.c ****                 CapSense_InitPosFiltersSd(&ptrHistory[touchIdx], CapSense_SLIDER_POS_NONE);
1943:Generated_Source\PSoC4/CapSense_Processing.c ****             }
1944:Generated_Source\PSoC4/CapSense_Processing.c ****         #endif /* #if (0u != CapSense_POSITION_FILTER_EN) */
1945:Generated_Source\PSoC4/CapSense_Processing.c ****     }
1946:Generated_Source\PSoC4/CapSense_Processing.c **** 
1947:Generated_Source\PSoC4/CapSense_Processing.c ****     return currStatus;
1948:Generated_Source\PSoC4/CapSense_Processing.c **** }
1949:Generated_Source\PSoC4/CapSense_Processing.c **** #endif /* #if (0u != CapSense_SLIDER_WIDGET_EN) */
1950:Generated_Source\PSoC4/CapSense_Processing.c **** 
1951:Generated_Source\PSoC4/CapSense_Processing.c **** #if (0u != CapSense_TOTAL_LINEAR_SLIDERS)
1952:Generated_Source\PSoC4/CapSense_Processing.c **** /*******************************************************************************
1953:Generated_Source\PSoC4/CapSense_Processing.c **** * Function Name: DpUpdateLinSlider
1954:Generated_Source\PSoC4/CapSense_Processing.c **** ****************************************************************************//**
1955:Generated_Source\PSoC4/CapSense_Processing.c **** *
1956:Generated_Source\PSoC4/CapSense_Processing.c **** * \brief
1957:Generated_Source\PSoC4/CapSense_Processing.c **** *   Updates the touch status of the Linear Slider widget.
1958:Generated_Source\PSoC4/CapSense_Processing.c **** *
1959:Generated_Source\PSoC4/CapSense_Processing.c **** * \details
1960:Generated_Source\PSoC4/CapSense_Processing.c **** *   This function updates the position data of the Linear Slider
1961:Generated_Source\PSoC4/CapSense_Processing.c **** *   in the Data Structure. Also, this function runs position filters for the
1962:Generated_Source\PSoC4/CapSense_Processing.c **** *   position data if any enabled.
ARM GAS  C:\Users\inspiron\AppData\Local\Temp\ccn8daOc.s 			page 42


1963:Generated_Source\PSoC4/CapSense_Processing.c **** *
1964:Generated_Source\PSoC4/CapSense_Processing.c **** * \param newPos       The pointer to the array with the new finger position coordinates.
1965:Generated_Source\PSoC4/CapSense_Processing.c **** * \param numTouches   The number of the coordinates in the newPos array.
1966:Generated_Source\PSoC4/CapSense_Processing.c **** * \param ptrFlashWdgt The pointer to the Flash Widget Object.
1967:Generated_Source\PSoC4/CapSense_Processing.c **** * \param ptrRamWdgt   The pointer to the RAM Widget Object.
1968:Generated_Source\PSoC4/CapSense_Processing.c **** *
1969:Generated_Source\PSoC4/CapSense_Processing.c **** *******************************************************************************/
1970:Generated_Source\PSoC4/CapSense_Processing.c **** static CY_INLINE void DpUpdateLinSlider(
1971:Generated_Source\PSoC4/CapSense_Processing.c ****                         const uint16 newPos[],
1972:Generated_Source\PSoC4/CapSense_Processing.c ****                         uint32 numTouches,
1973:Generated_Source\PSoC4/CapSense_Processing.c ****                         CapSense_FLASH_WD_STRUCT const *ptrFlashWdgt,
1974:Generated_Source\PSoC4/CapSense_Processing.c ****                         CapSense_RAM_WD_SLIDER_STRUCT *ptrRamWdgt)
1975:Generated_Source\PSoC4/CapSense_Processing.c **** {
1976:Generated_Source\PSoC4/CapSense_Processing.c ****     uint32 touchIdx;
1977:Generated_Source\PSoC4/CapSense_Processing.c **** 
1978:Generated_Source\PSoC4/CapSense_Processing.c ****     #if (0u != CapSense_POS_AVERAGE_FILTER_EN)
1979:Generated_Source\PSoC4/CapSense_Processing.c ****         uint16 tempPosition;
1980:Generated_Source\PSoC4/CapSense_Processing.c ****     #endif /* (0u != CapSense_POS_AVERAGE_FILTER_EN) */
1981:Generated_Source\PSoC4/CapSense_Processing.c **** 
1982:Generated_Source\PSoC4/CapSense_Processing.c ****     #if (0u == CapSense_POSITION_FILTER_EN)
1983:Generated_Source\PSoC4/CapSense_Processing.c ****         /* This parameter is unused in such configurations */
1984:Generated_Source\PSoC4/CapSense_Processing.c ****         (void)ptrFlashWdgt;
1985:Generated_Source\PSoC4/CapSense_Processing.c ****     #else
1986:Generated_Source\PSoC4/CapSense_Processing.c ****         uint16 filteredPosition;
1987:Generated_Source\PSoC4/CapSense_Processing.c ****         /* Get bitmask with the enabled filters */
1988:Generated_Source\PSoC4/CapSense_Processing.c ****         uint32 filterConfig = (uint32)ptrFlashWdgt->staticConfig;
1989:Generated_Source\PSoC4/CapSense_Processing.c ****         /* Get pointer to the position filter history */
1990:Generated_Source\PSoC4/CapSense_Processing.c ****         CapSense_SLIDER_POS_HISTORY_STRUCT *ptrHistory = ptrFlashWdgt->ptr2PosHistory;
1991:Generated_Source\PSoC4/CapSense_Processing.c ****     #endif /* #if (0u == CapSense_POSITION_FILTER_EN) */
1992:Generated_Source\PSoC4/CapSense_Processing.c **** 
1993:Generated_Source\PSoC4/CapSense_Processing.c ****     #if (0u != CapSense_POS_ADAPTIVE_IIR_FILTER_EN)
1994:Generated_Source\PSoC4/CapSense_Processing.c ****         ADAPTIVE_FILTER_CONTEXT_STRUCT contextAIIR;
1995:Generated_Source\PSoC4/CapSense_Processing.c ****         uint16 emptyPosition = 0;
1996:Generated_Source\PSoC4/CapSense_Processing.c ****     #endif /* (0u != CapSense_POS_ADAPTIVE_IIR_FILTER_EN) */
1997:Generated_Source\PSoC4/CapSense_Processing.c **** 
1998:Generated_Source\PSoC4/CapSense_Processing.c ****     /* Run Filter and update the position registers with the filtered data */
1999:Generated_Source\PSoC4/CapSense_Processing.c ****     for (touchIdx = 0u; touchIdx < numTouches; touchIdx++)
2000:Generated_Source\PSoC4/CapSense_Processing.c ****     {
2001:Generated_Source\PSoC4/CapSense_Processing.c ****         #if (0u == CapSense_POSITION_FILTER_EN)
2002:Generated_Source\PSoC4/CapSense_Processing.c ****             /* If filters are not enabled just copy the position data */
2003:Generated_Source\PSoC4/CapSense_Processing.c ****             ptrRamWdgt->position[touchIdx] = newPos[touchIdx];
2004:Generated_Source\PSoC4/CapSense_Processing.c ****         #else
2005:Generated_Source\PSoC4/CapSense_Processing.c ****             filteredPosition = newPos[touchIdx];
2006:Generated_Source\PSoC4/CapSense_Processing.c **** 
2007:Generated_Source\PSoC4/CapSense_Processing.c ****             /* If there were no touch initialize the current position with new position data */
2008:Generated_Source\PSoC4/CapSense_Processing.c ****             if (ptrRamWdgt->position[touchIdx] == CapSense_SLIDER_POS_NONE)
2009:Generated_Source\PSoC4/CapSense_Processing.c ****             {
2010:Generated_Source\PSoC4/CapSense_Processing.c ****                 CapSense_InitPosFiltersSd(ptrHistory, filteredPosition);
2011:Generated_Source\PSoC4/CapSense_Processing.c ****             }
2012:Generated_Source\PSoC4/CapSense_Processing.c ****             else
2013:Generated_Source\PSoC4/CapSense_Processing.c ****             {
2014:Generated_Source\PSoC4/CapSense_Processing.c ****                 #if (0u != CapSense_POS_MEDIAN_FILTER_EN)
2015:Generated_Source\PSoC4/CapSense_Processing.c ****                     if (0u != (filterConfig & CapSense_POS_MEDIAN_FILTER_MASK))
2016:Generated_Source\PSoC4/CapSense_Processing.c ****                     {
2017:Generated_Source\PSoC4/CapSense_Processing.c ****                         filteredPosition = (uint16)CapSense_FtMedian((uint32)ptrHistory->posMedianZ
2018:Generated_Source\PSoC4/CapSense_Processing.c ****                                             (uint32)ptrHistory->posMedianZ1, (uint32)newPos[touchId
2019:Generated_Source\PSoC4/CapSense_Processing.c ****                         ptrHistory->posMedianZ2 = ptrHistory->posMedianZ1;
ARM GAS  C:\Users\inspiron\AppData\Local\Temp\ccn8daOc.s 			page 43


2020:Generated_Source\PSoC4/CapSense_Processing.c ****                         ptrHistory->posMedianZ1 = newPos[touchIdx];
2021:Generated_Source\PSoC4/CapSense_Processing.c ****                     }
2022:Generated_Source\PSoC4/CapSense_Processing.c ****                 #endif /* #if (0u != CapSense_POS_MEDIAN_FILTER_EN) */
2023:Generated_Source\PSoC4/CapSense_Processing.c **** 
2024:Generated_Source\PSoC4/CapSense_Processing.c ****                 #if (0u != CapSense_POS_IIR_FILTER_EN)
2025:Generated_Source\PSoC4/CapSense_Processing.c ****                     if (0u != (filterConfig & CapSense_POS_IIR_FILTER_MASK))
2026:Generated_Source\PSoC4/CapSense_Processing.c ****                     {
2027:Generated_Source\PSoC4/CapSense_Processing.c ****                         filteredPosition = (uint16)CapSense_FtIIR1stOrder((uint32)filteredPosition,
2028:Generated_Source\PSoC4/CapSense_Processing.c ****                                             (uint32)ptrFlashWdgt->iirFilterCoeff, 0uL);
2029:Generated_Source\PSoC4/CapSense_Processing.c ****                         ptrHistory->posIIR = filteredPosition;
2030:Generated_Source\PSoC4/CapSense_Processing.c ****                     }
2031:Generated_Source\PSoC4/CapSense_Processing.c ****                 #endif /* #if (0u != CapSense_POS_IIR_FILTER_EN) */
2032:Generated_Source\PSoC4/CapSense_Processing.c **** 
2033:Generated_Source\PSoC4/CapSense_Processing.c ****                 #if (0u != CapSense_POS_ADAPTIVE_IIR_FILTER_EN)
2034:Generated_Source\PSoC4/CapSense_Processing.c ****                     if (0u != (filterConfig & CapSense_AIIR_FILTER_MASK))
2035:Generated_Source\PSoC4/CapSense_Processing.c ****                     {
2036:Generated_Source\PSoC4/CapSense_Processing.c ****                         contextAIIR.previousX = ptrHistory->posAIIR;
2037:Generated_Source\PSoC4/CapSense_Processing.c ****                         contextAIIR.previousY = emptyPosition;
2038:Generated_Source\PSoC4/CapSense_Processing.c ****                         contextAIIR.coefficient = ptrHistory->posAIIRCoeff;
2039:Generated_Source\PSoC4/CapSense_Processing.c ****                         AdaptiveFilter_Run(&ptrRamWdgt->aiirConfig, &contextAIIR, &filteredPosition
2040:Generated_Source\PSoC4/CapSense_Processing.c ****                         ptrHistory->posAIIR = contextAIIR.previousX;
2041:Generated_Source\PSoC4/CapSense_Processing.c ****                         ptrHistory->posAIIRCoeff = contextAIIR.coefficient;
2042:Generated_Source\PSoC4/CapSense_Processing.c ****                     }
2043:Generated_Source\PSoC4/CapSense_Processing.c ****                 #endif /* (0u != CapSense_POS_ADAPTIVE_IIR_FILTER_EN) */
2044:Generated_Source\PSoC4/CapSense_Processing.c **** 
2045:Generated_Source\PSoC4/CapSense_Processing.c ****                 #if (0u != CapSense_POS_AVERAGE_FILTER_EN)
2046:Generated_Source\PSoC4/CapSense_Processing.c ****                     if (0u != (filterConfig & CapSense_POS_AVERAGE_FILTER_MASK))
2047:Generated_Source\PSoC4/CapSense_Processing.c ****                     {
2048:Generated_Source\PSoC4/CapSense_Processing.c ****                         tempPosition = filteredPosition;
2049:Generated_Source\PSoC4/CapSense_Processing.c ****                         filteredPosition = (uint16)(filteredPosition + ptrHistory->posAverage) >> 1
2050:Generated_Source\PSoC4/CapSense_Processing.c ****                         ptrHistory->posAverage = tempPosition;
2051:Generated_Source\PSoC4/CapSense_Processing.c ****                     }
2052:Generated_Source\PSoC4/CapSense_Processing.c ****                 #endif /* #if (0u != CapSense_POS_AVERAGE_FILTER_EN) */
2053:Generated_Source\PSoC4/CapSense_Processing.c **** 
2054:Generated_Source\PSoC4/CapSense_Processing.c ****                 #if (0u != CapSense_POS_JITTER_FILTER_EN)
2055:Generated_Source\PSoC4/CapSense_Processing.c ****                     if (0u != (filterConfig & CapSense_POS_JITTER_FILTER_MASK))
2056:Generated_Source\PSoC4/CapSense_Processing.c ****                     {
2057:Generated_Source\PSoC4/CapSense_Processing.c ****                         filteredPosition = (uint16)CapSense_FtJitter((uint32)filteredPosition, (uin
2058:Generated_Source\PSoC4/CapSense_Processing.c ****                         ptrHistory->posJitter = filteredPosition;
2059:Generated_Source\PSoC4/CapSense_Processing.c ****                     }
2060:Generated_Source\PSoC4/CapSense_Processing.c ****                 #endif /* #if (0u != CapSense_POS_JITTER_FILTER_EN) */
2061:Generated_Source\PSoC4/CapSense_Processing.c ****             }
2062:Generated_Source\PSoC4/CapSense_Processing.c **** 
2063:Generated_Source\PSoC4/CapSense_Processing.c ****             /* Update position data */
2064:Generated_Source\PSoC4/CapSense_Processing.c ****             ptrRamWdgt->position[touchIdx] = filteredPosition;
2065:Generated_Source\PSoC4/CapSense_Processing.c **** 
2066:Generated_Source\PSoC4/CapSense_Processing.c ****             ptrHistory = (NULL != ptrHistory) ? (ptrHistory + 1) : NULL;
2067:Generated_Source\PSoC4/CapSense_Processing.c ****         #endif /* (0u == CapSense_POSITION_FILTER_EN) */
2068:Generated_Source\PSoC4/CapSense_Processing.c ****     }
2069:Generated_Source\PSoC4/CapSense_Processing.c **** }
2070:Generated_Source\PSoC4/CapSense_Processing.c **** #endif /* #if (0u != CapSense_TOTAL_LINEAR_SLIDERS) */
2071:Generated_Source\PSoC4/CapSense_Processing.c **** 
2072:Generated_Source\PSoC4/CapSense_Processing.c **** 
2073:Generated_Source\PSoC4/CapSense_Processing.c **** #if (0u != CapSense_TOTAL_RADIAL_SLIDERS)
2074:Generated_Source\PSoC4/CapSense_Processing.c **** /*******************************************************************************
2075:Generated_Source\PSoC4/CapSense_Processing.c **** * Function Name: DpUpdateRadSlider
2076:Generated_Source\PSoC4/CapSense_Processing.c **** ****************************************************************************//**
ARM GAS  C:\Users\inspiron\AppData\Local\Temp\ccn8daOc.s 			page 44


2077:Generated_Source\PSoC4/CapSense_Processing.c **** *
2078:Generated_Source\PSoC4/CapSense_Processing.c **** * \brief
2079:Generated_Source\PSoC4/CapSense_Processing.c **** *   Filters the Radial Slider widget position.
2080:Generated_Source\PSoC4/CapSense_Processing.c **** *
2081:Generated_Source\PSoC4/CapSense_Processing.c **** * \details
2082:Generated_Source\PSoC4/CapSense_Processing.c **** *   This function updates the position data of the radial slider
2083:Generated_Source\PSoC4/CapSense_Processing.c **** *   in the Data Structure. Also, this function runs position filters for the
2084:Generated_Source\PSoC4/CapSense_Processing.c **** *   position data if any enabled.
2085:Generated_Source\PSoC4/CapSense_Processing.c **** *
2086:Generated_Source\PSoC4/CapSense_Processing.c **** *   The filtering algorithm takes into account that it is possible that new value
2087:Generated_Source\PSoC4/CapSense_Processing.c **** *   will cross the zero position so it adjusts the position data appropriately to
2088:Generated_Source\PSoC4/CapSense_Processing.c **** *   get the correct filtered value.
2089:Generated_Source\PSoC4/CapSense_Processing.c **** *
2090:Generated_Source\PSoC4/CapSense_Processing.c **** * \param newPos[]     The pointer to the array with new centroid position data.
2091:Generated_Source\PSoC4/CapSense_Processing.c **** * \param numTouches   The number of elements in the newPos array.
2092:Generated_Source\PSoC4/CapSense_Processing.c **** * \param ptrFlashWdgt The pointer to the Flash Widget Object.
2093:Generated_Source\PSoC4/CapSense_Processing.c **** * \param ptrRamWdgt   The pointer to the RAM Widget Object .
2094:Generated_Source\PSoC4/CapSense_Processing.c **** *
2095:Generated_Source\PSoC4/CapSense_Processing.c **** *******************************************************************************/
2096:Generated_Source\PSoC4/CapSense_Processing.c **** static CY_INLINE void DpUpdateRadSlider(
2097:Generated_Source\PSoC4/CapSense_Processing.c ****                         const uint16 newPos[], uint32 numTouches,
2098:Generated_Source\PSoC4/CapSense_Processing.c ****                         CapSense_FLASH_WD_STRUCT const *ptrFlashWdgt,
2099:Generated_Source\PSoC4/CapSense_Processing.c ****                         CapSense_RAM_WD_SLIDER_STRUCT *ptrRamWdgt)
2100:Generated_Source\PSoC4/CapSense_Processing.c **** {
2101:Generated_Source\PSoC4/CapSense_Processing.c ****     uint32 touchIdx;
2102:Generated_Source\PSoC4/CapSense_Processing.c **** 
2103:Generated_Source\PSoC4/CapSense_Processing.c ****     #if (0u != CapSense_POS_MEDIAN_FILTER_EN)
2104:Generated_Source\PSoC4/CapSense_Processing.c ****         uint16 z1;
2105:Generated_Source\PSoC4/CapSense_Processing.c ****         uint16 z2;
2106:Generated_Source\PSoC4/CapSense_Processing.c ****     #endif
2107:Generated_Source\PSoC4/CapSense_Processing.c **** 
2108:Generated_Source\PSoC4/CapSense_Processing.c ****     #if ((0u != CapSense_POS_IIR_FILTER_EN) || \
2109:Generated_Source\PSoC4/CapSense_Processing.c ****          (0u != CapSense_POS_ADAPTIVE_IIR_FILTER_EN))
2110:Generated_Source\PSoC4/CapSense_Processing.c ****         uint16 delta;
2111:Generated_Source\PSoC4/CapSense_Processing.c ****     #endif
2112:Generated_Source\PSoC4/CapSense_Processing.c **** 
2113:Generated_Source\PSoC4/CapSense_Processing.c ****     #if (0u != CapSense_POS_AVERAGE_FILTER_EN)
2114:Generated_Source\PSoC4/CapSense_Processing.c ****         uint16 tempPosition;
2115:Generated_Source\PSoC4/CapSense_Processing.c ****     #endif
2116:Generated_Source\PSoC4/CapSense_Processing.c **** 
2117:Generated_Source\PSoC4/CapSense_Processing.c ****     #if (0u != CapSense_POSITION_FILTER_EN)
2118:Generated_Source\PSoC4/CapSense_Processing.c ****         uint16 filteredPosition;
2119:Generated_Source\PSoC4/CapSense_Processing.c ****         /* Get resolution. The register contains max position value, so therefore it is increased b
2120:Generated_Source\PSoC4/CapSense_Processing.c ****         uint16 tempResolution = (ptrFlashWdgt->xResolution + 1u);
2121:Generated_Source\PSoC4/CapSense_Processing.c ****         uint16 resolutionHafl = (ptrFlashWdgt->xResolution + 1u) >> 1u;
2122:Generated_Source\PSoC4/CapSense_Processing.c ****         /* Get bitmask with the enabled filters */
2123:Generated_Source\PSoC4/CapSense_Processing.c ****         uint32 filterConfig = (uint32)ptrFlashWdgt->staticConfig;
2124:Generated_Source\PSoC4/CapSense_Processing.c ****         /* Get pointer to the position filter history */
2125:Generated_Source\PSoC4/CapSense_Processing.c ****         CapSense_SLIDER_POS_HISTORY_STRUCT *ptrHistory = ptrFlashWdgt->ptr2PosHistory;
2126:Generated_Source\PSoC4/CapSense_Processing.c ****     #endif
2127:Generated_Source\PSoC4/CapSense_Processing.c **** 
2128:Generated_Source\PSoC4/CapSense_Processing.c ****     #if (0u != CapSense_POS_ADAPTIVE_IIR_FILTER_EN)
2129:Generated_Source\PSoC4/CapSense_Processing.c ****         ADAPTIVE_FILTER_CONTEXT_STRUCT contextAIIR;
2130:Generated_Source\PSoC4/CapSense_Processing.c ****         uint16 emptyPosition = 0;
2131:Generated_Source\PSoC4/CapSense_Processing.c ****     #endif /* (0u != CapSense_POS_ADAPTIVE_IIR_FILTER_EN) */
2132:Generated_Source\PSoC4/CapSense_Processing.c **** 
2133:Generated_Source\PSoC4/CapSense_Processing.c ****     /* Run Filter and update the position registers with the filtered data */
ARM GAS  C:\Users\inspiron\AppData\Local\Temp\ccn8daOc.s 			page 45


2134:Generated_Source\PSoC4/CapSense_Processing.c ****     for (touchIdx = 0u; touchIdx < numTouches; touchIdx++)
2135:Generated_Source\PSoC4/CapSense_Processing.c ****     {
2136:Generated_Source\PSoC4/CapSense_Processing.c ****         #if (0u == CapSense_POSITION_FILTER_EN)
2137:Generated_Source\PSoC4/CapSense_Processing.c ****             /* If filters are not enabled just copy the position data */
2138:Generated_Source\PSoC4/CapSense_Processing.c ****             ptrRamWdgt->position[touchIdx] = newPos[touchIdx];
2139:Generated_Source\PSoC4/CapSense_Processing.c ****         #else
2140:Generated_Source\PSoC4/CapSense_Processing.c ****             filteredPosition = newPos[touchIdx];
2141:Generated_Source\PSoC4/CapSense_Processing.c **** 
2142:Generated_Source\PSoC4/CapSense_Processing.c ****             /* If there were no touch initialize the current position with new position data */
2143:Generated_Source\PSoC4/CapSense_Processing.c ****             if (ptrRamWdgt->position[touchIdx] == CapSense_SLIDER_POS_NONE)
2144:Generated_Source\PSoC4/CapSense_Processing.c ****             {
2145:Generated_Source\PSoC4/CapSense_Processing.c ****                 CapSense_InitPosFiltersSd(ptrHistory, filteredPosition);
2146:Generated_Source\PSoC4/CapSense_Processing.c ****             }
2147:Generated_Source\PSoC4/CapSense_Processing.c ****             else
2148:Generated_Source\PSoC4/CapSense_Processing.c ****             {
2149:Generated_Source\PSoC4/CapSense_Processing.c ****                 /*
2150:Generated_Source\PSoC4/CapSense_Processing.c ****                  * If new position crosses zero point in one or another direction the position vari
2151:Generated_Source\PSoC4/CapSense_Processing.c ****                  * is increased by the slider resolution. It is done for the proper filtering. For 
2152:Generated_Source\PSoC4/CapSense_Processing.c ****                  * yResolution = 100, currPosition = 95, newPosition = 5. If no actions are taken t
2153:Generated_Source\PSoC4/CapSense_Processing.c ****                  * will give value 50 - which is wrong. But if the position values are adusted as m
2154:Generated_Source\PSoC4/CapSense_Processing.c ****                  * newPosition eqaul 105 and the average will be 100. Later this filtered value wil
2155:Generated_Source\PSoC4/CapSense_Processing.c ****                  * cross the yResolution and it will end up with 0u - which is correct average resu
2156:Generated_Source\PSoC4/CapSense_Processing.c ****                  */
2157:Generated_Source\PSoC4/CapSense_Processing.c ****                 #if (0u != CapSense_POS_MEDIAN_FILTER_EN)
2158:Generated_Source\PSoC4/CapSense_Processing.c ****                     if (0u != (filterConfig & CapSense_POS_MEDIAN_FILTER_MASK))
2159:Generated_Source\PSoC4/CapSense_Processing.c ****                     {
2160:Generated_Source\PSoC4/CapSense_Processing.c ****                         /* Get the filter history for further zero-cross correction */
2161:Generated_Source\PSoC4/CapSense_Processing.c ****                         z1 = ptrHistory->posMedianZ1;
2162:Generated_Source\PSoC4/CapSense_Processing.c ****                         z2 = ptrHistory->posMedianZ2;
2163:Generated_Source\PSoC4/CapSense_Processing.c **** 
2164:Generated_Source\PSoC4/CapSense_Processing.c ****                         /* Preserve the filter history without zero-cross correction */
2165:Generated_Source\PSoC4/CapSense_Processing.c ****                         ptrHistory->posMedianZ2 = ptrHistory->posMedianZ1;
2166:Generated_Source\PSoC4/CapSense_Processing.c ****                         ptrHistory->posMedianZ1 = filteredPosition;
2167:Generated_Source\PSoC4/CapSense_Processing.c **** 
2168:Generated_Source\PSoC4/CapSense_Processing.c ****                         /* Perform zero-cross correction */
2169:Generated_Source\PSoC4/CapSense_Processing.c ****                         if (z1 > (resolutionHafl + filteredPosition))
2170:Generated_Source\PSoC4/CapSense_Processing.c ****                         {
2171:Generated_Source\PSoC4/CapSense_Processing.c ****                             filteredPosition += tempResolution;
2172:Generated_Source\PSoC4/CapSense_Processing.c ****                         }
2173:Generated_Source\PSoC4/CapSense_Processing.c ****                         if (filteredPosition > (resolutionHafl + z1))
2174:Generated_Source\PSoC4/CapSense_Processing.c ****                         {
2175:Generated_Source\PSoC4/CapSense_Processing.c ****                             z1 += tempResolution;
2176:Generated_Source\PSoC4/CapSense_Processing.c ****                             z2 += tempResolution;
2177:Generated_Source\PSoC4/CapSense_Processing.c ****                         }
2178:Generated_Source\PSoC4/CapSense_Processing.c ****                         if (z2 > (resolutionHafl + z1))
2179:Generated_Source\PSoC4/CapSense_Processing.c ****                         {
2180:Generated_Source\PSoC4/CapSense_Processing.c ****                             z1 += tempResolution;
2181:Generated_Source\PSoC4/CapSense_Processing.c ****                             filteredPosition += tempResolution;
2182:Generated_Source\PSoC4/CapSense_Processing.c ****                         }
2183:Generated_Source\PSoC4/CapSense_Processing.c ****                         if (z1 > (resolutionHafl + z2))
2184:Generated_Source\PSoC4/CapSense_Processing.c ****                         {
2185:Generated_Source\PSoC4/CapSense_Processing.c ****                             z2 += tempResolution;
2186:Generated_Source\PSoC4/CapSense_Processing.c ****                         }
2187:Generated_Source\PSoC4/CapSense_Processing.c **** 
2188:Generated_Source\PSoC4/CapSense_Processing.c ****                         /* Perform filtering */
2189:Generated_Source\PSoC4/CapSense_Processing.c ****                         filteredPosition = CapSense_FtMedian((uint32)z2, (uint32)z1, filteredPositi
2190:Generated_Source\PSoC4/CapSense_Processing.c **** 
ARM GAS  C:\Users\inspiron\AppData\Local\Temp\ccn8daOc.s 			page 46


2191:Generated_Source\PSoC4/CapSense_Processing.c ****                         /* Perform zero-cross correction of filtered position */
2192:Generated_Source\PSoC4/CapSense_Processing.c ****                         if (filteredPosition >= tempResolution)
2193:Generated_Source\PSoC4/CapSense_Processing.c ****                         {
2194:Generated_Source\PSoC4/CapSense_Processing.c ****                             filteredPosition -= tempResolution;
2195:Generated_Source\PSoC4/CapSense_Processing.c ****                         }
2196:Generated_Source\PSoC4/CapSense_Processing.c ****                     }
2197:Generated_Source\PSoC4/CapSense_Processing.c ****                 #endif /* #if (0u != CapSense_POS_MEDIAN_FILTER_EN) */
2198:Generated_Source\PSoC4/CapSense_Processing.c **** 
2199:Generated_Source\PSoC4/CapSense_Processing.c ****                 #if (0u != CapSense_POS_IIR_FILTER_EN)
2200:Generated_Source\PSoC4/CapSense_Processing.c ****                     if (0u != (filterConfig & CapSense_POS_IIR_FILTER_MASK))
2201:Generated_Source\PSoC4/CapSense_Processing.c ****                     {
2202:Generated_Source\PSoC4/CapSense_Processing.c ****                         /* Perform zero-cross correction */
2203:Generated_Source\PSoC4/CapSense_Processing.c ****                         if (ptrHistory->posIIR > (resolutionHafl + filteredPosition))
2204:Generated_Source\PSoC4/CapSense_Processing.c ****                         {
2205:Generated_Source\PSoC4/CapSense_Processing.c ****                             filteredPosition += tempResolution;
2206:Generated_Source\PSoC4/CapSense_Processing.c ****                         }
2207:Generated_Source\PSoC4/CapSense_Processing.c ****                         if (filteredPosition > (resolutionHafl + ptrHistory->posIIR))
2208:Generated_Source\PSoC4/CapSense_Processing.c ****                         {
2209:Generated_Source\PSoC4/CapSense_Processing.c ****                             ptrHistory->posIIR += tempResolution;
2210:Generated_Source\PSoC4/CapSense_Processing.c ****                         }
2211:Generated_Source\PSoC4/CapSense_Processing.c ****                         /*
2212:Generated_Source\PSoC4/CapSense_Processing.c ****                         * IIR filter can accumulate delay up to full circle and even more.
2213:Generated_Source\PSoC4/CapSense_Processing.c ****                         * This situation is not supported by the Component. If difference between
2214:Generated_Source\PSoC4/CapSense_Processing.c ****                         * between the new position and IIR filter history is bigher than
2215:Generated_Source\PSoC4/CapSense_Processing.c ****                         * CapSense_POS_IIR_RESET_RADIAL_SLIDER percent of circle
2216:Generated_Source\PSoC4/CapSense_Processing.c ****                         * then all enabled position filters are reset.
2217:Generated_Source\PSoC4/CapSense_Processing.c ****                         */
2218:Generated_Source\PSoC4/CapSense_Processing.c ****                         if (ptrHistory->posIIR > filteredPosition)
2219:Generated_Source\PSoC4/CapSense_Processing.c ****                         {
2220:Generated_Source\PSoC4/CapSense_Processing.c ****                             delta = ptrHistory->posIIR - filteredPosition;
2221:Generated_Source\PSoC4/CapSense_Processing.c ****                         }
2222:Generated_Source\PSoC4/CapSense_Processing.c ****                         else
2223:Generated_Source\PSoC4/CapSense_Processing.c ****                         {
2224:Generated_Source\PSoC4/CapSense_Processing.c ****                             delta = filteredPosition - ptrHistory->posIIR;
2225:Generated_Source\PSoC4/CapSense_Processing.c ****                         }
2226:Generated_Source\PSoC4/CapSense_Processing.c ****                         if (delta > ((tempResolution * CapSense_POS_IIR_RESET_RADIAL_SLIDER) / PERC
2227:Generated_Source\PSoC4/CapSense_Processing.c ****                         {
2228:Generated_Source\PSoC4/CapSense_Processing.c ****                             CapSense_InitPosFiltersSd(ptrHistory, filteredPosition);
2229:Generated_Source\PSoC4/CapSense_Processing.c ****                         }
2230:Generated_Source\PSoC4/CapSense_Processing.c ****                         else
2231:Generated_Source\PSoC4/CapSense_Processing.c ****                         {
2232:Generated_Source\PSoC4/CapSense_Processing.c ****                             /* Perform filtering */
2233:Generated_Source\PSoC4/CapSense_Processing.c ****                             filteredPosition = (uint16)CapSense_FtIIR1stOrder(filteredPosition, (ui
2234:Generated_Source\PSoC4/CapSense_Processing.c ****                                                 ptrFlashWdgt->iirFilterCoeff, 0u);
2235:Generated_Source\PSoC4/CapSense_Processing.c ****                         }
2236:Generated_Source\PSoC4/CapSense_Processing.c ****                         /* Perform zero-cross correction of filtered position */
2237:Generated_Source\PSoC4/CapSense_Processing.c ****                         if (filteredPosition >= tempResolution)
2238:Generated_Source\PSoC4/CapSense_Processing.c ****                         {
2239:Generated_Source\PSoC4/CapSense_Processing.c ****                             filteredPosition -= tempResolution;
2240:Generated_Source\PSoC4/CapSense_Processing.c ****                         }
2241:Generated_Source\PSoC4/CapSense_Processing.c ****                         ptrHistory->posIIR = filteredPosition;
2242:Generated_Source\PSoC4/CapSense_Processing.c ****                     }
2243:Generated_Source\PSoC4/CapSense_Processing.c ****                 #endif /* #if (0u != CapSense_POS_IIR_FILTER_EN) */
2244:Generated_Source\PSoC4/CapSense_Processing.c **** 
2245:Generated_Source\PSoC4/CapSense_Processing.c ****                 #if (0u != CapSense_POS_ADAPTIVE_IIR_FILTER_EN)
2246:Generated_Source\PSoC4/CapSense_Processing.c ****                     if (0u != (filterConfig & CapSense_AIIR_FILTER_MASK))
2247:Generated_Source\PSoC4/CapSense_Processing.c ****                     {
ARM GAS  C:\Users\inspiron\AppData\Local\Temp\ccn8daOc.s 			page 47


2248:Generated_Source\PSoC4/CapSense_Processing.c ****                         /* Perform zero-cross correction */
2249:Generated_Source\PSoC4/CapSense_Processing.c ****                         if (ptrHistory->posAIIR > (resolutionHafl + filteredPosition))
2250:Generated_Source\PSoC4/CapSense_Processing.c ****                         {
2251:Generated_Source\PSoC4/CapSense_Processing.c ****                             filteredPosition += tempResolution;
2252:Generated_Source\PSoC4/CapSense_Processing.c ****                         }
2253:Generated_Source\PSoC4/CapSense_Processing.c ****                         if (filteredPosition > (resolutionHafl + ptrHistory->posAIIR))
2254:Generated_Source\PSoC4/CapSense_Processing.c ****                         {
2255:Generated_Source\PSoC4/CapSense_Processing.c ****                             ptrHistory->posAIIR += tempResolution;
2256:Generated_Source\PSoC4/CapSense_Processing.c ****                         }
2257:Generated_Source\PSoC4/CapSense_Processing.c ****                         if (ptrHistory->posAIIR > filteredPosition)
2258:Generated_Source\PSoC4/CapSense_Processing.c ****                         {
2259:Generated_Source\PSoC4/CapSense_Processing.c ****                             delta = ptrHistory->posAIIR - filteredPosition;
2260:Generated_Source\PSoC4/CapSense_Processing.c ****                         }
2261:Generated_Source\PSoC4/CapSense_Processing.c ****                         else
2262:Generated_Source\PSoC4/CapSense_Processing.c ****                         {
2263:Generated_Source\PSoC4/CapSense_Processing.c ****                             delta = filteredPosition - ptrHistory->posAIIR;
2264:Generated_Source\PSoC4/CapSense_Processing.c ****                         }
2265:Generated_Source\PSoC4/CapSense_Processing.c ****                         if (delta > ((tempResolution * CapSense_POS_IIR_RESET_RADIAL_SLIDER) / PERC
2266:Generated_Source\PSoC4/CapSense_Processing.c ****                         {
2267:Generated_Source\PSoC4/CapSense_Processing.c ****                             CapSense_InitPosFiltersSd(ptrHistory, filteredPosition);
2268:Generated_Source\PSoC4/CapSense_Processing.c ****                         }
2269:Generated_Source\PSoC4/CapSense_Processing.c ****                         else
2270:Generated_Source\PSoC4/CapSense_Processing.c ****                         {
2271:Generated_Source\PSoC4/CapSense_Processing.c ****                             contextAIIR.previousX = ptrHistory->posAIIR;
2272:Generated_Source\PSoC4/CapSense_Processing.c ****                             contextAIIR.previousY = emptyPosition;
2273:Generated_Source\PSoC4/CapSense_Processing.c ****                             contextAIIR.coefficient = ptrHistory->posAIIRCoeff;
2274:Generated_Source\PSoC4/CapSense_Processing.c ****                             AdaptiveFilter_Run(&ptrRamWdgt->aiirConfig, &contextAIIR, &filteredPosi
2275:Generated_Source\PSoC4/CapSense_Processing.c ****                             ptrHistory->posAIIRCoeff = contextAIIR.coefficient;
2276:Generated_Source\PSoC4/CapSense_Processing.c ****                         }
2277:Generated_Source\PSoC4/CapSense_Processing.c ****                         /* Perform zero-cross correction of filtered position */
2278:Generated_Source\PSoC4/CapSense_Processing.c ****                         if (filteredPosition >= tempResolution)
2279:Generated_Source\PSoC4/CapSense_Processing.c ****                         {
2280:Generated_Source\PSoC4/CapSense_Processing.c ****                             filteredPosition -= tempResolution;
2281:Generated_Source\PSoC4/CapSense_Processing.c ****                         }
2282:Generated_Source\PSoC4/CapSense_Processing.c ****                         ptrHistory->posAIIR = filteredPosition;
2283:Generated_Source\PSoC4/CapSense_Processing.c ****                     }
2284:Generated_Source\PSoC4/CapSense_Processing.c ****                 #endif /* (0u != CapSense_POS_ADAPTIVE_IIR_FILTER_EN) */
2285:Generated_Source\PSoC4/CapSense_Processing.c **** 
2286:Generated_Source\PSoC4/CapSense_Processing.c ****                 #if (0u != CapSense_POS_AVERAGE_FILTER_EN)
2287:Generated_Source\PSoC4/CapSense_Processing.c ****                     if (0u != (filterConfig & CapSense_POS_AVERAGE_FILTER_MASK))
2288:Generated_Source\PSoC4/CapSense_Processing.c ****                     {
2289:Generated_Source\PSoC4/CapSense_Processing.c ****                         tempPosition = filteredPosition;
2290:Generated_Source\PSoC4/CapSense_Processing.c ****                         /* Perform zero-cross correction */
2291:Generated_Source\PSoC4/CapSense_Processing.c ****                         if (ptrHistory->posAverage > (resolutionHafl + filteredPosition))
2292:Generated_Source\PSoC4/CapSense_Processing.c ****                         {
2293:Generated_Source\PSoC4/CapSense_Processing.c ****                             filteredPosition += tempResolution;
2294:Generated_Source\PSoC4/CapSense_Processing.c ****                         }
2295:Generated_Source\PSoC4/CapSense_Processing.c ****                         if (filteredPosition > (resolutionHafl + ptrHistory->posAverage))
2296:Generated_Source\PSoC4/CapSense_Processing.c ****                         {
2297:Generated_Source\PSoC4/CapSense_Processing.c ****                             ptrHistory->posAverage += tempResolution;
2298:Generated_Source\PSoC4/CapSense_Processing.c ****                         }
2299:Generated_Source\PSoC4/CapSense_Processing.c ****                         /* Perform filtering */
2300:Generated_Source\PSoC4/CapSense_Processing.c ****                         filteredPosition = (uint16)((filteredPosition + ptrHistory->posAverage) >> 
2301:Generated_Source\PSoC4/CapSense_Processing.c ****                         /* Perform zero-cross correction of filtered position */
2302:Generated_Source\PSoC4/CapSense_Processing.c ****                         if (filteredPosition >= tempResolution)
2303:Generated_Source\PSoC4/CapSense_Processing.c ****                         {
2304:Generated_Source\PSoC4/CapSense_Processing.c ****                             filteredPosition -= tempResolution;
ARM GAS  C:\Users\inspiron\AppData\Local\Temp\ccn8daOc.s 			page 48


2305:Generated_Source\PSoC4/CapSense_Processing.c ****                         }
2306:Generated_Source\PSoC4/CapSense_Processing.c ****                         ptrHistory->posAverage = tempPosition;
2307:Generated_Source\PSoC4/CapSense_Processing.c ****                     }
2308:Generated_Source\PSoC4/CapSense_Processing.c ****                 #endif /* #if (0u != CapSense_POS_AVERAGE_FILTER_EN) */
2309:Generated_Source\PSoC4/CapSense_Processing.c **** 
2310:Generated_Source\PSoC4/CapSense_Processing.c ****                 #if (0u != CapSense_POS_JITTER_FILTER_EN)
2311:Generated_Source\PSoC4/CapSense_Processing.c ****                     if (0u != (filterConfig & CapSense_POS_JITTER_FILTER_MASK))
2312:Generated_Source\PSoC4/CapSense_Processing.c ****                     {
2313:Generated_Source\PSoC4/CapSense_Processing.c ****                         /* Perform zero-cross correction */
2314:Generated_Source\PSoC4/CapSense_Processing.c ****                         if (ptrHistory->posJitter > (resolutionHafl + filteredPosition))
2315:Generated_Source\PSoC4/CapSense_Processing.c ****                         {
2316:Generated_Source\PSoC4/CapSense_Processing.c ****                             filteredPosition += tempResolution;
2317:Generated_Source\PSoC4/CapSense_Processing.c ****                         }
2318:Generated_Source\PSoC4/CapSense_Processing.c ****                         if (filteredPosition > (resolutionHafl + ptrHistory->posJitter))
2319:Generated_Source\PSoC4/CapSense_Processing.c ****                         {
2320:Generated_Source\PSoC4/CapSense_Processing.c ****                             ptrHistory->posJitter += tempResolution;
2321:Generated_Source\PSoC4/CapSense_Processing.c ****                         }
2322:Generated_Source\PSoC4/CapSense_Processing.c ****                         /* Perform filtering */
2323:Generated_Source\PSoC4/CapSense_Processing.c ****                         filteredPosition = (uint16)CapSense_FtJitter((uint32)filteredPosition, (uin
2324:Generated_Source\PSoC4/CapSense_Processing.c ****                         /* Perform zero-cross correction of filtered position */
2325:Generated_Source\PSoC4/CapSense_Processing.c ****                         if (filteredPosition >= tempResolution)
2326:Generated_Source\PSoC4/CapSense_Processing.c ****                         {
2327:Generated_Source\PSoC4/CapSense_Processing.c ****                             filteredPosition -= tempResolution;
2328:Generated_Source\PSoC4/CapSense_Processing.c ****                         }
2329:Generated_Source\PSoC4/CapSense_Processing.c ****                         ptrHistory->posJitter = filteredPosition;
2330:Generated_Source\PSoC4/CapSense_Processing.c ****                     }
2331:Generated_Source\PSoC4/CapSense_Processing.c ****                 #endif /* #if (0u != CapSense_POS_JITTER_FILTER_EN) */
2332:Generated_Source\PSoC4/CapSense_Processing.c ****             }
2333:Generated_Source\PSoC4/CapSense_Processing.c ****             /* Update position data */
2334:Generated_Source\PSoC4/CapSense_Processing.c ****             ptrRamWdgt->position[touchIdx] = filteredPosition;
2335:Generated_Source\PSoC4/CapSense_Processing.c ****             ptrHistory = (NULL != ptrHistory) ? (ptrHistory + 1) : NULL;
2336:Generated_Source\PSoC4/CapSense_Processing.c ****         #endif /* (0u == CapSense_POSITION_FILTER_EN) */
2337:Generated_Source\PSoC4/CapSense_Processing.c ****     }
2338:Generated_Source\PSoC4/CapSense_Processing.c **** }
2339:Generated_Source\PSoC4/CapSense_Processing.c **** #endif /* #if (0u != CapSense_TOTAL_RADIAL_SLIDERS) */
2340:Generated_Source\PSoC4/CapSense_Processing.c **** 
2341:Generated_Source\PSoC4/CapSense_Processing.c **** 
2342:Generated_Source\PSoC4/CapSense_Processing.c **** #if (0u != CapSense_CSD_MATRIX_WIDGET_EN)
2343:Generated_Source\PSoC4/CapSense_Processing.c **** /*******************************************************************************
2344:Generated_Source\PSoC4/CapSense_Processing.c **** * Function Name: CapSense_DpProcessCsdMatrix
2345:Generated_Source\PSoC4/CapSense_Processing.c **** ****************************************************************************//**
2346:Generated_Source\PSoC4/CapSense_Processing.c **** *
2347:Generated_Source\PSoC4/CapSense_Processing.c **** * \brief
2348:Generated_Source\PSoC4/CapSense_Processing.c **** *   Processes the status of the CSD Matrix Button widget.
2349:Generated_Source\PSoC4/CapSense_Processing.c **** *
2350:Generated_Source\PSoC4/CapSense_Processing.c **** * \details
2351:Generated_Source\PSoC4/CapSense_Processing.c **** *   This API processes the status of the CSD Matrix Button widget.
2352:Generated_Source\PSoC4/CapSense_Processing.c **** *   It applies the hysteresis and debounce algorithm to each sensor value.
2353:Generated_Source\PSoC4/CapSense_Processing.c **** *
2354:Generated_Source\PSoC4/CapSense_Processing.c **** *   Then the API analyzes how many row and column sensors are active. If only
2355:Generated_Source\PSoC4/CapSense_Processing.c **** *   one per row and one per column, the API considers this as a valid touch and
2356:Generated_Source\PSoC4/CapSense_Processing.c **** *   updates the corresponding Data Structure registers with the button id and active
2357:Generated_Source\PSoC4/CapSense_Processing.c **** *   row and column sensors.
2358:Generated_Source\PSoC4/CapSense_Processing.c **** *
2359:Generated_Source\PSoC4/CapSense_Processing.c **** *   If multiple sensors are active in row or column sensors, this API sets
2360:Generated_Source\PSoC4/CapSense_Processing.c **** *   the corresponding Data Structure registers to the CapSense_MATRIX_POS_MULTI
2361:Generated_Source\PSoC4/CapSense_Processing.c **** *   value which indicates that it is not possible to detect the touched button id.
ARM GAS  C:\Users\inspiron\AppData\Local\Temp\ccn8daOc.s 			page 49


2362:Generated_Source\PSoC4/CapSense_Processing.c **** *
2363:Generated_Source\PSoC4/CapSense_Processing.c **** *   This API is expected to be called after each new widget scan. If it is
2364:Generated_Source\PSoC4/CapSense_Processing.c **** *   called multiple times for the same scan data, the debounce algorithm
2365:Generated_Source\PSoC4/CapSense_Processing.c **** *   will not work properly.
2366:Generated_Source\PSoC4/CapSense_Processing.c **** *
2367:Generated_Source\PSoC4/CapSense_Processing.c **** * \param currStatus   The current status of the widget sensors.
2368:Generated_Source\PSoC4/CapSense_Processing.c **** * \param ptrFlashWdgt The pointer to the Flash Widget Object.
2369:Generated_Source\PSoC4/CapSense_Processing.c **** *
2370:Generated_Source\PSoC4/CapSense_Processing.c **** * \return Returns the status of the widget's sensors. The row sensors occupy the
2371:Generated_Source\PSoC4/CapSense_Processing.c **** *         least significant bits and column sensors - the most significant bits.
2372:Generated_Source\PSoC4/CapSense_Processing.c **** *         Bit #0 - corresponds to Row Sensor #0.
2373:Generated_Source\PSoC4/CapSense_Processing.c **** *
2374:Generated_Source\PSoC4/CapSense_Processing.c **** *******************************************************************************/
2375:Generated_Source\PSoC4/CapSense_Processing.c **** uint32 CapSense_DpProcessCsdMatrix(uint32 currStatus, CapSense_FLASH_WD_STRUCT const *ptrFlashWdgt)
2376:Generated_Source\PSoC4/CapSense_Processing.c **** {
2377:Generated_Source\PSoC4/CapSense_Processing.c ****     uint32 snsId;
2378:Generated_Source\PSoC4/CapSense_Processing.c ****     uint32 snsMask;
2379:Generated_Source\PSoC4/CapSense_Processing.c ****     uint32 newStatus;
2380:Generated_Source\PSoC4/CapSense_Processing.c ****     uint32 touchTh;
2381:Generated_Source\PSoC4/CapSense_Processing.c ****     uint8 * ptrDebounceCnt;
2382:Generated_Source\PSoC4/CapSense_Processing.c ****     CapSense_RAM_SNS_STRUCT *ptrSnsTmp;
2383:Generated_Source\PSoC4/CapSense_Processing.c ****     CapSense_RAM_WD_CSD_MATRIX_STRUCT *ptrRamWdgt;
2384:Generated_Source\PSoC4/CapSense_Processing.c **** 
2385:Generated_Source\PSoC4/CapSense_Processing.c ****     uint32 numActiveRows = 0u;
2386:Generated_Source\PSoC4/CapSense_Processing.c ****     uint32 numActiveCols = 0u;
2387:Generated_Source\PSoC4/CapSense_Processing.c **** 
2388:Generated_Source\PSoC4/CapSense_Processing.c ****     uint32 activeRow = CapSense_MATRIX_POS_NONE;
2389:Generated_Source\PSoC4/CapSense_Processing.c ****     uint32 activeCol = CapSense_MATRIX_POS_NONE;
2390:Generated_Source\PSoC4/CapSense_Processing.c **** 
2391:Generated_Source\PSoC4/CapSense_Processing.c ****     ptrSnsTmp = ptrFlashWdgt->ptr2SnsRam;
2392:Generated_Source\PSoC4/CapSense_Processing.c ****     ptrRamWdgt = (CapSense_RAM_WD_CSD_MATRIX_STRUCT *)ptrFlashWdgt->ptr2WdgtRam;
2393:Generated_Source\PSoC4/CapSense_Processing.c ****     ptrDebounceCnt = ptrFlashWdgt->ptr2DebounceArr;
2394:Generated_Source\PSoC4/CapSense_Processing.c **** 
2395:Generated_Source\PSoC4/CapSense_Processing.c ****     /* Go through all widget's sensors */
2396:Generated_Source\PSoC4/CapSense_Processing.c ****     for (snsId = 0u; snsId < ptrFlashWdgt->totalNumSns; snsId++)
2397:Generated_Source\PSoC4/CapSense_Processing.c ****     {
2398:Generated_Source\PSoC4/CapSense_Processing.c ****         /* calculate current sensor mask */
2399:Generated_Source\PSoC4/CapSense_Processing.c ****         snsMask = 1Lu << snsId;
2400:Generated_Source\PSoC4/CapSense_Processing.c **** 
