ARM GAS  C:\Users\inspiron\AppData\Local\Temp\ccEvJbLk.s 			page 1


   1              		.syntax unified
   2              		.cpu cortex-m0plus
   3              		.fpu softvfp
   4              		.eabi_attribute 20, 1
   5              		.eabi_attribute 21, 1
   6              		.eabi_attribute 23, 3
   7              		.eabi_attribute 24, 1
   8              		.eabi_attribute 25, 1
   9              		.eabi_attribute 26, 1
  10              		.eabi_attribute 30, 1
  11              		.eabi_attribute 34, 0
  12              		.eabi_attribute 18, 4
  13              		.thumb
  14              		.syntax unified
  15              		.file	"main.c"
  16              		.text
  17              	.Ltext0:
  18              		.cfi_sections	.debug_frame
  19              		.section	.text.main,"ax",%progbits
  20              		.align	2
  21              		.global	main
  22              		.code	16
  23              		.thumb_func
  24              		.type	main, %function
  25              	main:
  26              	.LFB33:
  27              		.file 1 "main.c"
   1:main.c        **** /*******************************************************************************
   2:main.c        **** * File Name: main.c
   3:main.c        **** *
   4:main.c        **** * Version: 1.10
   5:main.c        **** *
   6:main.c        **** * Description:
   7:main.c        **** * This code example demonstrates the PSoC 4 CSD CapSense Component with a touchpad widget
   8:main.c        **** * and the use of both gestures and the CapSense tuner. LEDs are also used to show when 
   9:main.c        **** * specific gestures are detected.
  10:main.c        **** *
  11:main.c        **** ******************************************************************************
  12:main.c        **** * Copyright (2019-2020), Cypress Semiconductor Corporation.
  13:main.c        **** ******************************************************************************
  14:main.c        **** * This software, including source code, documentation and related materials
  15:main.c        **** * ("Software") is owned by Cypress Semiconductor Corporation (Cypress) and is
  16:main.c        **** * protected by and subject to worldwide patent protection (United States and 
  17:main.c        **** * foreign), United States copyright laws and international treaty provisions. 
  18:main.c        **** * Cypress hereby grants to licensee a personal, non-exclusive, non-transferable
  19:main.c        **** * license to copy, use, modify, create derivative works of, and compile the 
  20:main.c        **** * Cypress source code and derivative works for the sole purpose of creating 
  21:main.c        **** * custom software in support of licensee product, such licensee product to be
  22:main.c        **** * used only in conjunction with Cypress's integrated circuit as specified in the
  23:main.c        **** * applicable agreement. Any reproduction, modification, translation, compilation,
  24:main.c        **** * or representation of this Software except as specified above is prohibited 
  25:main.c        **** * without the express written permission of Cypress.
  26:main.c        **** * 
  27:main.c        **** * Disclaimer: THIS SOFTWARE IS PROVIDED AS-IS, WITH NO WARRANTY OF ANY KIND, 
  28:main.c        **** * EXPRESS OR IMPLIED, INCLUDING, BUT NOT LIMITED TO, NONINFRINGEMENT, IMPLIED 
  29:main.c        **** * WARRANTIES OF MERCHANTABILITY AND FITNESS FOR A PARTICULAR PURPOSE.
  30:main.c        **** * Cypress reserves the right to make changes to the Software without notice. 
ARM GAS  C:\Users\inspiron\AppData\Local\Temp\ccEvJbLk.s 			page 2


  31:main.c        **** * Cypress does not assume any liability arising out of the application or use
  32:main.c        **** * of Software or any product or circuit described in the Software. Cypress does
  33:main.c        **** * not authorize its products for use as critical components in any products 
  34:main.c        **** * where a malfunction or failure may reasonably be expected to result in 
  35:main.c        **** * significant injury or death ("ACTIVE Risk Product"). By including Cypress's 
  36:main.c        **** * product in a ACTIVE Risk Product, the manufacturer of such system or application
  37:main.c        **** * assumes all risk of such use and in doing so indemnifies Cypress against all
  38:main.c        **** * liability. Use of this Software may be limited by and subject to the applicable
  39:main.c        **** * Cypress software license agreement.
  40:main.c        **** *******************************************************************************/
  41:main.c        **** 
  42:main.c        **** #include "project.h"
  43:main.c        **** 
  44:main.c        **** /* PWM duty cycles for zero and fifty percent */
  45:main.c        **** #define PWM_LED_OFF         10001
  46:main.c        **** #define PWM_LED_HALF_POWER  5000
  47:main.c        **** 
  48:main.c        **** /* Scales x and y value of the touchpad to PWM compare value */
  49:main.c        **** #define PWM_SCALAR          100
  50:main.c        **** 
  51:main.c        **** /*  */
  52:main.c        **** #define LED_OFF             1
  53:main.c        **** #define LED_ON              0
  54:main.c        **** 
  55:main.c        **** /*******************************************************************************
  56:main.c        **** * Function Name: main
  57:main.c        **** ********************************************************************************
  58:main.c        **** * Summary:
  59:main.c        **** *  The main function performs the following actions:
  60:main.c        **** *   1. Starts all hardware Components
  61:main.c        **** *   2. Starts the timestamp
  62:main.c        **** *   3. Initial scan of all CapSense widgets
  63:main.c        **** *   4. Checks if scan is complete
  64:main.c        **** *   4. Process all data and update time stamp
  65:main.c        **** *   5. Checks if there was a gesture or if the touchpad was touched
  66:main.c        **** *   6. Sends all data to the CapSense Tuner
  67:main.c        **** *   7. Scans all CapSense widgets and returns to step four
  68:main.c        **** *
  69:main.c        **** * Parameters:
  70:main.c        **** *  None
  71:main.c        **** *
  72:main.c        **** * Return:
  73:main.c        **** *  None
  74:main.c        **** *
  75:main.c        **** *******************************************************************************/
  76:main.c        **** int main(void)
  77:main.c        **** {
  28              		.loc 1 77 0
  29              		.cfi_startproc
  30              		@ args = 0, pretend = 0, frame = 0
  31              		@ frame_needed = 0, uses_anonymous_args = 0
  32 0000 70B5     		push	{r4, r5, r6, lr}
  33              		.cfi_def_cfa_offset 16
  34              		.cfi_offset 4, -16
  35              		.cfi_offset 5, -12
  36              		.cfi_offset 6, -8
  37              		.cfi_offset 14, -4
ARM GAS  C:\Users\inspiron\AppData\Local\Temp\ccEvJbLk.s 			page 3


  78:main.c        ****     /* Stores the current touchpad X and Y values */
  79:main.c        ****     uint32 Xcord;
  80:main.c        ****     uint16 Ycord;
  81:main.c        ****     
  82:main.c        ****     /* Stores the current gesture */
  83:main.c        ****     uint32 gesture;
  84:main.c        ****     
  85:main.c        ****     CyGlobalIntEnable; /* Enable global interrupts. */
  38              		.loc 1 85 0
  39              		.syntax divided
  40              	@ 85 "main.c" 1
  41 0002 62B6     		CPSIE   i
  42              	@ 0 "" 2
  86:main.c        ****     
  87:main.c        ****     /* Starts all Componenets */
  88:main.c        ****     EZI2C_Start();
  43              		.loc 1 88 0
  44              		.thumb
  45              		.syntax unified
  46 0004 FFF7FEFF 		bl	EZI2C_Start
  47              	.LVL0:
  89:main.c        ****     CapSense_Start();
  48              		.loc 1 89 0
  49 0008 FFF7FEFF 		bl	CapSense_Start
  50              	.LVL1:
  90:main.c        ****     PWM_Blue_Start();
  51              		.loc 1 90 0
  52 000c FFF7FEFF 		bl	PWM_Blue_Start
  53              	.LVL2:
  91:main.c        ****     PWM_Green_Start();
  54              		.loc 1 91 0
  55 0010 FFF7FEFF 		bl	PWM_Green_Start
  56              	.LVL3:
  92:main.c        ****     
  93:main.c        ****     /* Set up communication data buffer to CapSense data structure to be exposed to
  94:main.c        ****        I2C master */
  95:main.c        ****     EZI2C_EzI2CSetBuffer1(sizeof(CapSense_dsRam), sizeof(CapSense_dsRam), (uint8 *)&CapSense_dsRam)
  57              		.loc 1 95 0
  58 0014 384C     		ldr	r4, .L18
  59 0016 9420     		movs	r0, #148
  60 0018 4000     		lsls	r0, r0, #1
  61 001a 2200     		movs	r2, r4
  62 001c 0100     		movs	r1, r0
  63 001e FFF7FEFF 		bl	EZI2C_EzI2CSetBuffer1
  64              	.LVL4:
  96:main.c        ****     
  97:main.c        ****     /* Sets up a callback function using sysTick timer isr, the callback function
  98:main.c        ****        is part of the CySysTickSetCallback API */
  99:main.c        ****     CapSense_dsRam.timestampInterval = 2u;
  65              		.loc 1 99 0
  66 0022 0222     		movs	r2, #2
  67 0024 8C23     		movs	r3, #140
  68 0026 5B00     		lsls	r3, r3, #1
  69 0028 E250     		str	r2, [r4, r3]
 100:main.c        ****     CySysTickStart();
  70              		.loc 1 100 0
  71 002a FFF7FEFF 		bl	CySysTickStart
ARM GAS  C:\Users\inspiron\AppData\Local\Temp\ccEvJbLk.s 			page 4


  72              	.LVL5:
 101:main.c        ****     CySysTickSetCallback(0u, CapSense_IncrementGestureTimestamp);
  73              		.loc 1 101 0
  74 002e 3349     		ldr	r1, .L18+4
  75 0030 0020     		movs	r0, #0
  76 0032 FFF7FEFF 		bl	CySysTickSetCallback
  77              	.LVL6:
 102:main.c        ****     
 103:main.c        ****     CapSense_ScanAllWidgets();
  78              		.loc 1 103 0
  79 0036 FFF7FEFF 		bl	CapSense_ScanAllWidgets
  80              	.LVL7:
  81              	.L2:
 104:main.c        ****     
 105:main.c        ****     for(;;)
 106:main.c        ****     {
 107:main.c        ****         /* Checks if the scan was completed before trying to process data */
 108:main.c        ****         if(CapSense_NOT_BUSY == CapSense_IsBusy())
  82              		.loc 1 108 0
  83 003a FFF7FEFF 		bl	CapSense_IsBusy
  84              	.LVL8:
  85 003e 0028     		cmp	r0, #0
  86 0040 FBD1     		bne	.L2
 109:main.c        ****         {
 110:main.c        ****             CapSense_ProcessAllWidgets();
  87              		.loc 1 110 0
  88 0042 FFF7FEFF 		bl	CapSense_ProcessAllWidgets
  89              	.LVL9:
 111:main.c        ****             
 112:main.c        ****             /* Stores the current detected gesture */
 113:main.c        ****             gesture = CapSense_DecodeWidgetGestures(CapSense_TOUCHPAD0_WDGT_ID);
  90              		.loc 1 113 0
  91 0046 0020     		movs	r0, #0
  92 0048 FFF7FEFF 		bl	CapSense_DecodeWidgetGestures
  93              	.LVL10:
  94 004c 0500     		movs	r5, r0
  95              	.LVL11:
 114:main.c        ****             
 115:main.c        ****             /* Stores current finger position on the touchpad */            
 116:main.c        ****             Xcord = CapSense_GetXYCoordinates(CapSense_TOUCHPAD0_WDGT_ID);
  96              		.loc 1 116 0
  97 004e 0020     		movs	r0, #0
  98              	.LVL12:
  99 0050 FFF7FEFF 		bl	CapSense_GetXYCoordinates
 100              	.LVL13:
 117:main.c        ****             Ycord = Xcord >> 16;
 101              		.loc 1 117 0
 102 0054 060C     		lsrs	r6, r0, #16
 103              	.LVL14:
 118:main.c        ****             Xcord = (uint16)Xcord;
 104              		.loc 1 118 0
 105 0056 0004     		lsls	r0, r0, #16
 106              	.LVL15:
 107 0058 040C     		lsrs	r4, r0, #16
 108              	.LVL16:
 119:main.c        ****             
 120:main.c        ****             
ARM GAS  C:\Users\inspiron\AppData\Local\Temp\ccEvJbLk.s 			page 5


 121:main.c        ****             /* Controls specific LEDs based on the gesture that was captured */
 122:main.c        ****             switch(gesture)
 109              		.loc 1 122 0
 110 005a 292D     		cmp	r5, #41
 111 005c 2CD0     		beq	.L4
 112 005e 04D8     		bhi	.L5
 113 0060 202D     		cmp	r5, #32
 114 0062 07D0     		beq	.L6
 115 0064 282D     		cmp	r5, #40
 116 0066 23D0     		beq	.L7
 117 0068 2AE0     		b	.L3
 118              	.L5:
 119 006a A02D     		cmp	r5, #160
 120 006c 0AD0     		beq	.L8
 121 006e A22D     		cmp	r5, #162
 122 0070 13D0     		beq	.L9
 123 0072 25E0     		b	.L3
 124              	.L6:
 123:main.c        ****             {
 124:main.c        ****             case CapSense_ONE_FINGER_SINGLE_CLICK:
 125:main.c        ****                 PWM_Blue_WriteCompare(PWM_LED_HALF_POWER);
 125              		.loc 1 125 0
 126 0074 224C     		ldr	r4, .L18+8
 127              	.LVL17:
 128 0076 2000     		movs	r0, r4
 129              	.LVL18:
 130 0078 FFF7FEFF 		bl	PWM_Blue_WriteCompare
 131              	.LVL19:
 126:main.c        ****                 PWM_Green_WriteCompare(PWM_LED_HALF_POWER);
 132              		.loc 1 126 0
 133 007c 2000     		movs	r0, r4
 134 007e FFF7FEFF 		bl	PWM_Green_WriteCompare
 135              	.LVL20:
 127:main.c        ****                 break;
 136              		.loc 1 127 0
 137 0082 34E0     		b	.L10
 138              	.LVL21:
 139              	.L8:
 128:main.c        ****             case CapSense_ONE_FINGER_EDGE_SWIPE_LEFT:
 129:main.c        ****                 /* If Led was off turn it to half power, if on turn it off */
 130:main.c        ****                 PWM_Blue_WriteCompare(PWM_Blue_ReadCompare() == PWM_LED_OFF ? PWM_LED_HALF_POWER: P
 140              		.loc 1 130 0
 141 0084 FFF7FEFF 		bl	PWM_Blue_ReadCompare
 142              	.LVL22:
 143 0088 1E4B     		ldr	r3, .L18+12
 144 008a 9842     		cmp	r0, r3
 145 008c 01D1     		bne	.L16
 146 008e 1C48     		ldr	r0, .L18+8
 147 0090 00E0     		b	.L11
 148              	.L16:
 149 0092 1C48     		ldr	r0, .L18+12
 150              	.L11:
 151              		.loc 1 130 0 is_stmt 0 discriminator 4
 152 0094 FFF7FEFF 		bl	PWM_Blue_WriteCompare
 153              	.LVL23:
 131:main.c        ****                 break;
 154              		.loc 1 131 0 is_stmt 1 discriminator 4
ARM GAS  C:\Users\inspiron\AppData\Local\Temp\ccEvJbLk.s 			page 6


 155 0098 29E0     		b	.L10
 156              	.L9:
 132:main.c        ****             case CapSense_ONE_FINGER_EDGE_SWIPE_RIGTH:
 133:main.c        ****                 /* If Led was off turn it to half power, if on turn it off */
 134:main.c        ****                 PWM_Green_WriteCompare(PWM_Green_ReadCompare() == PWM_LED_OFF ? PWM_LED_HALF_POWER:
 157              		.loc 1 134 0
 158 009a FFF7FEFF 		bl	PWM_Green_ReadCompare
 159              	.LVL24:
 160 009e 194B     		ldr	r3, .L18+12
 161 00a0 9842     		cmp	r0, r3
 162 00a2 01D1     		bne	.L17
 163 00a4 1648     		ldr	r0, .L18+8
 164 00a6 00E0     		b	.L12
 165              	.L17:
 166 00a8 1648     		ldr	r0, .L18+12
 167              	.L12:
 168              		.loc 1 134 0 is_stmt 0 discriminator 4
 169 00aa FFF7FEFF 		bl	PWM_Green_WriteCompare
 170              	.LVL25:
 135:main.c        ****                 break;
 171              		.loc 1 135 0 is_stmt 1 discriminator 4
 172 00ae 1EE0     		b	.L10
 173              	.L7:
 136:main.c        ****             case CapSense_ONE_FINGER_ROTATE_CW:
 137:main.c        ****                 /* Turns off the red LED */
 138:main.c        ****                 Red_LED_Write(LED_OFF);
 174              		.loc 1 138 0
 175 00b0 0120     		movs	r0, #1
 176 00b2 FFF7FEFF 		bl	Red_LED_Write
 177              	.LVL26:
 139:main.c        ****                 break;
 178              		.loc 1 139 0
 179 00b6 1AE0     		b	.L10
 180              	.L4:
 140:main.c        ****             case CapSense_ONE_FINGER_ROTATE_CCW:
 141:main.c        ****                 /* Turns on the red LED */
 142:main.c        ****                 Red_LED_Write(LED_ON);
 181              		.loc 1 142 0
 182 00b8 0020     		movs	r0, #0
 183 00ba FFF7FEFF 		bl	Red_LED_Write
 184              	.LVL27:
 143:main.c        ****                 break;
 185              		.loc 1 143 0
 186 00be 16E0     		b	.L10
 187              	.L3:
 144:main.c        ****             default:
 145:main.c        ****                 /* Check if the touchpad was touched */
 146:main.c        ****                 if(CapSense_GetXYCoordinates(CapSense_TOUCHPAD0_WDGT_ID) != CapSense_TOUCHPAD_NO_TO
 188              		.loc 1 146 0
 189 00c0 0020     		movs	r0, #0
 190 00c2 FFF7FEFF 		bl	CapSense_GetXYCoordinates
 191              	.LVL28:
 192 00c6 431C     		adds	r3, r0, #1
 193 00c8 11D0     		beq	.L10
 147:main.c        ****                 {
 148:main.c        ****                     /* Change the PWM compare value based on finger position as long as the light w
 149:main.c        ****                     PWM_Blue_WriteCompare(PWM_Blue_ReadCompare() == PWM_LED_OFF ? PWM_LED_OFF : (Xc
ARM GAS  C:\Users\inspiron\AppData\Local\Temp\ccEvJbLk.s 			page 7


 194              		.loc 1 149 0
 195 00ca FFF7FEFF 		bl	PWM_Blue_ReadCompare
 196              	.LVL29:
 197 00ce 0D4B     		ldr	r3, .L18+12
 198 00d0 9842     		cmp	r0, r3
 199 00d2 01D0     		beq	.L13
 200              		.loc 1 149 0 is_stmt 0 discriminator 1
 201 00d4 6420     		movs	r0, #100
 202 00d6 6043     		muls	r0, r4
 203              	.L13:
 204              		.loc 1 149 0 discriminator 4
 205 00d8 FFF7FEFF 		bl	PWM_Blue_WriteCompare
 206              	.LVL30:
 150:main.c        ****                     PWM_Green_WriteCompare(PWM_Green_ReadCompare() == PWM_LED_OFF ? PWM_LED_OFF : (
 207              		.loc 1 150 0 is_stmt 1 discriminator 4
 208 00dc FFF7FEFF 		bl	PWM_Green_ReadCompare
 209              	.LVL31:
 210 00e0 084B     		ldr	r3, .L18+12
 211 00e2 9842     		cmp	r0, r3
 212 00e4 01D0     		beq	.L14
 213              		.loc 1 150 0 is_stmt 0 discriminator 1
 214 00e6 6420     		movs	r0, #100
 215 00e8 7043     		muls	r0, r6
 216              	.L14:
 217              		.loc 1 150 0 discriminator 4
 218 00ea FFF7FEFF 		bl	PWM_Green_WriteCompare
 219              	.LVL32:
 220              	.L10:
 151:main.c        ****                 }
 152:main.c        ****                 break;
 153:main.c        ****             }
 154:main.c        ****             
 155:main.c        ****             /* Required to maintain sychronization with tuner interface */
 156:main.c        ****             CapSense_RunTuner();
 221              		.loc 1 156 0 is_stmt 1
 222 00ee FFF7FEFF 		bl	CapSense_RunTuner
 223              	.LVL33:
 157:main.c        ****             
 158:main.c        ****             /* Initiates the next scan of all widgets */
 159:main.c        ****             CapSense_ScanAllWidgets();
 224              		.loc 1 159 0
 225 00f2 FFF7FEFF 		bl	CapSense_ScanAllWidgets
 226              	.LVL34:
 227 00f6 A0E7     		b	.L2
 228              	.L19:
 229              		.align	2
 230              	.L18:
 231 00f8 00000000 		.word	CapSense_dsRam
 232 00fc 00000000 		.word	CapSense_IncrementGestureTimestamp
 233 0100 88130000 		.word	5000
 234 0104 11270000 		.word	10001
 235              		.cfi_endproc
 236              	.LFE33:
 237              		.size	main, .-main
 238              		.text
 239              	.Letext0:
 240              		.file 2 "c:\\program files (x86)\\cypress\\psoc creator\\4.4\\psoc creator\\import\\gnu\\arm\\5.4.
ARM GAS  C:\Users\inspiron\AppData\Local\Temp\ccEvJbLk.s 			page 8


 241              		.file 3 "c:\\program files (x86)\\cypress\\psoc creator\\4.4\\psoc creator\\import\\gnu\\arm\\5.4.
 242              		.file 4 "Generated_Source\\PSoC4/cytypes.h"
 243              		.file 5 "Generated_Source\\PSoC4/CapSense_Configuration.h"
 244              		.file 6 "Generated_Source\\PSoC4/CapSense_TMG.h"
 245              		.file 7 "Generated_Source\\PSoC4/CapSense_Structure.h"
 246              		.file 8 "Generated_Source\\PSoC4/EZI2C.h"
 247              		.file 9 "Generated_Source\\PSoC4/CapSense_Control.h"
 248              		.file 10 "Generated_Source\\PSoC4/PWM_Blue.h"
 249              		.file 11 "Generated_Source\\PSoC4/PWM_Green.h"
 250              		.file 12 "Generated_Source\\PSoC4/EZI2C_EZI2C.h"
 251              		.file 13 "Generated_Source\\PSoC4/CyLib.h"
 252              		.file 14 "Generated_Source\\PSoC4/CapSense_Sensing.h"
 253              		.file 15 "Generated_Source\\PSoC4/CapSense_Gesture.h"
 254              		.file 16 "Generated_Source\\PSoC4/Red_LED.h"
 255              		.file 17 "Generated_Source\\PSoC4/CapSense_Tuner.h"