ARM GAS  C:\Users\inspiron\AppData\Local\Temp\ccO2FYIy.s 			page 1


   1              		.syntax unified
   2              		.cpu cortex-m0plus
   3              		.fpu softvfp
   4              		.eabi_attribute 20, 1
   5              		.eabi_attribute 21, 1
   6              		.eabi_attribute 23, 3
   7              		.eabi_attribute 24, 1
   8              		.eabi_attribute 25, 1
   9              		.eabi_attribute 26, 1
  10              		.eabi_attribute 30, 1
  11              		.eabi_attribute 34, 0
  12              		.eabi_attribute 18, 4
  13              		.thumb
  14              		.syntax unified
  15              		.file	"CapSense_TMG.c"
  16              		.text
  17              	.Ltext0:
  18              		.cfi_sections	.debug_frame
  19              		.section	.text.CapSense_TMG_DecodeAllGestures,"ax",%progbits
  20              		.align	2
  21              		.global	CapSense_TMG_DecodeAllGestures
  22              		.code	16
  23              		.thumb_func
  24              		.type	CapSense_TMG_DecodeAllGestures, %function
  25              	CapSense_TMG_DecodeAllGestures:
  26              	.LFB0:
  27              		.file 1 "Generated_Source\\PSoC4\\CapSense_TMG.c"
   1:Generated_Source\PSoC4/CapSense_TMG.c **** /*******************************************************************************
   2:Generated_Source\PSoC4/CapSense_TMG.c **** * File Name: CapSense_TMG.c
   3:Generated_Source\PSoC4/CapSense_TMG.c **** * Version 2.0
   4:Generated_Source\PSoC4/CapSense_TMG.c **** *
   5:Generated_Source\PSoC4/CapSense_TMG.c **** * Description:
   6:Generated_Source\PSoC4/CapSense_TMG.c **** *  This file provides the source code of the API for the CapSense TMG component.
   7:Generated_Source\PSoC4/CapSense_TMG.c **** *
   8:Generated_Source\PSoC4/CapSense_TMG.c **** ********************************************************************************
   9:Generated_Source\PSoC4/CapSense_TMG.c **** * Copyright 2014, Cypress Semiconductor Corporation.  All rights reserved.
  10:Generated_Source\PSoC4/CapSense_TMG.c **** * You may use this file only in accordance with the license, terms, conditions,
  11:Generated_Source\PSoC4/CapSense_TMG.c **** * disclaimers, and limitations in the end user license agreement accompanying
  12:Generated_Source\PSoC4/CapSense_TMG.c **** * the software package with which this file was provided.
  13:Generated_Source\PSoC4/CapSense_TMG.c **** *******************************************************************************/
  14:Generated_Source\PSoC4/CapSense_TMG.c **** 
  15:Generated_Source\PSoC4/CapSense_TMG.c **** #include "CapSense_TMG.h"
  16:Generated_Source\PSoC4/CapSense_TMG.c **** 
  17:Generated_Source\PSoC4/CapSense_TMG.c **** 
  18:Generated_Source\PSoC4/CapSense_TMG.c **** /*******************************************************************************
  19:Generated_Source\PSoC4/CapSense_TMG.c **** * Function Name: CapSense_TMG_DecodeAllGestures
  20:Generated_Source\PSoC4/CapSense_TMG.c **** ********************************************************************************
  21:Generated_Source\PSoC4/CapSense_TMG.c **** *
  22:Generated_Source\PSoC4/CapSense_TMG.c **** * Summary:
  23:Generated_Source\PSoC4/CapSense_TMG.c **** *  Decodes all enabled gestures in the customizer and returns the detected
  24:Generated_Source\PSoC4/CapSense_TMG.c **** *  gesture code.
  25:Generated_Source\PSoC4/CapSense_TMG.c **** *  CapSense_TMG_InitGestures and CapSense_TMG_TimerEnableInt has to be
  26:Generated_Source\PSoC4/CapSense_TMG.c **** *  called once prior calling this or any other API for gesture decoding.
  27:Generated_Source\PSoC4/CapSense_TMG.c **** *
  28:Generated_Source\PSoC4/CapSense_TMG.c **** * Parameters:
  29:Generated_Source\PSoC4/CapSense_TMG.c **** *  touchNumber: Number of fingers on the trackpad. Valid range 0-2.
  30:Generated_Source\PSoC4/CapSense_TMG.c **** *  currentTimestamp : Current timestamp value.
ARM GAS  C:\Users\inspiron\AppData\Local\Temp\ccO2FYIy.s 			page 2


  31:Generated_Source\PSoC4/CapSense_TMG.c **** *  pos: Pointer to structure with coordinates of touches.
  32:Generated_Source\PSoC4/CapSense_TMG.c **** *
  33:Generated_Source\PSoC4/CapSense_TMG.c **** * Return:
  34:Generated_Source\PSoC4/CapSense_TMG.c **** *  Detected gesture code.
  35:Generated_Source\PSoC4/CapSense_TMG.c **** *
  36:Generated_Source\PSoC4/CapSense_TMG.c **** *******************************************************************************/
  37:Generated_Source\PSoC4/CapSense_TMG.c **** uint32_t CapSense_TMG_DecodeAllGestures(uint32_t touchNumber, uint32_t currentTimestamp, const CapS
  38:Generated_Source\PSoC4/CapSense_TMG.c **** {
  28              		.loc 1 38 0
  29              		.cfi_startproc
  30              		@ args = 0, pretend = 0, frame = 8
  31              		@ frame_needed = 0, uses_anonymous_args = 0
  32              	.LVL0:
  33 0000 F0B5     		push	{r4, r5, r6, r7, lr}
  34              		.cfi_def_cfa_offset 20
  35              		.cfi_offset 4, -20
  36              		.cfi_offset 5, -16
  37              		.cfi_offset 6, -12
  38              		.cfi_offset 7, -8
  39              		.cfi_offset 14, -4
  40 0002 83B0     		sub	sp, sp, #12
  41              		.cfi_def_cfa_offset 32
  42 0004 0C00     		movs	r4, r1
  43 0006 0092     		str	r2, [sp]
  44              	.LVL1:
  39:Generated_Source\PSoC4/CapSense_TMG.c ****     uint32_t gestureID = CapSense_TMG_NO_GESTURE;
  40:Generated_Source\PSoC4/CapSense_TMG.c ****     #if(0u != CapSense_TMG_GESTURES_ENABLED)
  41:Generated_Source\PSoC4/CapSense_TMG.c ****         /* Variable for detected click gestures */
  42:Generated_Source\PSoC4/CapSense_TMG.c ****         uint32_t clickGesture = CapSense_TMG_NO_GESTURE;
  43:Generated_Source\PSoC4/CapSense_TMG.c **** 
  44:Generated_Source\PSoC4/CapSense_TMG.c ****         /* Variable for detected single touch gestures */
  45:Generated_Source\PSoC4/CapSense_TMG.c ****         uint32_t stGesture = CapSense_TMG_NO_GESTURE;
  46:Generated_Source\PSoC4/CapSense_TMG.c **** 
  47:Generated_Source\PSoC4/CapSense_TMG.c ****         /* Variable for detected double touch gestures */
  48:Generated_Source\PSoC4/CapSense_TMG.c ****         uint32_t dtGesture = CapSense_TMG_NO_GESTURE;
  49:Generated_Source\PSoC4/CapSense_TMG.c **** 
  50:Generated_Source\PSoC4/CapSense_TMG.c ****         #if (CapSense_TMG_ROTATE_ENABLED != 0u)
  51:Generated_Source\PSoC4/CapSense_TMG.c ****             static uint32_t rotationActive = 0u;
  52:Generated_Source\PSoC4/CapSense_TMG.c ****         #endif /* (CapSense_TMG_ROTATE_ENABLED != 0u) */
  53:Generated_Source\PSoC4/CapSense_TMG.c **** 
  54:Generated_Source\PSoC4/CapSense_TMG.c ****         #if (CapSense_TMG_EDGE_SWIPE_ENABLED != 0u)
  55:Generated_Source\PSoC4/CapSense_TMG.c ****             static uint32_t edgeTimeoutStamp = 0u;
  56:Generated_Source\PSoC4/CapSense_TMG.c ****             uint32_t deltaTimeoutStamp = 0u;
  57:Generated_Source\PSoC4/CapSense_TMG.c ****         #endif /* (CapSense_TMG_EDGE_SWIPE_ENABLED != 0u) */
  58:Generated_Source\PSoC4/CapSense_TMG.c **** 
  59:Generated_Source\PSoC4/CapSense_TMG.c ****         #if ((CapSense_TMG_EDGE_SWIPE_ENABLED == 1u) && ((CapSense_TMG_CLICKS_ENABLED == 1u) ||\
  60:Generated_Source\PSoC4/CapSense_TMG.c ****                                                              (CapSense_TMG_ST_SCROLLS_ENABLED == 1u
  61:Generated_Source\PSoC4/CapSense_TMG.c ****                                                              (CapSense_TMG_ROTATE_ENABLED == 1u)))
  62:Generated_Source\PSoC4/CapSense_TMG.c ****             static uint32_t edgeSwipeActive = 0u;
  63:Generated_Source\PSoC4/CapSense_TMG.c ****         #endif /* ((CapSense_TMG_EDGE_SWIPE_ENABLED == 1u) && ((CapSense_TMG_CLICKS_ENABLED == 1u) 
  64:Generated_Source\PSoC4/CapSense_TMG.c ****                                                                    (CapSense_TMG_ST_SCROLLS_ENABLED
  65:Generated_Source\PSoC4/CapSense_TMG.c ****                                                                    (CapSense_TMG_ROTATE_ENABLED == 
  66:Generated_Source\PSoC4/CapSense_TMG.c **** 
  67:Generated_Source\PSoC4/CapSense_TMG.c ****         #if ((CapSense_TMG_CLICKS_ENABLED == 1u) && ((CapSense_TMG_EDGE_SWIPE_ENABLED == 1u) ||\
  68:Generated_Source\PSoC4/CapSense_TMG.c ****                                                          (CapSense_TMG_ST_SCROLLS_ENABLED == 1u) ||
  69:Generated_Source\PSoC4/CapSense_TMG.c ****                                                          (CapSense_TMG_ROTATE_ENABLED == 1u)))
  70:Generated_Source\PSoC4/CapSense_TMG.c ****             static uint32_t clickAndDragActive = 0u;
ARM GAS  C:\Users\inspiron\AppData\Local\Temp\ccO2FYIy.s 			page 3


  71:Generated_Source\PSoC4/CapSense_TMG.c ****         #endif /* ((CapSense_TMG_CLICKS_ENABLED == 1u) && ((CapSense_TMG_EDGE_SWIPE_ENABLED == 1u) 
  72:Generated_Source\PSoC4/CapSense_TMG.c ****                                                                (CapSense_TMG_ST_SCROLLS_ENABLED == 
  73:Generated_Source\PSoC4/CapSense_TMG.c ****                                                                (CapSense_TMG_ROTATE_ENABLED == 1u))
  74:Generated_Source\PSoC4/CapSense_TMG.c **** 
  75:Generated_Source\PSoC4/CapSense_TMG.c ****         #if (CapSense_TMG_EDGE_SWIPE_ENABLED == 1u)
  76:Generated_Source\PSoC4/CapSense_TMG.c ****             uint32_t edgeSwipeGesture = CapSense_TMG_NO_GESTURE;
  77:Generated_Source\PSoC4/CapSense_TMG.c ****         #endif /* (CapSense_TMG_EDGE_SWIPE_ENABLED == 1u) */
  78:Generated_Source\PSoC4/CapSense_TMG.c **** 
  79:Generated_Source\PSoC4/CapSense_TMG.c ****         #if ((CapSense_TMG_CLICKS_ENABLED != 0u) || (CapSense_TMG_EDGE_SWIPE_ENABLED != 0u))
  80:Generated_Source\PSoC4/CapSense_TMG.c ****             clickGesture = Gesture_DecodeAllClickGestures((uint8_t)touchNumber, currentTimestamp, p
  45              		.loc 1 80 0
  46 0008 C5B2     		uxtb	r5, r0
  47 000a 2800     		movs	r0, r5
  48              	.LVL2:
  49 000c FFF7FEFF 		bl	Gesture_DecodeAllClickGestures
  50              	.LVL3:
  51 0010 0190     		str	r0, [sp, #4]
  52 0012 0600     		movs	r6, r0
  53              	.LVL4:
  81:Generated_Source\PSoC4/CapSense_TMG.c ****         #endif /* ((CapSense_TMG_CLICKS_ENABLED != 0u) || (CapSense_TMG_EDGE_SWIPE_ENABLED != 0u)) 
  82:Generated_Source\PSoC4/CapSense_TMG.c **** 
  83:Generated_Source\PSoC4/CapSense_TMG.c ****         #if (CapSense_TMG_CLICKS_ENABLED != 0u)
  84:Generated_Source\PSoC4/CapSense_TMG.c ****             gestureID = clickGesture;
  85:Generated_Source\PSoC4/CapSense_TMG.c ****             #if ((CapSense_TMG_EDGE_SWIPE_ENABLED == 1u) || (CapSense_TMG_ST_SCROLLS_ENABLED == 1u)
  86:Generated_Source\PSoC4/CapSense_TMG.c ****             if (clickGesture == CapSense_TMG_CLICK_AND_DRAG)
  54              		.loc 1 86 0
  55 0014 2428     		cmp	r0, #36
  56 0016 02D1     		bne	.L2
  87:Generated_Source\PSoC4/CapSense_TMG.c ****             {
  88:Generated_Source\PSoC4/CapSense_TMG.c ****                 clickAndDragActive = 1u;
  57              		.loc 1 88 0
  58 0018 0122     		movs	r2, #1
  59 001a 334B     		ldr	r3, .L17
  60 001c 1A60     		str	r2, [r3]
  61              	.L2:
  89:Generated_Source\PSoC4/CapSense_TMG.c ****             }
  90:Generated_Source\PSoC4/CapSense_TMG.c ****             #endif /* ((CapSense_TMG_CLICKS_ENABLED == 1u) || (CapSense_TMG_ST_SCROLLS_ENABLED == 1
  91:Generated_Source\PSoC4/CapSense_TMG.c ****         #endif /* (CapSense_TMG_CLICKS_ENABLED != 0u) */
  92:Generated_Source\PSoC4/CapSense_TMG.c **** 
  93:Generated_Source\PSoC4/CapSense_TMG.c ****         #if (CapSense_TMG_ROTATE_ENABLED == 1u)
  94:Generated_Source\PSoC4/CapSense_TMG.c ****             stGesture = Gesture_DecodeSTRotateGestures((uint8_t)touchNumber, currentTimestamp, pos)
  62              		.loc 1 94 0
  63 001e 009A     		ldr	r2, [sp]
  64 0020 2100     		movs	r1, r4
  65 0022 2800     		movs	r0, r5
  66              	.LVL5:
  67 0024 FFF7FEFF 		bl	Gesture_DecodeSTRotateGestures
  68              	.LVL6:
  69 0028 0700     		movs	r7, r0
  70              	.LVL7:
  95:Generated_Source\PSoC4/CapSense_TMG.c **** 
  96:Generated_Source\PSoC4/CapSense_TMG.c ****             #if ((CapSense_TMG_EDGE_SWIPE_ENABLED == 1u) || (CapSense_TMG_CLICKS_ENABLED == 1u))
  97:Generated_Source\PSoC4/CapSense_TMG.c ****                 #if ((CapSense_TMG_EDGE_SWIPE_ENABLED == 1u) && (CapSense_TMG_CLICKS_ENABLED == 1u)
  98:Generated_Source\PSoC4/CapSense_TMG.c ****                     if ((clickAndDragActive == 1u) || (edgeSwipeActive == 1u))
  71              		.loc 1 98 0
  72 002a 2F4B     		ldr	r3, .L17
  73 002c 1B68     		ldr	r3, [r3]
ARM GAS  C:\Users\inspiron\AppData\Local\Temp\ccO2FYIy.s 			page 4


  74 002e 012B     		cmp	r3, #1
  75 0030 04D0     		beq	.L13
  76              		.loc 1 98 0 is_stmt 0 discriminator 1
  77 0032 2D4B     		ldr	r3, .L17
  78 0034 5B68     		ldr	r3, [r3, #4]
  79 0036 012B     		cmp	r3, #1
  80 0038 03D1     		bne	.L3
  81 003a 01E0     		b	.L14
  82              	.L13:
  99:Generated_Source\PSoC4/CapSense_TMG.c ****                 #elif (CapSense_TMG_CLICKS_ENABLED == 1u)
 100:Generated_Source\PSoC4/CapSense_TMG.c ****                     if (clickAndDragActive == 1u)
 101:Generated_Source\PSoC4/CapSense_TMG.c ****                 #elif (CapSense_TMG_EDGE_SWIPE_ENABLED == 1u)
 102:Generated_Source\PSoC4/CapSense_TMG.c ****                     if (edgeSwipeActive == 1u)
 103:Generated_Source\PSoC4/CapSense_TMG.c ****                 #endif /* ((CapSense_TMG_EDGE_SWIPE_ENABLED == 1u) && (CapSense_TMG_CLICKS_ENABLED 
 104:Generated_Source\PSoC4/CapSense_TMG.c ****                 {
 105:Generated_Source\PSoC4/CapSense_TMG.c ****                     stGesture = CapSense_TMG_NO_GESTURE;
  83              		.loc 1 105 0 is_stmt 1
  84 003c 0027     		movs	r7, #0
  85 003e 00E0     		b	.L3
  86              	.L14:
  87 0040 0027     		movs	r7, #0
  88              	.L3:
  89              	.LVL8:
 106:Generated_Source\PSoC4/CapSense_TMG.c ****                 }
 107:Generated_Source\PSoC4/CapSense_TMG.c ****             #endif /* ((CapSense_TMG_EDGE_SWIPE_ENABLED == 1u) || (CapSense_TMG_CLICKS_ENABLED == 1
 108:Generated_Source\PSoC4/CapSense_TMG.c ****             if ((stGesture == CapSense_TMG_ROTATE_CW) || (stGesture == CapSense_TMG_ROTATE_CCW))
  90              		.loc 1 108 0
  91 0042 3B00     		movs	r3, r7
  92 0044 283B     		subs	r3, r3, #40
  93 0046 012B     		cmp	r3, #1
  94 0048 03D8     		bhi	.L4
 109:Generated_Source\PSoC4/CapSense_TMG.c ****             {
 110:Generated_Source\PSoC4/CapSense_TMG.c ****                 rotationActive = CapSense_TMG_ROTATE_TO_OTHER_DEBOUNCE;
  95              		.loc 1 110 0
  96 004a 0A22     		movs	r2, #10
  97 004c 264B     		ldr	r3, .L17
  98 004e 9A60     		str	r2, [r3, #8]
  99 0050 06E0     		b	.L5
 100              	.L4:
 111:Generated_Source\PSoC4/CapSense_TMG.c ****             }
 112:Generated_Source\PSoC4/CapSense_TMG.c ****             else
 113:Generated_Source\PSoC4/CapSense_TMG.c ****             {
 114:Generated_Source\PSoC4/CapSense_TMG.c ****                 if (rotationActive > 0u)
 101              		.loc 1 114 0
 102 0052 254B     		ldr	r3, .L17
 103 0054 9B68     		ldr	r3, [r3, #8]
 104 0056 002B     		cmp	r3, #0
 105 0058 02D0     		beq	.L5
 115:Generated_Source\PSoC4/CapSense_TMG.c ****                 {
 116:Generated_Source\PSoC4/CapSense_TMG.c ****                     rotationActive--;
 106              		.loc 1 116 0
 107 005a 013B     		subs	r3, r3, #1
 108 005c 224A     		ldr	r2, .L17
 109 005e 9360     		str	r3, [r2, #8]
 110              	.L5:
 117:Generated_Source\PSoC4/CapSense_TMG.c ****                 }
 118:Generated_Source\PSoC4/CapSense_TMG.c ****             }
ARM GAS  C:\Users\inspiron\AppData\Local\Temp\ccO2FYIy.s 			page 5


 119:Generated_Source\PSoC4/CapSense_TMG.c **** 
 120:Generated_Source\PSoC4/CapSense_TMG.c ****             if (((stGesture == CapSense_TMG_NO_GESTURE)||(stGesture == CapSense_TMG_TOUCHDOWN) \
 121:Generated_Source\PSoC4/CapSense_TMG.c ****                                             ||(stGesture == CapSense_TMG_LIFT_OFF))&&(rotationActiv
 122:Generated_Source\PSoC4/CapSense_TMG.c ****         #else
 123:Generated_Source\PSoC4/CapSense_TMG.c ****             if ((stGesture == CapSense_TMG_NO_GESTURE)||(stGesture == CapSense_TMG_TOUCHDOWN) \
 124:Generated_Source\PSoC4/CapSense_TMG.c ****                                             ||(stGesture == CapSense_TMG_LIFT_OFF))
 125:Generated_Source\PSoC4/CapSense_TMG.c ****         #endif /* (CapSense_TMG_ROTATE_ENABLED == 1u) */
 126:Generated_Source\PSoC4/CapSense_TMG.c ****         {
 127:Generated_Source\PSoC4/CapSense_TMG.c ****             #if (CapSense_TMG_ST_SCROLLS_ENABLED == 1u)
 128:Generated_Source\PSoC4/CapSense_TMG.c ****                 #if ((CapSense_TMG_EDGE_SWIPE_ENABLED == 1u) && (CapSense_TMG_CLICKS_ENABLED == 1u)
 129:Generated_Source\PSoC4/CapSense_TMG.c ****                     if ((clickAndDragActive == 0u)&&(edgeSwipeActive == 0u))
 130:Generated_Source\PSoC4/CapSense_TMG.c ****                 #elif (CapSense_TMG_CLICKS_ENABLED == 1u)
 131:Generated_Source\PSoC4/CapSense_TMG.c ****                     if (clickAndDragActive == 0u)
 132:Generated_Source\PSoC4/CapSense_TMG.c ****                 #elif (CapSense_TMG_EDGE_SWIPE_ENABLED == 1u)
 133:Generated_Source\PSoC4/CapSense_TMG.c ****                     if (edgeSwipeActive == 0u)
 134:Generated_Source\PSoC4/CapSense_TMG.c ****                 #else
 135:Generated_Source\PSoC4/CapSense_TMG.c ****                     if (1u == 1u)
 136:Generated_Source\PSoC4/CapSense_TMG.c ****                 #endif /* ((CapSense_TMG_EDGE_SWIPE_ENABLED == 1u) && (CapSense_TMG_CLICKS_ENABLED 
 137:Generated_Source\PSoC4/CapSense_TMG.c ****                 {
 138:Generated_Source\PSoC4/CapSense_TMG.c ****                     stGesture = Gesture_DecodeSTScrollGestures((uint8_t)touchNumber, currentTimesta
 139:Generated_Source\PSoC4/CapSense_TMG.c ****                 }
 140:Generated_Source\PSoC4/CapSense_TMG.c ****             #elif (CapSense_TMG_FLICKS_ENABLED == 1u)
 141:Generated_Source\PSoC4/CapSense_TMG.c ****                 stGesture = Gesture_DecodeFlickGestures((uint8_t)touchNumber, currentTimestamp, pos
 142:Generated_Source\PSoC4/CapSense_TMG.c ****             #endif /* (CapSense_TMG_ST_SCROLLS_ENABLED == 1u) */
 143:Generated_Source\PSoC4/CapSense_TMG.c ****         }
 144:Generated_Source\PSoC4/CapSense_TMG.c **** 
 145:Generated_Source\PSoC4/CapSense_TMG.c ****         #if (CapSense_TMG_EDGE_SWIPE_ENABLED == 1u)
 146:Generated_Source\PSoC4/CapSense_TMG.c ****             edgeSwipeGesture = Gesture_DecodeEdgeSwipeGestures((uint8_t)touchNumber, currentTimesta
 111              		.loc 1 146 0
 112 0060 009A     		ldr	r2, [sp]
 113 0062 2100     		movs	r1, r4
 114 0064 2800     		movs	r0, r5
 115 0066 FFF7FEFF 		bl	Gesture_DecodeEdgeSwipeGestures
 116              	.LVL9:
 147:Generated_Source\PSoC4/CapSense_TMG.c **** 
 148:Generated_Source\PSoC4/CapSense_TMG.c ****             #if (CapSense_TMG_ROTATE_ENABLED == 1u)
 149:Generated_Source\PSoC4/CapSense_TMG.c ****                 if (((edgeSwipeGesture != CapSense_TMG_NO_GESTURE) && \
 117              		.loc 1 149 0
 118 006a 0028     		cmp	r0, #0
 119 006c 0BD0     		beq	.L6
 120              		.loc 1 149 0 is_stmt 0 discriminator 1
 121 006e 2F28     		cmp	r0, #47
 122 0070 09D0     		beq	.L6
 150:Generated_Source\PSoC4/CapSense_TMG.c ****                     (edgeSwipeGesture != CapSense_TMG_TOUCHDOWN) && (edgeSwipeGesture != CapSense_T
 123              		.loc 1 150 0 is_stmt 1
 124 0072 4F28     		cmp	r0, #79
 125 0074 07D0     		beq	.L6
 151:Generated_Source\PSoC4/CapSense_TMG.c ****                                                                                             && (rot
 126              		.loc 1 151 0
 127 0076 1C4B     		ldr	r3, .L17
 128 0078 9B68     		ldr	r3, [r3, #8]
 129 007a 002B     		cmp	r3, #0
 130 007c 03D1     		bne	.L6
 131              	.LVL10:
 152:Generated_Source\PSoC4/CapSense_TMG.c ****             #else
 153:Generated_Source\PSoC4/CapSense_TMG.c ****                 if ((edgeSwipeGesture != CapSense_TMG_NO_GESTURE) && \
 154:Generated_Source\PSoC4/CapSense_TMG.c ****                     (edgeSwipeGesture != CapSense_TMG_TOUCHDOWN) && (edgeSwipeGesture != CapSense_T
ARM GAS  C:\Users\inspiron\AppData\Local\Temp\ccO2FYIy.s 			page 6


 155:Generated_Source\PSoC4/CapSense_TMG.c ****             #endif /* (CapSense_TMG_ROTATE_ENABLED == 1u) */
 156:Generated_Source\PSoC4/CapSense_TMG.c ****             {
 157:Generated_Source\PSoC4/CapSense_TMG.c ****                 stGesture = edgeSwipeGesture;
 158:Generated_Source\PSoC4/CapSense_TMG.c ****                 #if ((CapSense_TMG_EDGE_SWIPE_ENABLED == 1u) && ((CapSense_TMG_CLICKS_ENABLED == 1u
 159:Generated_Source\PSoC4/CapSense_TMG.c ****                                                                      (CapSense_TMG_ST_SCROLLS_ENABL
 160:Generated_Source\PSoC4/CapSense_TMG.c ****                                                                      (CapSense_TMG_ROTATE_ENABLED =
 161:Generated_Source\PSoC4/CapSense_TMG.c ****                     edgeSwipeActive = 1u;
 132              		.loc 1 161 0
 133 007e 0122     		movs	r2, #1
 134 0080 194B     		ldr	r3, .L17
 135 0082 5A60     		str	r2, [r3, #4]
 157:Generated_Source\PSoC4/CapSense_TMG.c ****                 #if ((CapSense_TMG_EDGE_SWIPE_ENABLED == 1u) && ((CapSense_TMG_CLICKS_ENABLED == 1u
 136              		.loc 1 157 0
 137 0084 0700     		movs	r7, r0
 138              	.LVL11:
 139              	.L6:
 162:Generated_Source\PSoC4/CapSense_TMG.c ****                 #endif /* ((CapSense_TMG_EDGE_SWIPE_ENABLED == 1u) && ((CapSense_TMG_CLICKS_ENABLED
 163:Generated_Source\PSoC4/CapSense_TMG.c ****                                                                            (CapSense_TMG_ST_SCROLLS
 164:Generated_Source\PSoC4/CapSense_TMG.c ****                                                                            (CapSense_TMG_ROTATE_ENA
 165:Generated_Source\PSoC4/CapSense_TMG.c ****             }
 166:Generated_Source\PSoC4/CapSense_TMG.c ****         #endif /* (CapSense_TMG_EDGE_SWIPE_ENABLED == 1u) */
 167:Generated_Source\PSoC4/CapSense_TMG.c **** 
 168:Generated_Source\PSoC4/CapSense_TMG.c ****         if ((stGesture != CapSense_TMG_NO_GESTURE)&&(stGesture != CapSense_TMG_TOUCHDOWN) \
 140              		.loc 1 168 0
 141 0086 002F     		cmp	r7, #0
 142 0088 05D0     		beq	.L15
 143              		.loc 1 168 0 is_stmt 0 discriminator 1
 144 008a 2F2F     		cmp	r7, #47
 145 008c 05D0     		beq	.L16
 169:Generated_Source\PSoC4/CapSense_TMG.c ****                                             &&(stGesture != CapSense_TMG_LIFT_OFF))
 146              		.loc 1 169 0 is_stmt 1
 147 008e 4F2F     		cmp	r7, #79
 148 0090 04D1     		bne	.L7
 170:Generated_Source\PSoC4/CapSense_TMG.c ****         {
 171:Generated_Source\PSoC4/CapSense_TMG.c ****             gestureID = stGesture;
 172:Generated_Source\PSoC4/CapSense_TMG.c ****         }
 173:Generated_Source\PSoC4/CapSense_TMG.c ****         else if ((clickGesture == CapSense_TMG_TOUCHDOWN) || (clickGesture == CapSense_TMG_LIFT_OFF
 174:Generated_Source\PSoC4/CapSense_TMG.c ****         {
 175:Generated_Source\PSoC4/CapSense_TMG.c ****             #if(CapSense_TMG_CLICKS_ENABLED != 0u)
 176:Generated_Source\PSoC4/CapSense_TMG.c ****                 gestureID = clickGesture;
 149              		.loc 1 176 0
 150 0092 019F     		ldr	r7, [sp, #4]
 151              	.LVL12:
 152 0094 02E0     		b	.L7
 153              	.LVL13:
 154              	.L15:
 155 0096 019F     		ldr	r7, [sp, #4]
 156              	.LVL14:
 157 0098 00E0     		b	.L7
 158              	.LVL15:
 159              	.L16:
 160 009a 019F     		ldr	r7, [sp, #4]
 161              	.LVL16:
 162              	.L7:
 177:Generated_Source\PSoC4/CapSense_TMG.c ****             #else
 178:Generated_Source\PSoC4/CapSense_TMG.c ****                 gestureID = CapSense_TMG_NO_GESTURE;
 179:Generated_Source\PSoC4/CapSense_TMG.c ****             #endif /* (CapSense_TMG_CLICKS_ENABLED != 0u) */
ARM GAS  C:\Users\inspiron\AppData\Local\Temp\ccO2FYIy.s 			page 7


 180:Generated_Source\PSoC4/CapSense_TMG.c ****         }
 181:Generated_Source\PSoC4/CapSense_TMG.c ****         else
 182:Generated_Source\PSoC4/CapSense_TMG.c ****         {
 183:Generated_Source\PSoC4/CapSense_TMG.c ****             /* Do not change gestureID */
 184:Generated_Source\PSoC4/CapSense_TMG.c ****         }
 185:Generated_Source\PSoC4/CapSense_TMG.c **** 
 186:Generated_Source\PSoC4/CapSense_TMG.c ****         dtGesture = CapSense_TMG_DecodeZoomGestures(touchNumber, currentTimestamp, pos);
 187:Generated_Source\PSoC4/CapSense_TMG.c ****         if ((dtGesture == CapSense_TMG_NO_GESTURE) || (dtGesture == CapSense_TMG_TOUCHDOWN) \
 188:Generated_Source\PSoC4/CapSense_TMG.c ****                                             || (dtGesture == CapSense_TMG_LIFT_OFF))
 189:Generated_Source\PSoC4/CapSense_TMG.c ****         {
 190:Generated_Source\PSoC4/CapSense_TMG.c ****             dtGesture = CapSense_TMG_DecodeDTScrollGestures(touchNumber, currentTimestamp, pos);
 191:Generated_Source\PSoC4/CapSense_TMG.c ****         }
 192:Generated_Source\PSoC4/CapSense_TMG.c ****         else
 193:Generated_Source\PSoC4/CapSense_TMG.c ****         {
 194:Generated_Source\PSoC4/CapSense_TMG.c ****             (void)CapSense_TMG_DecodeDTScrollGestures(touchNumber, currentTimestamp, pos);
 195:Generated_Source\PSoC4/CapSense_TMG.c ****         }
 196:Generated_Source\PSoC4/CapSense_TMG.c **** 
 197:Generated_Source\PSoC4/CapSense_TMG.c ****         if ((dtGesture != CapSense_TMG_NO_GESTURE) && (dtGesture != CapSense_TMG_TOUCHDOWN) \
 198:Generated_Source\PSoC4/CapSense_TMG.c ****                                             && (dtGesture != CapSense_TMG_LIFT_OFF))
 199:Generated_Source\PSoC4/CapSense_TMG.c ****         {
 200:Generated_Source\PSoC4/CapSense_TMG.c ****             gestureID = dtGesture;
 201:Generated_Source\PSoC4/CapSense_TMG.c ****         }
 202:Generated_Source\PSoC4/CapSense_TMG.c **** 
 203:Generated_Source\PSoC4/CapSense_TMG.c ****         #if (CapSense_TMG_EDGE_SWIPE_ENABLED != 0u)
 204:Generated_Source\PSoC4/CapSense_TMG.c ****             if((gestureID >= CapSense_TMG_EDGE_SWIPE_LEFT)&&(gestureID <= CapSense_TMG_EDGE_SWIPE_B
 163              		.loc 1 204 0
 164 009c 3B00     		movs	r3, r7
 165 009e A03B     		subs	r3, r3, #160
 166 00a0 062B     		cmp	r3, #6
 167 00a2 01D8     		bhi	.L8
 205:Generated_Source\PSoC4/CapSense_TMG.c ****             {
 206:Generated_Source\PSoC4/CapSense_TMG.c ****                 edgeTimeoutStamp = currentTimestamp;
 168              		.loc 1 206 0
 169 00a4 104B     		ldr	r3, .L17
 170 00a6 DC60     		str	r4, [r3, #12]
 171              	.L8:
 207:Generated_Source\PSoC4/CapSense_TMG.c ****             }
 208:Generated_Source\PSoC4/CapSense_TMG.c ****         #endif /* (CapSense_TMG_EDGE_SWIPE_ENABLED != 0u) */
 209:Generated_Source\PSoC4/CapSense_TMG.c **** 
 210:Generated_Source\PSoC4/CapSense_TMG.c ****         if ((clickGesture == CapSense_TMG_LIFT_OFF) || (clickGesture == CapSense_TMG_TOUCHDOWN) || 
 172              		.loc 1 210 0
 173 00a8 4F2E     		cmp	r6, #79
 174 00aa 03D0     		beq	.L9
 175              		.loc 1 210 0 is_stmt 0 discriminator 1
 176 00ac 2F2E     		cmp	r6, #47
 177 00ae 01D0     		beq	.L9
 178              		.loc 1 210 0 discriminator 2
 179 00b0 002F     		cmp	r7, #0
 180 00b2 16D1     		bne	.L10
 181              	.L9:
 211:Generated_Source\PSoC4/CapSense_TMG.c ****                 (gestureID == CapSense_TMG_NO_GESTURE))
 212:Generated_Source\PSoC4/CapSense_TMG.c ****         {
 213:Generated_Source\PSoC4/CapSense_TMG.c ****             #if ((CapSense_TMG_CLICKS_ENABLED == 1u) && ((CapSense_TMG_EDGE_SWIPE_ENABLED == 1u) ||
 214:Generated_Source\PSoC4/CapSense_TMG.c ****                                                              (CapSense_TMG_ST_SCROLLS_ENABLED == 1u
 215:Generated_Source\PSoC4/CapSense_TMG.c ****                                                              (CapSense_TMG_ROTATE_ENABLED == 1u)))
 216:Generated_Source\PSoC4/CapSense_TMG.c ****                 if(0u != clickAndDragActive)
 182              		.loc 1 216 0 is_stmt 1
ARM GAS  C:\Users\inspiron\AppData\Local\Temp\ccO2FYIy.s 			page 8


 183 00b4 0C4B     		ldr	r3, .L17
 184 00b6 1B68     		ldr	r3, [r3]
 185 00b8 002B     		cmp	r3, #0
 186 00ba 02D0     		beq	.L11
 217:Generated_Source\PSoC4/CapSense_TMG.c ****                 {
 218:Generated_Source\PSoC4/CapSense_TMG.c ****                     clickAndDragActive = 0u;
 187              		.loc 1 218 0
 188 00bc 0022     		movs	r2, #0
 189 00be 0A4B     		ldr	r3, .L17
 190 00c0 1A60     		str	r2, [r3]
 191              	.L11:
 219:Generated_Source\PSoC4/CapSense_TMG.c ****                 }
 220:Generated_Source\PSoC4/CapSense_TMG.c ****             #endif /* ((CapSense_TMG_CLICKS_ENABLED == 1u) && ((CapSense_TMG_EDGE_SWIPE_ENABLED == 
 221:Generated_Source\PSoC4/CapSense_TMG.c ****                                                                    (CapSense_TMG_ST_SCROLLS_ENABLED
 222:Generated_Source\PSoC4/CapSense_TMG.c ****                                                                    (CapSense_TMG_ROTATE_ENABLED == 
 223:Generated_Source\PSoC4/CapSense_TMG.c **** 
 224:Generated_Source\PSoC4/CapSense_TMG.c ****             #if (CapSense_TMG_EDGE_SWIPE_ENABLED != 0u)
 225:Generated_Source\PSoC4/CapSense_TMG.c ****             deltaTimeoutStamp = currentTimestamp - edgeTimeoutStamp;
 192              		.loc 1 225 0
 193 00c2 094B     		ldr	r3, .L17
 194 00c4 DB68     		ldr	r3, [r3, #12]
 195 00c6 E41A     		subs	r4, r4, r3
 196              	.LVL17:
 226:Generated_Source\PSoC4/CapSense_TMG.c ****             if ((clickGesture == CapSense_TMG_LIFT_OFF) || (deltaTimeoutStamp >= CapSense_TMG_EDGE_
 197              		.loc 1 226 0
 198 00c8 4F2E     		cmp	r6, #79
 199 00ca 02D0     		beq	.L12
 200              		.loc 1 226 0 is_stmt 0 discriminator 1
 201 00cc 074B     		ldr	r3, .L17+4
 202 00ce 9C42     		cmp	r4, r3
 203 00d0 07D9     		bls	.L10
 204              	.L12:
 227:Generated_Source\PSoC4/CapSense_TMG.c ****             {
 228:Generated_Source\PSoC4/CapSense_TMG.c ****                 edgeTimeoutStamp = 0u;
 205              		.loc 1 228 0 is_stmt 1
 206 00d2 054B     		ldr	r3, .L17
 207 00d4 0022     		movs	r2, #0
 208 00d6 DA60     		str	r2, [r3, #12]
 229:Generated_Source\PSoC4/CapSense_TMG.c ****                 #if ((CapSense_TMG_EDGE_SWIPE_ENABLED == 1u) && ((CapSense_TMG_CLICKS_ENABLED == 1u
 230:Generated_Source\PSoC4/CapSense_TMG.c ****                                                                             (CapSense_TMG_ST_SCROLL
 231:Generated_Source\PSoC4/CapSense_TMG.c ****                     if(0u != edgeSwipeActive)
 209              		.loc 1 231 0
 210 00d8 5B68     		ldr	r3, [r3, #4]
 211 00da 002B     		cmp	r3, #0
 212 00dc 01D0     		beq	.L10
 232:Generated_Source\PSoC4/CapSense_TMG.c ****                     {
 233:Generated_Source\PSoC4/CapSense_TMG.c ****                         edgeSwipeActive = 0u;
 213              		.loc 1 233 0
 214 00de 024B     		ldr	r3, .L17
 215 00e0 5A60     		str	r2, [r3, #4]
 216              	.LVL18:
 217              	.L10:
 234:Generated_Source\PSoC4/CapSense_TMG.c ****                     }
 235:Generated_Source\PSoC4/CapSense_TMG.c **** 
 236:Generated_Source\PSoC4/CapSense_TMG.c ****                 #endif /* ((CapSense_TMG_EDGE_SWIPE_ENABLED == 1u) && ((CapSense_TMG_CLICKS_ENABLED
 237:Generated_Source\PSoC4/CapSense_TMG.c ****                                                                             (CapSense_TMG_ST_SCROLL
 238:Generated_Source\PSoC4/CapSense_TMG.c ****             }
ARM GAS  C:\Users\inspiron\AppData\Local\Temp\ccO2FYIy.s 			page 9


 239:Generated_Source\PSoC4/CapSense_TMG.c ****             #endif /* (CapSense_TMG_EDGE_SWIPE_ENABLED != 0u) */
 240:Generated_Source\PSoC4/CapSense_TMG.c ****         }
 241:Generated_Source\PSoC4/CapSense_TMG.c ****     #endif /* (0u != CapSense_TMG_GESTURES_ENABLED) */
 242:Generated_Source\PSoC4/CapSense_TMG.c **** 
 243:Generated_Source\PSoC4/CapSense_TMG.c ****     return (gestureID);
 244:Generated_Source\PSoC4/CapSense_TMG.c **** }
 218              		.loc 1 244 0
 219 00e2 3800     		movs	r0, r7
 220              	.LVL19:
 221 00e4 03B0     		add	sp, sp, #12
 222              	.LVL20:
 223              		@ sp needed
 224              	.LVL21:
 225              	.LVL22:
 226 00e6 F0BD     		pop	{r4, r5, r6, r7, pc}
 227              	.L18:
 228              		.align	2
 229              	.L17:
 230 00e8 00000000 		.word	.LANCHOR0
 231 00ec CF070000 		.word	1999
 232              		.cfi_endproc
 233              	.LFE0:
 234              		.size	CapSense_TMG_DecodeAllGestures, .-CapSense_TMG_DecodeAllGestures
 235              		.section	.text.CapSense_TMG_BallisticsMultiplier,"ax",%progbits
 236              		.align	2
 237              		.global	CapSense_TMG_BallisticsMultiplier
 238              		.code	16
 239              		.thumb_func
 240              		.type	CapSense_TMG_BallisticsMultiplier, %function
 241              	CapSense_TMG_BallisticsMultiplier:
 242              	.LFB1:
 245:Generated_Source\PSoC4/CapSense_TMG.c **** 
 246:Generated_Source\PSoC4/CapSense_TMG.c **** 
 247:Generated_Source\PSoC4/CapSense_TMG.c **** /*******************************************************************************
 248:Generated_Source\PSoC4/CapSense_TMG.c **** * Function Name: CapSense_TMG_ballisticsMultiplier
 249:Generated_Source\PSoC4/CapSense_TMG.c **** ********************************************************************************
 250:Generated_Source\PSoC4/CapSense_TMG.c **** *
 251:Generated_Source\PSoC4/CapSense_TMG.c **** * Summary:
 252:Generated_Source\PSoC4/CapSense_TMG.c **** *  This API is to run the ballistic Multiplier.
 253:Generated_Source\PSoC4/CapSense_TMG.c **** *  CapSense_TMG_TimerEnableInt has to be called once prior calling this API.
 254:Generated_Source\PSoC4/CapSense_TMG.c **** *
 255:Generated_Source\PSoC4/CapSense_TMG.c **** * Parameters:
 256:Generated_Source\PSoC4/CapSense_TMG.c **** *   ballisticMultiplier: Pointer to the structure which contains API parameters.
 257:Generated_Source\PSoC4/CapSense_TMG.c **** *   currentTimestamp : Current timestamp value.
 258:Generated_Source\PSoC4/CapSense_TMG.c **** *   pos: Pointer to dX and dY coordinates.
 259:Generated_Source\PSoC4/CapSense_TMG.c **** *
 260:Generated_Source\PSoC4/CapSense_TMG.c **** * Return:
 261:Generated_Source\PSoC4/CapSense_TMG.c **** *  None
 262:Generated_Source\PSoC4/CapSense_TMG.c **** *
 263:Generated_Source\PSoC4/CapSense_TMG.c **** * Global Variables:
 264:Generated_Source\PSoC4/CapSense_TMG.c **** *  None
 265:Generated_Source\PSoC4/CapSense_TMG.c **** *
 266:Generated_Source\PSoC4/CapSense_TMG.c **** *******************************************************************************/
 267:Generated_Source\PSoC4/CapSense_TMG.c **** void CapSense_TMG_BallisticsMultiplier(const CapSense_TMG_BALLISTIC_MULT * ballisticMultiplier, uin
 268:Generated_Source\PSoC4/CapSense_TMG.c **** {
 243              		.loc 1 268 0
 244              		.cfi_startproc
ARM GAS  C:\Users\inspiron\AppData\Local\Temp\ccO2FYIy.s 			page 10


 245              		@ args = 0, pretend = 0, frame = 0
 246              		@ frame_needed = 0, uses_anonymous_args = 0
 247              		@ link register save eliminated.
 248              	.LVL23:
 269:Generated_Source\PSoC4/CapSense_TMG.c ****     #if (CapSense_TMG_BALLISTICS_ENABLED == 1u)
 270:Generated_Source\PSoC4/CapSense_TMG.c ****         CapSense_TMG_BALLISTIC_MULT_INT ballisticsStrct;
 271:Generated_Source\PSoC4/CapSense_TMG.c ****         ballisticsStrct.paramStr = *ballisticMultiplier;
 272:Generated_Source\PSoC4/CapSense_TMG.c ****         ballisticsStrct.currentTimestamp = currentTimestamp;
 273:Generated_Source\PSoC4/CapSense_TMG.c ****         BallisticMultiplier(&ballisticsStrct, pos);
 274:Generated_Source\PSoC4/CapSense_TMG.c ****     #endif /* (CapSense_TMG_BALLISTICS_ENABLED == 1u) */
 275:Generated_Source\PSoC4/CapSense_TMG.c **** }
 249              		.loc 1 275 0
 250              		@ sp needed
 251 0000 7047     		bx	lr
 252              		.cfi_endproc
 253              	.LFE1:
 254              		.size	CapSense_TMG_BallisticsMultiplier, .-CapSense_TMG_BallisticsMultiplier
 255 0002 C046     		.bss
 256              		.align	2
 257              		.set	.LANCHOR0,. + 0
 258              		.type	clickAndDragActive.4341, %object
 259              		.size	clickAndDragActive.4341, 4
 260              	clickAndDragActive.4341:
 261 0000 00000000 		.space	4
 262              		.type	edgeSwipeActive.4340, %object
 263              		.size	edgeSwipeActive.4340, 4
 264              	edgeSwipeActive.4340:
 265 0004 00000000 		.space	4
 266              		.type	rotationActive.4337, %object
 267              		.size	rotationActive.4337, 4
 268              	rotationActive.4337:
 269 0008 00000000 		.space	4
 270              		.type	edgeTimeoutStamp.4338, %object
 271              		.size	edgeTimeoutStamp.4338, 4
 272              	edgeTimeoutStamp.4338:
 273 000c 00000000 		.space	4
 274              		.text
 275              	.Letext0:
 276              		.file 2 "c:\\program files (x86)\\cypress\\psoc creator\\4.4\\psoc creator\\import\\gnu\\arm\\5.4.
 277              		.file 3 "c:\\program files (x86)\\cypress\\psoc creator\\4.4\\psoc creator\\import\\gnu\\arm\\5.4.
 278              		.file 4 "Generated_Source\\PSoC4\\CapSense_TMG.h"