ARM GAS  C:\Users\inspiron\AppData\Local\Temp\cc3AwUZg.s 			page 1


   1              		.syntax unified
   2              		.cpu cortex-m0plus
   3              		.fpu softvfp
   4              		.eabi_attribute 20, 1
   5              		.eabi_attribute 21, 1
   6              		.eabi_attribute 23, 3
   7              		.eabi_attribute 24, 1
   8              		.eabi_attribute 25, 1
   9              		.eabi_attribute 26, 1
  10              		.eabi_attribute 30, 1
  11              		.eabi_attribute 34, 0
  12              		.eabi_attribute 18, 4
  13              		.thumb
  14              		.syntax unified
  15              		.file	"CapSense_Structure.c"
  16              		.text
  17              	.Ltext0:
  18              		.cfi_sections	.debug_frame
  19              		.section	.text.DsParseParamId,"ax",%progbits
  20              		.align	2
  21              		.code	16
  22              		.thumb_func
  23              		.type	DsParseParamId, %function
  24              	DsParseParamId:
  25              	.LFB2:
  26              		.file 1 "Generated_Source\\PSoC4\\CapSense_Structure.c"
   1:Generated_Source\PSoC4/CapSense_Structure.c **** /***************************************************************************//**
   2:Generated_Source\PSoC4/CapSense_Structure.c **** * \file CapSense_Structure.c
   3:Generated_Source\PSoC4/CapSense_Structure.c **** * \version 7.0
   4:Generated_Source\PSoC4/CapSense_Structure.c **** *
   5:Generated_Source\PSoC4/CapSense_Structure.c **** * \brief
   6:Generated_Source\PSoC4/CapSense_Structure.c **** *   This file defines the data structure global variables and provides implementation
   7:Generated_Source\PSoC4/CapSense_Structure.c **** *   for the high-level and low-level APIs of the Data Structure module.
   8:Generated_Source\PSoC4/CapSense_Structure.c **** *
   9:Generated_Source\PSoC4/CapSense_Structure.c **** * \see CapSense v7.0 Datasheet
  10:Generated_Source\PSoC4/CapSense_Structure.c **** *
  11:Generated_Source\PSoC4/CapSense_Structure.c **** *//*****************************************************************************
  12:Generated_Source\PSoC4/CapSense_Structure.c **** * Copyright (2016-2019), Cypress Semiconductor Corporation.
  13:Generated_Source\PSoC4/CapSense_Structure.c **** ********************************************************************************
  14:Generated_Source\PSoC4/CapSense_Structure.c **** * This software is owned by Cypress Semiconductor Corporation (Cypress) and is
  15:Generated_Source\PSoC4/CapSense_Structure.c **** * protected by and subject to worldwide patent protection (United States and
  16:Generated_Source\PSoC4/CapSense_Structure.c **** * foreign), United States copyright laws and international treaty provisions.
  17:Generated_Source\PSoC4/CapSense_Structure.c **** * Cypress hereby grants to licensee a personal, non-exclusive, non-transferable
  18:Generated_Source\PSoC4/CapSense_Structure.c **** * license to copy, use, modify, create derivative works of, and compile the
  19:Generated_Source\PSoC4/CapSense_Structure.c **** * Cypress Source Code and derivative works for the sole purpose of creating
  20:Generated_Source\PSoC4/CapSense_Structure.c **** * custom software in support of licensee product to be used only in conjunction
  21:Generated_Source\PSoC4/CapSense_Structure.c **** * with a Cypress integrated circuit as specified in the applicable agreement.
  22:Generated_Source\PSoC4/CapSense_Structure.c **** * Any reproduction, modification, translation, compilation, or representation of
  23:Generated_Source\PSoC4/CapSense_Structure.c **** * this software except as specified above is prohibited without the express
  24:Generated_Source\PSoC4/CapSense_Structure.c **** * written permission of Cypress.
  25:Generated_Source\PSoC4/CapSense_Structure.c **** *
  26:Generated_Source\PSoC4/CapSense_Structure.c **** * Disclaimer: CYPRESS MAKES NO WARRANTY OF ANY KIND, EXPRESS OR IMPLIED, WITH
  27:Generated_Source\PSoC4/CapSense_Structure.c **** * REGARD TO THIS MATERIAL, INCLUDING, BUT NOT LIMITED TO, THE IMPLIED
  28:Generated_Source\PSoC4/CapSense_Structure.c **** * WARRANTIES OF MERCHANTABILITY AND FITNESS FOR A PARTICULAR PURPOSE.
  29:Generated_Source\PSoC4/CapSense_Structure.c **** * Cypress reserves the right to make changes without further notice to the
  30:Generated_Source\PSoC4/CapSense_Structure.c **** * materials described herein. Cypress does not assume any liability arising out
  31:Generated_Source\PSoC4/CapSense_Structure.c **** * of the application or use of any product or circuit described herein. Cypress
ARM GAS  C:\Users\inspiron\AppData\Local\Temp\cc3AwUZg.s 			page 2


  32:Generated_Source\PSoC4/CapSense_Structure.c **** * does not authorize its products for use as critical components in life-support
  33:Generated_Source\PSoC4/CapSense_Structure.c **** * systems where a malfunction or failure may reasonably be expected to result in
  34:Generated_Source\PSoC4/CapSense_Structure.c **** * significant injury to the user. The inclusion of Cypress' product in a life-
  35:Generated_Source\PSoC4/CapSense_Structure.c **** * support systems application implies that the manufacturer assumes all risk of
  36:Generated_Source\PSoC4/CapSense_Structure.c **** * such use and in doing so indemnifies Cypress against all charges. Use may be
  37:Generated_Source\PSoC4/CapSense_Structure.c **** * limited by and subject to the applicable Cypress software license agreement.
  38:Generated_Source\PSoC4/CapSense_Structure.c **** *******************************************************************************/
  39:Generated_Source\PSoC4/CapSense_Structure.c **** 
  40:Generated_Source\PSoC4/CapSense_Structure.c **** #include <cytypes.h>
  41:Generated_Source\PSoC4/CapSense_Structure.c **** #include "CyLib.h"
  42:Generated_Source\PSoC4/CapSense_Structure.c **** #include "CapSense_Structure.h"
  43:Generated_Source\PSoC4/CapSense_Structure.c **** #include "CapSense_Configuration.h"
  44:Generated_Source\PSoC4/CapSense_Structure.c **** 
  45:Generated_Source\PSoC4/CapSense_Structure.c **** #if (0u != CapSense_ADC_EN)
  46:Generated_Source\PSoC4/CapSense_Structure.c ****     #include "CapSense_Adc.h"
  47:Generated_Source\PSoC4/CapSense_Structure.c **** #endif /* (0u != CapSense_ADC_EN) */
  48:Generated_Source\PSoC4/CapSense_Structure.c **** 
  49:Generated_Source\PSoC4/CapSense_Structure.c **** #if (CapSense_ENABLE == CapSense_SELF_TEST_EN)
  50:Generated_Source\PSoC4/CapSense_Structure.c ****     #include "CapSense_SelfTest.h"
  51:Generated_Source\PSoC4/CapSense_Structure.c **** #endif
  52:Generated_Source\PSoC4/CapSense_Structure.c **** 
  53:Generated_Source\PSoC4/CapSense_Structure.c **** #if (CapSense_ENABLE == CapSense_CENTROID_5X5_CSD_EN)
  54:Generated_Source\PSoC4/CapSense_Structure.c ****     #include "CapSense_AdvancedCentroid_LL.h"
  55:Generated_Source\PSoC4/CapSense_Structure.c **** #endif
  56:Generated_Source\PSoC4/CapSense_Structure.c **** 
  57:Generated_Source\PSoC4/CapSense_Structure.c **** #if (CapSense_ENABLE == CapSense_GES_GLOBAL_EN)
  58:Generated_Source\PSoC4/CapSense_Structure.c ****     #include "CapSense_Gesture.h"
  59:Generated_Source\PSoC4/CapSense_Structure.c **** #endif /* (CapSense_ENABLE == CapSense_GES_GLOBAL_EN) */
  60:Generated_Source\PSoC4/CapSense_Structure.c **** 
  61:Generated_Source\PSoC4/CapSense_Structure.c **** /*******************************************************************************
  62:Generated_Source\PSoC4/CapSense_Structure.c **** * Defines the RAM Data Structure variables and their init data in flash
  63:Generated_Source\PSoC4/CapSense_Structure.c **** *******************************************************************************/
  64:Generated_Source\PSoC4/CapSense_Structure.c **** /**
  65:Generated_Source\PSoC4/CapSense_Structure.c **** * \cond SECTION_GLOBAL_VARIABLES
  66:Generated_Source\PSoC4/CapSense_Structure.c **** * \addtogroup group_global_variables
  67:Generated_Source\PSoC4/CapSense_Structure.c **** * \{
  68:Generated_Source\PSoC4/CapSense_Structure.c **** */
  69:Generated_Source\PSoC4/CapSense_Structure.c **** 
  70:Generated_Source\PSoC4/CapSense_Structure.c **** /**
  71:Generated_Source\PSoC4/CapSense_Structure.c **** * The variable that contains the CapSense configuration, settings and
  72:Generated_Source\PSoC4/CapSense_Structure.c **** * scanning results. CapSense_dsRam represents RAM Data Structure.
  73:Generated_Source\PSoC4/CapSense_Structure.c **** */
  74:Generated_Source\PSoC4/CapSense_Structure.c **** CapSense_RAM_STRUCT CapSense_dsRam;
  75:Generated_Source\PSoC4/CapSense_Structure.c **** /** \}
  76:Generated_Source\PSoC4/CapSense_Structure.c **** * \endcond */
  77:Generated_Source\PSoC4/CapSense_Structure.c **** 
  78:Generated_Source\PSoC4/CapSense_Structure.c **** /*******************************************************************************
  79:Generated_Source\PSoC4/CapSense_Structure.c **** * Declares Widget's De-bounce Counters
  80:Generated_Source\PSoC4/CapSense_Structure.c **** *******************************************************************************/
  81:Generated_Source\PSoC4/CapSense_Structure.c **** 
  82:Generated_Source\PSoC4/CapSense_Structure.c **** 
  83:Generated_Source\PSoC4/CapSense_Structure.c **** /***************************************************************************//**
  84:Generated_Source\PSoC4/CapSense_Structure.c **** * Declares CSX Touchpad data
  85:Generated_Source\PSoC4/CapSense_Structure.c **** *******************************************************************************/
  86:Generated_Source\PSoC4/CapSense_Structure.c **** static CapSense_CSX_TOUCHPAD_DATA_STRUCT CapSense_csxTouchpadData_Touchpad0;
  87:Generated_Source\PSoC4/CapSense_Structure.c **** 
  88:Generated_Source\PSoC4/CapSense_Structure.c **** 
ARM GAS  C:\Users\inspiron\AppData\Local\Temp\cc3AwUZg.s 			page 3


  89:Generated_Source\PSoC4/CapSense_Structure.c **** /***************************************************************************//**
  90:Generated_Source\PSoC4/CapSense_Structure.c **** * Centroid positions history
  91:Generated_Source\PSoC4/CapSense_Structure.c **** *******************************************************************************/
  92:Generated_Source\PSoC4/CapSense_Structure.c **** static CapSense_TOUCHPAD_POS_HISTORY_STRUCT CapSense_posHistoryTouchpad0[CapSense_CSX_MAX_FINGERS];
  93:Generated_Source\PSoC4/CapSense_Structure.c **** 
  94:Generated_Source\PSoC4/CapSense_Structure.c **** /*******************************************************************************
  95:Generated_Source\PSoC4/CapSense_Structure.c **** * Defines and initializes the Flash Data Structure
  96:Generated_Source\PSoC4/CapSense_Structure.c **** *******************************************************************************/
  97:Generated_Source\PSoC4/CapSense_Structure.c **** 
  98:Generated_Source\PSoC4/CapSense_Structure.c **** 
  99:Generated_Source\PSoC4/CapSense_Structure.c **** 
 100:Generated_Source\PSoC4/CapSense_Structure.c **** /**
 101:Generated_Source\PSoC4/CapSense_Structure.c **** * \cond SECTION_API_CONSTANTS
 102:Generated_Source\PSoC4/CapSense_Structure.c **** * \addtogroup group_api_constants
 103:Generated_Source\PSoC4/CapSense_Structure.c **** * \{
 104:Generated_Source\PSoC4/CapSense_Structure.c **** */
 105:Generated_Source\PSoC4/CapSense_Structure.c **** /**
 106:Generated_Source\PSoC4/CapSense_Structure.c **** * Constant for the FLASH Data Structure
 107:Generated_Source\PSoC4/CapSense_Structure.c **** */
 108:Generated_Source\PSoC4/CapSense_Structure.c **** const CapSense_FLASH_STRUCT CapSense_dsFlash =
 109:Generated_Source\PSoC4/CapSense_Structure.c **** {
 110:Generated_Source\PSoC4/CapSense_Structure.c ****     /* Flash Widget Initialization Data */
 111:Generated_Source\PSoC4/CapSense_Structure.c ****     {
 112:Generated_Source\PSoC4/CapSense_Structure.c ****         { /* Touchpad0 */
 113:Generated_Source\PSoC4/CapSense_Structure.c ****             &CapSense_ioList[0u],
 114:Generated_Source\PSoC4/CapSense_Structure.c ****             (void *)&CapSense_dsRam.wdgtList.touchpad0,
 115:Generated_Source\PSoC4/CapSense_Structure.c ****             CapSense_dsRam.snsList.touchpad0,
 116:Generated_Source\PSoC4/CapSense_Structure.c ****             (void *)0u,
 117:Generated_Source\PSoC4/CapSense_Structure.c ****             (void *)0u,
 118:Generated_Source\PSoC4/CapSense_Structure.c ****             CapSense_TOUCHPAD0_STATIC_CONFIG,
 119:Generated_Source\PSoC4/CapSense_Structure.c ****             (CapSense_TOUCHPAD0_NUM_RX) * (CapSense_TOUCHPAD0_NUM_TX),
 120:Generated_Source\PSoC4/CapSense_Structure.c ****             (uint8)CapSense_WD_TOUCHPAD_E,
 121:Generated_Source\PSoC4/CapSense_Structure.c ****             CapSense_TOUCHPAD0_NUM_RX,
 122:Generated_Source\PSoC4/CapSense_Structure.c ****             CapSense_TOUCHPAD0_NUM_TX,
 123:Generated_Source\PSoC4/CapSense_Structure.c ****             CapSense_TOUCHPAD0_X_RESOLUTION,
 124:Generated_Source\PSoC4/CapSense_Structure.c ****             CapSense_TOUCHPAD0_Y_RESOLUTION,
 125:Generated_Source\PSoC4/CapSense_Structure.c ****             CapSense_TOUCHPAD0_X_CENT_MULT,
 126:Generated_Source\PSoC4/CapSense_Structure.c ****             CapSense_TOUCHPAD0_Y_CENT_MULT,
 127:Generated_Source\PSoC4/CapSense_Structure.c ****             &CapSense_csxTouchpadData_Touchpad0,
 128:Generated_Source\PSoC4/CapSense_Structure.c ****             (void *)&CapSense_posHistoryTouchpad0,
 129:Generated_Source\PSoC4/CapSense_Structure.c ****             CapSense_TOUCHPAD0_IIR_FILTER_COEFF,
 130:Generated_Source\PSoC4/CapSense_Structure.c ****         },
 131:Generated_Source\PSoC4/CapSense_Structure.c ****     },
 132:Generated_Source\PSoC4/CapSense_Structure.c **** };
 133:Generated_Source\PSoC4/CapSense_Structure.c **** 
 134:Generated_Source\PSoC4/CapSense_Structure.c **** /**
 135:Generated_Source\PSoC4/CapSense_Structure.c **** * The array of the pointers to the electrode specific register.
 136:Generated_Source\PSoC4/CapSense_Structure.c **** */
 137:Generated_Source\PSoC4/CapSense_Structure.c **** const CapSense_FLASH_IO_STRUCT CapSense_ioList[CapSense_TOTAL_ELECTRODES] =
 138:Generated_Source\PSoC4/CapSense_Structure.c **** {
 139:Generated_Source\PSoC4/CapSense_Structure.c ****     { /* 0: Touchpad0_Rx0 */
 140:Generated_Source\PSoC4/CapSense_Structure.c ****         (reg32 *)CapSense_Rx__0__HSIOM,
 141:Generated_Source\PSoC4/CapSense_Structure.c ****         (reg32 *)CapSense_Rx__0__PC,
 142:Generated_Source\PSoC4/CapSense_Structure.c ****         (reg32 *)CapSense_Rx__0__DR,
 143:Generated_Source\PSoC4/CapSense_Structure.c ****         (reg32 *)CapSense_Rx__0__PS,
 144:Generated_Source\PSoC4/CapSense_Structure.c ****         CapSense_Rx__0__HSIOM_MASK,
 145:Generated_Source\PSoC4/CapSense_Structure.c ****         CapSense_Rx__0__MASK,
ARM GAS  C:\Users\inspiron\AppData\Local\Temp\cc3AwUZg.s 			page 4


 146:Generated_Source\PSoC4/CapSense_Structure.c ****         CapSense_Rx__0__HSIOM_SHIFT,
 147:Generated_Source\PSoC4/CapSense_Structure.c ****         (uint8)CapSense_Rx__0__SHIFT,
 148:Generated_Source\PSoC4/CapSense_Structure.c ****         (uint8)CapSense_Rx__0__SHIFT * 3u,
 149:Generated_Source\PSoC4/CapSense_Structure.c ****     },
 150:Generated_Source\PSoC4/CapSense_Structure.c ****     { /* 1: Touchpad0_Rx1 */
 151:Generated_Source\PSoC4/CapSense_Structure.c ****         (reg32 *)CapSense_Rx__1__HSIOM,
 152:Generated_Source\PSoC4/CapSense_Structure.c ****         (reg32 *)CapSense_Rx__1__PC,
 153:Generated_Source\PSoC4/CapSense_Structure.c ****         (reg32 *)CapSense_Rx__1__DR,
 154:Generated_Source\PSoC4/CapSense_Structure.c ****         (reg32 *)CapSense_Rx__1__PS,
 155:Generated_Source\PSoC4/CapSense_Structure.c ****         CapSense_Rx__1__HSIOM_MASK,
 156:Generated_Source\PSoC4/CapSense_Structure.c ****         CapSense_Rx__1__MASK,
 157:Generated_Source\PSoC4/CapSense_Structure.c ****         CapSense_Rx__1__HSIOM_SHIFT,
 158:Generated_Source\PSoC4/CapSense_Structure.c ****         (uint8)CapSense_Rx__1__SHIFT,
 159:Generated_Source\PSoC4/CapSense_Structure.c ****         (uint8)CapSense_Rx__1__SHIFT * 3u,
 160:Generated_Source\PSoC4/CapSense_Structure.c ****     },
 161:Generated_Source\PSoC4/CapSense_Structure.c ****     { /* 2: Touchpad0_Rx2 */
 162:Generated_Source\PSoC4/CapSense_Structure.c ****         (reg32 *)CapSense_Rx__2__HSIOM,
 163:Generated_Source\PSoC4/CapSense_Structure.c ****         (reg32 *)CapSense_Rx__2__PC,
 164:Generated_Source\PSoC4/CapSense_Structure.c ****         (reg32 *)CapSense_Rx__2__DR,
 165:Generated_Source\PSoC4/CapSense_Structure.c ****         (reg32 *)CapSense_Rx__2__PS,
 166:Generated_Source\PSoC4/CapSense_Structure.c ****         CapSense_Rx__2__HSIOM_MASK,
 167:Generated_Source\PSoC4/CapSense_Structure.c ****         CapSense_Rx__2__MASK,
 168:Generated_Source\PSoC4/CapSense_Structure.c ****         CapSense_Rx__2__HSIOM_SHIFT,
 169:Generated_Source\PSoC4/CapSense_Structure.c ****         (uint8)CapSense_Rx__2__SHIFT,
 170:Generated_Source\PSoC4/CapSense_Structure.c ****         (uint8)CapSense_Rx__2__SHIFT * 3u,
 171:Generated_Source\PSoC4/CapSense_Structure.c ****     },
 172:Generated_Source\PSoC4/CapSense_Structure.c ****     { /* 3: Touchpad0_Rx3 */
 173:Generated_Source\PSoC4/CapSense_Structure.c ****         (reg32 *)CapSense_Rx__3__HSIOM,
 174:Generated_Source\PSoC4/CapSense_Structure.c ****         (reg32 *)CapSense_Rx__3__PC,
 175:Generated_Source\PSoC4/CapSense_Structure.c ****         (reg32 *)CapSense_Rx__3__DR,
 176:Generated_Source\PSoC4/CapSense_Structure.c ****         (reg32 *)CapSense_Rx__3__PS,
 177:Generated_Source\PSoC4/CapSense_Structure.c ****         CapSense_Rx__3__HSIOM_MASK,
 178:Generated_Source\PSoC4/CapSense_Structure.c ****         CapSense_Rx__3__MASK,
 179:Generated_Source\PSoC4/CapSense_Structure.c ****         CapSense_Rx__3__HSIOM_SHIFT,
 180:Generated_Source\PSoC4/CapSense_Structure.c ****         (uint8)CapSense_Rx__3__SHIFT,
 181:Generated_Source\PSoC4/CapSense_Structure.c ****         (uint8)CapSense_Rx__3__SHIFT * 3u,
 182:Generated_Source\PSoC4/CapSense_Structure.c ****     },
 183:Generated_Source\PSoC4/CapSense_Structure.c ****     { /* 4: Touchpad0_Rx4 */
 184:Generated_Source\PSoC4/CapSense_Structure.c ****         (reg32 *)CapSense_Rx__4__HSIOM,
 185:Generated_Source\PSoC4/CapSense_Structure.c ****         (reg32 *)CapSense_Rx__4__PC,
 186:Generated_Source\PSoC4/CapSense_Structure.c ****         (reg32 *)CapSense_Rx__4__DR,
 187:Generated_Source\PSoC4/CapSense_Structure.c ****         (reg32 *)CapSense_Rx__4__PS,
 188:Generated_Source\PSoC4/CapSense_Structure.c ****         CapSense_Rx__4__HSIOM_MASK,
 189:Generated_Source\PSoC4/CapSense_Structure.c ****         CapSense_Rx__4__MASK,
 190:Generated_Source\PSoC4/CapSense_Structure.c ****         CapSense_Rx__4__HSIOM_SHIFT,
 191:Generated_Source\PSoC4/CapSense_Structure.c ****         (uint8)CapSense_Rx__4__SHIFT,
 192:Generated_Source\PSoC4/CapSense_Structure.c ****         (uint8)CapSense_Rx__4__SHIFT * 3u,
 193:Generated_Source\PSoC4/CapSense_Structure.c ****     },
 194:Generated_Source\PSoC4/CapSense_Structure.c ****     { /* 5: Touchpad0_Rx5 */
 195:Generated_Source\PSoC4/CapSense_Structure.c ****         (reg32 *)CapSense_Rx__5__HSIOM,
 196:Generated_Source\PSoC4/CapSense_Structure.c ****         (reg32 *)CapSense_Rx__5__PC,
 197:Generated_Source\PSoC4/CapSense_Structure.c ****         (reg32 *)CapSense_Rx__5__DR,
 198:Generated_Source\PSoC4/CapSense_Structure.c ****         (reg32 *)CapSense_Rx__5__PS,
 199:Generated_Source\PSoC4/CapSense_Structure.c ****         CapSense_Rx__5__HSIOM_MASK,
 200:Generated_Source\PSoC4/CapSense_Structure.c ****         CapSense_Rx__5__MASK,
 201:Generated_Source\PSoC4/CapSense_Structure.c ****         CapSense_Rx__5__HSIOM_SHIFT,
 202:Generated_Source\PSoC4/CapSense_Structure.c ****         (uint8)CapSense_Rx__5__SHIFT,
ARM GAS  C:\Users\inspiron\AppData\Local\Temp\cc3AwUZg.s 			page 5


 203:Generated_Source\PSoC4/CapSense_Structure.c ****         (uint8)CapSense_Rx__5__SHIFT * 3u,
 204:Generated_Source\PSoC4/CapSense_Structure.c ****     },
 205:Generated_Source\PSoC4/CapSense_Structure.c ****     { /* 6: Touchpad0_Rx6 */
 206:Generated_Source\PSoC4/CapSense_Structure.c ****         (reg32 *)CapSense_Rx__6__HSIOM,
 207:Generated_Source\PSoC4/CapSense_Structure.c ****         (reg32 *)CapSense_Rx__6__PC,
 208:Generated_Source\PSoC4/CapSense_Structure.c ****         (reg32 *)CapSense_Rx__6__DR,
 209:Generated_Source\PSoC4/CapSense_Structure.c ****         (reg32 *)CapSense_Rx__6__PS,
 210:Generated_Source\PSoC4/CapSense_Structure.c ****         CapSense_Rx__6__HSIOM_MASK,
 211:Generated_Source\PSoC4/CapSense_Structure.c ****         CapSense_Rx__6__MASK,
 212:Generated_Source\PSoC4/CapSense_Structure.c ****         CapSense_Rx__6__HSIOM_SHIFT,
 213:Generated_Source\PSoC4/CapSense_Structure.c ****         (uint8)CapSense_Rx__6__SHIFT,
 214:Generated_Source\PSoC4/CapSense_Structure.c ****         (uint8)CapSense_Rx__6__SHIFT * 3u,
 215:Generated_Source\PSoC4/CapSense_Structure.c ****     },
 216:Generated_Source\PSoC4/CapSense_Structure.c ****     { /* 7: Touchpad0_Tx0 */
 217:Generated_Source\PSoC4/CapSense_Structure.c ****         (reg32 *)CapSense_Tx__0__HSIOM,
 218:Generated_Source\PSoC4/CapSense_Structure.c ****         (reg32 *)CapSense_Tx__0__PC,
 219:Generated_Source\PSoC4/CapSense_Structure.c ****         (reg32 *)CapSense_Tx__0__DR,
 220:Generated_Source\PSoC4/CapSense_Structure.c ****         (reg32 *)CapSense_Tx__0__PS,
 221:Generated_Source\PSoC4/CapSense_Structure.c ****         CapSense_Tx__0__HSIOM_MASK,
 222:Generated_Source\PSoC4/CapSense_Structure.c ****         CapSense_Tx__0__MASK,
 223:Generated_Source\PSoC4/CapSense_Structure.c ****         CapSense_Tx__0__HSIOM_SHIFT,
 224:Generated_Source\PSoC4/CapSense_Structure.c ****         (uint8)CapSense_Tx__0__SHIFT,
 225:Generated_Source\PSoC4/CapSense_Structure.c ****         (uint8)CapSense_Tx__0__SHIFT * 3u,
 226:Generated_Source\PSoC4/CapSense_Structure.c ****     },
 227:Generated_Source\PSoC4/CapSense_Structure.c ****     { /* 8: Touchpad0_Tx1 */
 228:Generated_Source\PSoC4/CapSense_Structure.c ****         (reg32 *)CapSense_Tx__1__HSIOM,
 229:Generated_Source\PSoC4/CapSense_Structure.c ****         (reg32 *)CapSense_Tx__1__PC,
 230:Generated_Source\PSoC4/CapSense_Structure.c ****         (reg32 *)CapSense_Tx__1__DR,
 231:Generated_Source\PSoC4/CapSense_Structure.c ****         (reg32 *)CapSense_Tx__1__PS,
 232:Generated_Source\PSoC4/CapSense_Structure.c ****         CapSense_Tx__1__HSIOM_MASK,
 233:Generated_Source\PSoC4/CapSense_Structure.c ****         CapSense_Tx__1__MASK,
 234:Generated_Source\PSoC4/CapSense_Structure.c ****         CapSense_Tx__1__HSIOM_SHIFT,
 235:Generated_Source\PSoC4/CapSense_Structure.c ****         (uint8)CapSense_Tx__1__SHIFT,
 236:Generated_Source\PSoC4/CapSense_Structure.c ****         (uint8)CapSense_Tx__1__SHIFT * 3u,
 237:Generated_Source\PSoC4/CapSense_Structure.c ****     },
 238:Generated_Source\PSoC4/CapSense_Structure.c ****     { /* 9: Touchpad0_Tx2 */
 239:Generated_Source\PSoC4/CapSense_Structure.c ****         (reg32 *)CapSense_Tx__2__HSIOM,
 240:Generated_Source\PSoC4/CapSense_Structure.c ****         (reg32 *)CapSense_Tx__2__PC,
 241:Generated_Source\PSoC4/CapSense_Structure.c ****         (reg32 *)CapSense_Tx__2__DR,
 242:Generated_Source\PSoC4/CapSense_Structure.c ****         (reg32 *)CapSense_Tx__2__PS,
 243:Generated_Source\PSoC4/CapSense_Structure.c ****         CapSense_Tx__2__HSIOM_MASK,
 244:Generated_Source\PSoC4/CapSense_Structure.c ****         CapSense_Tx__2__MASK,
 245:Generated_Source\PSoC4/CapSense_Structure.c ****         CapSense_Tx__2__HSIOM_SHIFT,
 246:Generated_Source\PSoC4/CapSense_Structure.c ****         (uint8)CapSense_Tx__2__SHIFT,
 247:Generated_Source\PSoC4/CapSense_Structure.c ****         (uint8)CapSense_Tx__2__SHIFT * 3u,
 248:Generated_Source\PSoC4/CapSense_Structure.c ****     },
 249:Generated_Source\PSoC4/CapSense_Structure.c ****     { /* 10: Touchpad0_Tx3 */
 250:Generated_Source\PSoC4/CapSense_Structure.c ****         (reg32 *)CapSense_Tx__3__HSIOM,
 251:Generated_Source\PSoC4/CapSense_Structure.c ****         (reg32 *)CapSense_Tx__3__PC,
 252:Generated_Source\PSoC4/CapSense_Structure.c ****         (reg32 *)CapSense_Tx__3__DR,
 253:Generated_Source\PSoC4/CapSense_Structure.c ****         (reg32 *)CapSense_Tx__3__PS,
 254:Generated_Source\PSoC4/CapSense_Structure.c ****         CapSense_Tx__3__HSIOM_MASK,
 255:Generated_Source\PSoC4/CapSense_Structure.c ****         CapSense_Tx__3__MASK,
 256:Generated_Source\PSoC4/CapSense_Structure.c ****         CapSense_Tx__3__HSIOM_SHIFT,
 257:Generated_Source\PSoC4/CapSense_Structure.c ****         (uint8)CapSense_Tx__3__SHIFT,
 258:Generated_Source\PSoC4/CapSense_Structure.c ****         (uint8)CapSense_Tx__3__SHIFT * 3u,
 259:Generated_Source\PSoC4/CapSense_Structure.c ****     },
ARM GAS  C:\Users\inspiron\AppData\Local\Temp\cc3AwUZg.s 			page 6


 260:Generated_Source\PSoC4/CapSense_Structure.c ****     { /* 11: Touchpad0_Tx4 */
 261:Generated_Source\PSoC4/CapSense_Structure.c ****         (reg32 *)CapSense_Tx__4__HSIOM,
 262:Generated_Source\PSoC4/CapSense_Structure.c ****         (reg32 *)CapSense_Tx__4__PC,
 263:Generated_Source\PSoC4/CapSense_Structure.c ****         (reg32 *)CapSense_Tx__4__DR,
 264:Generated_Source\PSoC4/CapSense_Structure.c ****         (reg32 *)CapSense_Tx__4__PS,
 265:Generated_Source\PSoC4/CapSense_Structure.c ****         CapSense_Tx__4__HSIOM_MASK,
 266:Generated_Source\PSoC4/CapSense_Structure.c ****         CapSense_Tx__4__MASK,
 267:Generated_Source\PSoC4/CapSense_Structure.c ****         CapSense_Tx__4__HSIOM_SHIFT,
 268:Generated_Source\PSoC4/CapSense_Structure.c ****         (uint8)CapSense_Tx__4__SHIFT,
 269:Generated_Source\PSoC4/CapSense_Structure.c ****         (uint8)CapSense_Tx__4__SHIFT * 3u,
 270:Generated_Source\PSoC4/CapSense_Structure.c ****     },
 271:Generated_Source\PSoC4/CapSense_Structure.c ****     { /* 12: Touchpad0_Tx5 */
 272:Generated_Source\PSoC4/CapSense_Structure.c ****         (reg32 *)CapSense_Tx__5__HSIOM,
 273:Generated_Source\PSoC4/CapSense_Structure.c ****         (reg32 *)CapSense_Tx__5__PC,
 274:Generated_Source\PSoC4/CapSense_Structure.c ****         (reg32 *)CapSense_Tx__5__DR,
 275:Generated_Source\PSoC4/CapSense_Structure.c ****         (reg32 *)CapSense_Tx__5__PS,
 276:Generated_Source\PSoC4/CapSense_Structure.c ****         CapSense_Tx__5__HSIOM_MASK,
 277:Generated_Source\PSoC4/CapSense_Structure.c ****         CapSense_Tx__5__MASK,
 278:Generated_Source\PSoC4/CapSense_Structure.c ****         CapSense_Tx__5__HSIOM_SHIFT,
 279:Generated_Source\PSoC4/CapSense_Structure.c ****         (uint8)CapSense_Tx__5__SHIFT,
 280:Generated_Source\PSoC4/CapSense_Structure.c ****         (uint8)CapSense_Tx__5__SHIFT * 3u,
 281:Generated_Source\PSoC4/CapSense_Structure.c ****     },
 282:Generated_Source\PSoC4/CapSense_Structure.c ****     { /* 13: Touchpad0_Tx6 */
 283:Generated_Source\PSoC4/CapSense_Structure.c ****         (reg32 *)CapSense_Tx__6__HSIOM,
 284:Generated_Source\PSoC4/CapSense_Structure.c ****         (reg32 *)CapSense_Tx__6__PC,
 285:Generated_Source\PSoC4/CapSense_Structure.c ****         (reg32 *)CapSense_Tx__6__DR,
 286:Generated_Source\PSoC4/CapSense_Structure.c ****         (reg32 *)CapSense_Tx__6__PS,
 287:Generated_Source\PSoC4/CapSense_Structure.c ****         CapSense_Tx__6__HSIOM_MASK,
 288:Generated_Source\PSoC4/CapSense_Structure.c ****         CapSense_Tx__6__MASK,
 289:Generated_Source\PSoC4/CapSense_Structure.c ****         CapSense_Tx__6__HSIOM_SHIFT,
 290:Generated_Source\PSoC4/CapSense_Structure.c ****         (uint8)CapSense_Tx__6__SHIFT,
 291:Generated_Source\PSoC4/CapSense_Structure.c ****         (uint8)CapSense_Tx__6__SHIFT * 3u,
 292:Generated_Source\PSoC4/CapSense_Structure.c ****     },
 293:Generated_Source\PSoC4/CapSense_Structure.c **** };
 294:Generated_Source\PSoC4/CapSense_Structure.c **** 
 295:Generated_Source\PSoC4/CapSense_Structure.c **** 
 296:Generated_Source\PSoC4/CapSense_Structure.c **** 
 297:Generated_Source\PSoC4/CapSense_Structure.c **** /** \}
 298:Generated_Source\PSoC4/CapSense_Structure.c **** * \endcond */
 299:Generated_Source\PSoC4/CapSense_Structure.c **** 
 300:Generated_Source\PSoC4/CapSense_Structure.c **** /* Initialization data for RAM widget list */
 301:Generated_Source\PSoC4/CapSense_Structure.c **** const CapSense_RAM_WD_LIST_STRUCT CapSense_ramWidgetInit =
 302:Generated_Source\PSoC4/CapSense_Structure.c **** {
 303:Generated_Source\PSoC4/CapSense_Structure.c ****     { /* Touchpad0 */
 304:Generated_Source\PSoC4/CapSense_Structure.c ****         CapSense_TOUCHPAD0_RESOLUTION,
 305:Generated_Source\PSoC4/CapSense_Structure.c ****         CapSense_TOUCHPAD0_FINGER_TH,
 306:Generated_Source\PSoC4/CapSense_Structure.c ****         CapSense_TOUCHPAD0_NOISE_TH,
 307:Generated_Source\PSoC4/CapSense_Structure.c ****         CapSense_TOUCHPAD0_NNOISE_TH,
 308:Generated_Source\PSoC4/CapSense_Structure.c ****         CapSense_TOUCHPAD0_HYSTERESIS,
 309:Generated_Source\PSoC4/CapSense_Structure.c ****         CapSense_TOUCHPAD0_ON_DEBOUNCE,
 310:Generated_Source\PSoC4/CapSense_Structure.c ****         CapSense_TOUCHPAD0_LOW_BSLN_RST,
 311:Generated_Source\PSoC4/CapSense_Structure.c ****         CapSense_TOUCHPAD0_IDAC_GAIN_INDEX,
 312:Generated_Source\PSoC4/CapSense_Structure.c ****         CapSense_TOUCHPAD0_SNS_CLK_SOURCE,
 313:Generated_Source\PSoC4/CapSense_Structure.c ****         CapSense_NO_GESTURE,
 314:Generated_Source\PSoC4/CapSense_Structure.c ****         CapSense_TOUCHPAD0_VELOCITY,
 315:Generated_Source\PSoC4/CapSense_Structure.c ****         {
 316:Generated_Source\PSoC4/CapSense_Structure.c ****             {
ARM GAS  C:\Users\inspiron\AppData\Local\Temp\cc3AwUZg.s 			page 7


 317:Generated_Source\PSoC4/CapSense_Structure.c ****                 CapSense_TOUCHPAD0_TOUCH0_X,
 318:Generated_Source\PSoC4/CapSense_Structure.c ****                 CapSense_TOUCHPAD0_TOUCH0_Y,
 319:Generated_Source\PSoC4/CapSense_Structure.c ****                 CapSense_TOUCHPAD0_TOUCH0_Z,
 320:Generated_Source\PSoC4/CapSense_Structure.c ****                 CapSense_TOUCHPAD0_TOUCH0_ID,
 321:Generated_Source\PSoC4/CapSense_Structure.c ****             },
 322:Generated_Source\PSoC4/CapSense_Structure.c ****         },
 323:Generated_Source\PSoC4/CapSense_Structure.c ****     },
 324:Generated_Source\PSoC4/CapSense_Structure.c **** };
 325:Generated_Source\PSoC4/CapSense_Structure.c **** 
 326:Generated_Source\PSoC4/CapSense_Structure.c **** 
 327:Generated_Source\PSoC4/CapSense_Structure.c **** /* IDAC Initialization Data */
 328:Generated_Source\PSoC4/CapSense_Structure.c **** const uint8 CapSense_ramIdacInit[CapSense_TOTAL_SENSORS] =
 329:Generated_Source\PSoC4/CapSense_Structure.c **** {
 330:Generated_Source\PSoC4/CapSense_Structure.c ****     /* Touchpad0 */
 331:Generated_Source\PSoC4/CapSense_Structure.c ****     CapSense_TOUCHPAD0_RX0_TX0_IDAC_COMP0,
 332:Generated_Source\PSoC4/CapSense_Structure.c ****     CapSense_TOUCHPAD0_RX0_TX1_IDAC_COMP0,
 333:Generated_Source\PSoC4/CapSense_Structure.c ****     CapSense_TOUCHPAD0_RX0_TX2_IDAC_COMP0,
 334:Generated_Source\PSoC4/CapSense_Structure.c ****     CapSense_TOUCHPAD0_RX0_TX3_IDAC_COMP0,
 335:Generated_Source\PSoC4/CapSense_Structure.c ****     CapSense_TOUCHPAD0_RX0_TX4_IDAC_COMP0,
 336:Generated_Source\PSoC4/CapSense_Structure.c ****     CapSense_TOUCHPAD0_RX0_TX5_IDAC_COMP0,
 337:Generated_Source\PSoC4/CapSense_Structure.c ****     CapSense_TOUCHPAD0_RX0_TX6_IDAC_COMP0,
 338:Generated_Source\PSoC4/CapSense_Structure.c ****     CapSense_TOUCHPAD0_RX1_TX0_IDAC_COMP0,
 339:Generated_Source\PSoC4/CapSense_Structure.c ****     CapSense_TOUCHPAD0_RX1_TX1_IDAC_COMP0,
 340:Generated_Source\PSoC4/CapSense_Structure.c ****     CapSense_TOUCHPAD0_RX1_TX2_IDAC_COMP0,
 341:Generated_Source\PSoC4/CapSense_Structure.c ****     CapSense_TOUCHPAD0_RX1_TX3_IDAC_COMP0,
 342:Generated_Source\PSoC4/CapSense_Structure.c ****     CapSense_TOUCHPAD0_RX1_TX4_IDAC_COMP0,
 343:Generated_Source\PSoC4/CapSense_Structure.c ****     CapSense_TOUCHPAD0_RX1_TX5_IDAC_COMP0,
 344:Generated_Source\PSoC4/CapSense_Structure.c ****     CapSense_TOUCHPAD0_RX1_TX6_IDAC_COMP0,
 345:Generated_Source\PSoC4/CapSense_Structure.c ****     CapSense_TOUCHPAD0_RX2_TX0_IDAC_COMP0,
 346:Generated_Source\PSoC4/CapSense_Structure.c ****     CapSense_TOUCHPAD0_RX2_TX1_IDAC_COMP0,
 347:Generated_Source\PSoC4/CapSense_Structure.c ****     CapSense_TOUCHPAD0_RX2_TX2_IDAC_COMP0,
 348:Generated_Source\PSoC4/CapSense_Structure.c ****     CapSense_TOUCHPAD0_RX2_TX3_IDAC_COMP0,
 349:Generated_Source\PSoC4/CapSense_Structure.c ****     CapSense_TOUCHPAD0_RX2_TX4_IDAC_COMP0,
 350:Generated_Source\PSoC4/CapSense_Structure.c ****     CapSense_TOUCHPAD0_RX2_TX5_IDAC_COMP0,
 351:Generated_Source\PSoC4/CapSense_Structure.c ****     CapSense_TOUCHPAD0_RX2_TX6_IDAC_COMP0,
 352:Generated_Source\PSoC4/CapSense_Structure.c ****     CapSense_TOUCHPAD0_RX3_TX0_IDAC_COMP0,
 353:Generated_Source\PSoC4/CapSense_Structure.c ****     CapSense_TOUCHPAD0_RX3_TX1_IDAC_COMP0,
 354:Generated_Source\PSoC4/CapSense_Structure.c ****     CapSense_TOUCHPAD0_RX3_TX2_IDAC_COMP0,
 355:Generated_Source\PSoC4/CapSense_Structure.c ****     CapSense_TOUCHPAD0_RX3_TX3_IDAC_COMP0,
 356:Generated_Source\PSoC4/CapSense_Structure.c ****     CapSense_TOUCHPAD0_RX3_TX4_IDAC_COMP0,
 357:Generated_Source\PSoC4/CapSense_Structure.c ****     CapSense_TOUCHPAD0_RX3_TX5_IDAC_COMP0,
 358:Generated_Source\PSoC4/CapSense_Structure.c ****     CapSense_TOUCHPAD0_RX3_TX6_IDAC_COMP0,
 359:Generated_Source\PSoC4/CapSense_Structure.c ****     CapSense_TOUCHPAD0_RX4_TX0_IDAC_COMP0,
 360:Generated_Source\PSoC4/CapSense_Structure.c ****     CapSense_TOUCHPAD0_RX4_TX1_IDAC_COMP0,
 361:Generated_Source\PSoC4/CapSense_Structure.c ****     CapSense_TOUCHPAD0_RX4_TX2_IDAC_COMP0,
 362:Generated_Source\PSoC4/CapSense_Structure.c ****     CapSense_TOUCHPAD0_RX4_TX3_IDAC_COMP0,
 363:Generated_Source\PSoC4/CapSense_Structure.c ****     CapSense_TOUCHPAD0_RX4_TX4_IDAC_COMP0,
 364:Generated_Source\PSoC4/CapSense_Structure.c ****     CapSense_TOUCHPAD0_RX4_TX5_IDAC_COMP0,
 365:Generated_Source\PSoC4/CapSense_Structure.c ****     CapSense_TOUCHPAD0_RX4_TX6_IDAC_COMP0,
 366:Generated_Source\PSoC4/CapSense_Structure.c ****     CapSense_TOUCHPAD0_RX5_TX0_IDAC_COMP0,
 367:Generated_Source\PSoC4/CapSense_Structure.c ****     CapSense_TOUCHPAD0_RX5_TX1_IDAC_COMP0,
 368:Generated_Source\PSoC4/CapSense_Structure.c ****     CapSense_TOUCHPAD0_RX5_TX2_IDAC_COMP0,
 369:Generated_Source\PSoC4/CapSense_Structure.c ****     CapSense_TOUCHPAD0_RX5_TX3_IDAC_COMP0,
 370:Generated_Source\PSoC4/CapSense_Structure.c ****     CapSense_TOUCHPAD0_RX5_TX4_IDAC_COMP0,
 371:Generated_Source\PSoC4/CapSense_Structure.c ****     CapSense_TOUCHPAD0_RX5_TX5_IDAC_COMP0,
 372:Generated_Source\PSoC4/CapSense_Structure.c ****     CapSense_TOUCHPAD0_RX5_TX6_IDAC_COMP0,
 373:Generated_Source\PSoC4/CapSense_Structure.c ****     CapSense_TOUCHPAD0_RX6_TX0_IDAC_COMP0,
ARM GAS  C:\Users\inspiron\AppData\Local\Temp\cc3AwUZg.s 			page 8


 374:Generated_Source\PSoC4/CapSense_Structure.c ****     CapSense_TOUCHPAD0_RX6_TX1_IDAC_COMP0,
 375:Generated_Source\PSoC4/CapSense_Structure.c ****     CapSense_TOUCHPAD0_RX6_TX2_IDAC_COMP0,
 376:Generated_Source\PSoC4/CapSense_Structure.c ****     CapSense_TOUCHPAD0_RX6_TX3_IDAC_COMP0,
 377:Generated_Source\PSoC4/CapSense_Structure.c ****     CapSense_TOUCHPAD0_RX6_TX4_IDAC_COMP0,
 378:Generated_Source\PSoC4/CapSense_Structure.c ****     CapSense_TOUCHPAD0_RX6_TX5_IDAC_COMP0,
 379:Generated_Source\PSoC4/CapSense_Structure.c ****     CapSense_TOUCHPAD0_RX6_TX6_IDAC_COMP0,
 380:Generated_Source\PSoC4/CapSense_Structure.c **** };
 381:Generated_Source\PSoC4/CapSense_Structure.c **** 
 382:Generated_Source\PSoC4/CapSense_Structure.c **** 
 383:Generated_Source\PSoC4/CapSense_Structure.c **** 
 384:Generated_Source\PSoC4/CapSense_Structure.c **** /* Gesture Initialization Data */
 385:Generated_Source\PSoC4/CapSense_Structure.c **** const CapSense_TMG_CONFIG_STRUCT CapSense_ramGesturesInit =
 386:Generated_Source\PSoC4/CapSense_Structure.c **** {
 387:Generated_Source\PSoC4/CapSense_Structure.c ****     sizeof(CapSense_TMG_CONFIG_STRUCT),
 388:Generated_Source\PSoC4/CapSense_Structure.c ****     8u,
 389:Generated_Source\PSoC4/CapSense_Structure.c ****     8u,
 390:Generated_Source\PSoC4/CapSense_Structure.c ****     CapSense_TOUCHPAD0_DTZM_XPOS_TH,
 391:Generated_Source\PSoC4/CapSense_Structure.c ****     CapSense_TOUCHPAD0_DTZM_YPOS_TH,
 392:Generated_Source\PSoC4/CapSense_Structure.c ****     CapSense_TOUCHPAD0_STFK_POS_TH,
 393:Generated_Source\PSoC4/CapSense_Structure.c ****     CapSense_TOUCHPAD0_STFK_YPOS_TH,
 394:Generated_Source\PSoC4/CapSense_Structure.c ****     CapSense_TOUCHPAD0_STSL_XPOS_TH1,
 395:Generated_Source\PSoC4/CapSense_Structure.c ****     CapSense_TOUCHPAD0_STSL_XPOS_TH2,
 396:Generated_Source\PSoC4/CapSense_Structure.c ****     CapSense_TOUCHPAD0_STSL_XPOS_TH3,
 397:Generated_Source\PSoC4/CapSense_Structure.c ****     CapSense_TOUCHPAD0_STSL_XPOS_TH4,
 398:Generated_Source\PSoC4/CapSense_Structure.c ****     CapSense_TOUCHPAD0_STSL_YPOS_TH1,
 399:Generated_Source\PSoC4/CapSense_Structure.c ****     CapSense_TOUCHPAD0_STSL_YPOS_TH2,
 400:Generated_Source\PSoC4/CapSense_Structure.c ****     CapSense_TOUCHPAD0_STSL_YPOS_TH3,
 401:Generated_Source\PSoC4/CapSense_Structure.c ****     CapSense_TOUCHPAD0_STSL_YPOS_TH4,
 402:Generated_Source\PSoC4/CapSense_Structure.c ****     CapSense_TOUCHPAD0_STSL_SCROLL_STEP1,
 403:Generated_Source\PSoC4/CapSense_Structure.c ****     CapSense_TOUCHPAD0_STSL_SCROLL_STEP2,
 404:Generated_Source\PSoC4/CapSense_Structure.c ****     CapSense_TOUCHPAD0_STSL_SCROLL_STEP3,
 405:Generated_Source\PSoC4/CapSense_Structure.c ****     CapSense_TOUCHPAD0_STSL_SCROLL_STEP4,
 406:Generated_Source\PSoC4/CapSense_Structure.c ****     CapSense_TOUCHPAD0_STSL_DEBOUNCE,
 407:Generated_Source\PSoC4/CapSense_Structure.c ****     CapSense_TOUCHPAD0_DTSL_XPOS_TH1,
 408:Generated_Source\PSoC4/CapSense_Structure.c ****     CapSense_TOUCHPAD0_DTSL_XPOS_TH2,
 409:Generated_Source\PSoC4/CapSense_Structure.c ****     CapSense_TOUCHPAD0_DTSL_XPOS_TH3,
 410:Generated_Source\PSoC4/CapSense_Structure.c ****     CapSense_TOUCHPAD0_DTSL_XPOS_TH4,
 411:Generated_Source\PSoC4/CapSense_Structure.c ****     CapSense_TOUCHPAD0_DTSL_YPOS_TH1,
 412:Generated_Source\PSoC4/CapSense_Structure.c ****     CapSense_TOUCHPAD0_DTSL_YPOS_TH2,
 413:Generated_Source\PSoC4/CapSense_Structure.c ****     CapSense_TOUCHPAD0_DTSL_YPOS_TH3,
 414:Generated_Source\PSoC4/CapSense_Structure.c ****     CapSense_TOUCHPAD0_DTSL_YPOS_TH4,
 415:Generated_Source\PSoC4/CapSense_Structure.c ****     CapSense_TOUCHPAD0_DTSL_SCROLL_STEP1,
 416:Generated_Source\PSoC4/CapSense_Structure.c ****     CapSense_TOUCHPAD0_DTSL_SCROLL_STEP2,
 417:Generated_Source\PSoC4/CapSense_Structure.c ****     CapSense_TOUCHPAD0_DTSL_SCROLL_STEP3,
 418:Generated_Source\PSoC4/CapSense_Structure.c ****     CapSense_TOUCHPAD0_DTSL_SCROLL_STEP4,
 419:Generated_Source\PSoC4/CapSense_Structure.c ****     CapSense_TOUCHPAD0_DTSL_DEBOUNCE,
 420:Generated_Source\PSoC4/CapSense_Structure.c ****     CapSense_TOUCHPAD0_DTZM_SCROLL_ZOOM_DEBOUNCE,
 421:Generated_Source\PSoC4/CapSense_Structure.c ****     CapSense_TOUCHPAD0_STSL_XPOS_TH,
 422:Generated_Source\PSoC4/CapSense_Structure.c ****     CapSense_TOUCHPAD0_STSL_YPOS_TH,
 423:Generated_Source\PSoC4/CapSense_Structure.c ****     CapSense_TOUCHPAD0_STSL_COUNT_LEVEL,
 424:Generated_Source\PSoC4/CapSense_Structure.c ****     CapSense_TOUCHPAD0_DTSL_XPOS_TH,
 425:Generated_Source\PSoC4/CapSense_Structure.c ****     CapSense_TOUCHPAD0_DTSL_YPOS_TH,
 426:Generated_Source\PSoC4/CapSense_Structure.c ****     CapSense_TOUCHPAD0_DTSL_COUNT_LEVEL,
 427:Generated_Source\PSoC4/CapSense_Structure.c ****     CapSense_TOUCHPAD0_STES_POS_TH,
 428:Generated_Source\PSoC4/CapSense_Structure.c ****     CapSense_TOUCHPAD0_STES_TOP_ANGLE_TH,
 429:Generated_Source\PSoC4/CapSense_Structure.c ****     CapSense_TOUCHPAD0_STES_BOTTOM_ANGLE_TH,
 430:Generated_Source\PSoC4/CapSense_Structure.c ****     CapSense_TOUCHPAD0_STES_DISAM_AREA_WIDTH,
ARM GAS  C:\Users\inspiron\AppData\Local\Temp\cc3AwUZg.s 			page 9


 431:Generated_Source\PSoC4/CapSense_Structure.c ****     3u,
 432:Generated_Source\PSoC4/CapSense_Structure.c ****     CapSense_TOUCHPAD0_DTZM_DEBOUNCE,
 433:Generated_Source\PSoC4/CapSense_Structure.c ****     CapSense_TOUCHPAD0_DTZM_DEBOUNCE,
 434:Generated_Source\PSoC4/CapSense_Structure.c ****     3u,
 435:Generated_Source\PSoC4/CapSense_Structure.c ****     CapSense_TOUCHPAD0_STRT_ROTATE_DEBOUNCE,
 436:Generated_Source\PSoC4/CapSense_Structure.c ****     0u,
 437:Generated_Source\PSoC4/CapSense_Structure.c ****     CapSense_TOUCHPAD0_STDC_MAX_RADIUS_DISPLACEMENT,
 438:Generated_Source\PSoC4/CapSense_Structure.c ****     CapSense_TOUCHPAD0_STSC_XMAX_POS_DISPLACEMENT,
 439:Generated_Source\PSoC4/CapSense_Structure.c ****     CapSense_TOUCHPAD0_STSC_YMAX_POS_DISPLACEMENT,
 440:Generated_Source\PSoC4/CapSense_Structure.c ****     CapSense_TOUCHPAD0_DT_SETTLING_TIME,
 441:Generated_Source\PSoC4/CapSense_Structure.c ****     CapSense_TOUCHPAD0_X_RESOLUTION,
 442:Generated_Source\PSoC4/CapSense_Structure.c ****     CapSense_TOUCHPAD0_Y_RESOLUTION,
 443:Generated_Source\PSoC4/CapSense_Structure.c ****     CapSense_TOUCHPAD0_STFK_MAX_SAMPLE_INTERVAL,
 444:Generated_Source\PSoC4/CapSense_Structure.c ****     CapSense_TOUCHPAD0_STES_TIMEOUT_INTERVAL,
 445:Generated_Source\PSoC4/CapSense_Structure.c ****     CapSense_TOUCHPAD0_DTSC_MAX_TOUCH_DURATION,
 446:Generated_Source\PSoC4/CapSense_Structure.c ****     CapSense_TOUCHPAD0_DTSC_MIN_TOUCH_DURATION,
 447:Generated_Source\PSoC4/CapSense_Structure.c ****     CapSense_TOUCHPAD0_STSC_MAX_TOUCH_DURATION,
 448:Generated_Source\PSoC4/CapSense_Structure.c ****     CapSense_TOUCHPAD0_STSC_MIN_TOUCH_DURATION,
 449:Generated_Source\PSoC4/CapSense_Structure.c ****     CapSense_TOUCHPAD0_STDC_MAX_TOUCH_INTERVAL,
 450:Generated_Source\PSoC4/CapSense_Structure.c ****     CapSense_TOUCHPAD0_STDC_MIN_TOUCH_INTERVAL,
 451:Generated_Source\PSoC4/CapSense_Structure.c ****     240u,
 452:Generated_Source\PSoC4/CapSense_Structure.c ****     40u,
 453:Generated_Source\PSoC4/CapSense_Structure.c ****     41u,
 454:Generated_Source\PSoC4/CapSense_Structure.c ****     48u,
 455:Generated_Source\PSoC4/CapSense_Structure.c ****     63u,
 456:Generated_Source\PSoC4/CapSense_Structure.c ****     72u,
 457:Generated_Source\PSoC4/CapSense_Structure.c ****     73u,
 458:Generated_Source\PSoC4/CapSense_Structure.c ****     144u,
 459:Generated_Source\PSoC4/CapSense_Structure.c ****     159u,
 460:Generated_Source\PSoC4/CapSense_Structure.c **** };
 461:Generated_Source\PSoC4/CapSense_Structure.c **** 
 462:Generated_Source\PSoC4/CapSense_Structure.c **** 
 463:Generated_Source\PSoC4/CapSense_Structure.c **** 
 464:Generated_Source\PSoC4/CapSense_Structure.c **** /*******************************************************************************
 465:Generated_Source\PSoC4/CapSense_Structure.c **** * Defines internal data types and statements
 466:Generated_Source\PSoC4/CapSense_Structure.c **** *******************************************************************************/
 467:Generated_Source\PSoC4/CapSense_Structure.c **** #define PARAM_TYPE_OFFSET       (30u)
 468:Generated_Source\PSoC4/CapSense_Structure.c **** #define PARAM_TYPE_MASK         (3Lu << PARAM_TYPE_OFFSET)
 469:Generated_Source\PSoC4/CapSense_Structure.c **** #define PARAM_RWBIT_OFFSET      (29u)
 470:Generated_Source\PSoC4/CapSense_Structure.c **** #define PARAM_RWBIT_MASK        (1Lu << PARAM_RWBIT_OFFSET)
 471:Generated_Source\PSoC4/CapSense_Structure.c **** #define PARAM_FBIT_OFFSET       (28u)
 472:Generated_Source\PSoC4/CapSense_Structure.c **** #define PARAM_FBIT_MASK         (1Lu << PARAM_FBIT_OFFSET)
 473:Generated_Source\PSoC4/CapSense_Structure.c **** #define PARAM_UBIT_OFFSET       (23u)
 474:Generated_Source\PSoC4/CapSense_Structure.c **** #define PARAM_UBIT_MASK         (1Lu << PARAM_UBIT_OFFSET)
 475:Generated_Source\PSoC4/CapSense_Structure.c **** #define PARAM_WDID_OFFSET       (16u)
 476:Generated_Source\PSoC4/CapSense_Structure.c **** #define PARAM_WDID_MASK         (0x7FLu << PARAM_WDID_OFFSET)
 477:Generated_Source\PSoC4/CapSense_Structure.c **** #define PARAM_CRC_OFFSET        (24u)
 478:Generated_Source\PSoC4/CapSense_Structure.c **** #define PARAM_CRC_MASK          (0x0FLu << PARAM_CRC_OFFSET)
 479:Generated_Source\PSoC4/CapSense_Structure.c **** 
 480:Generated_Source\PSoC4/CapSense_Structure.c **** /* Defines align masks for uint16 and uint32 */
 481:Generated_Source\PSoC4/CapSense_Structure.c **** #define UINT16_ALIGN_MASK       (1Lu)
 482:Generated_Source\PSoC4/CapSense_Structure.c **** #define UINT32_ALIGN_MASK       (3Lu)
 483:Generated_Source\PSoC4/CapSense_Structure.c **** 
 484:Generated_Source\PSoC4/CapSense_Structure.c **** /* Defines supported parameter types */
 485:Generated_Source\PSoC4/CapSense_Structure.c **** #define DS_PARAM_TYPE_UINT8     (0x01u)
 486:Generated_Source\PSoC4/CapSense_Structure.c **** #define DS_PARAM_TYPE_UINT16    (0x02u)
 487:Generated_Source\PSoC4/CapSense_Structure.c **** #define DS_PARAM_TYPE_UINT32    (0x03u)
ARM GAS  C:\Users\inspiron\AppData\Local\Temp\cc3AwUZg.s 			page 10


 488:Generated_Source\PSoC4/CapSense_Structure.c **** 
 489:Generated_Source\PSoC4/CapSense_Structure.c **** 
 490:Generated_Source\PSoC4/CapSense_Structure.c **** /* Defines PARAM_ID structure */
 491:Generated_Source\PSoC4/CapSense_Structure.c **** typedef struct
 492:Generated_Source\PSoC4/CapSense_Structure.c **** {
 493:Generated_Source\PSoC4/CapSense_Structure.c ****     uint16 offset;      /* parameter offset */
 494:Generated_Source\PSoC4/CapSense_Structure.c ****     uint8  widgetId;    /* widget Id parameter belongs to */
 495:Generated_Source\PSoC4/CapSense_Structure.c ****     uint8  affectsCrc;  /* parameter affects widget CRC */
 496:Generated_Source\PSoC4/CapSense_Structure.c ****     uint8  crc;         /* parameter CRC */
 497:Generated_Source\PSoC4/CapSense_Structure.c ****     uint8  flash;       /* parameter located in FLASH flag */
 498:Generated_Source\PSoC4/CapSense_Structure.c ****     uint8  rw;          /* parameter is read/write flag */
 499:Generated_Source\PSoC4/CapSense_Structure.c ****     uint8  type;        /* parameter type: uint8/uint16/uint32 */
 500:Generated_Source\PSoC4/CapSense_Structure.c **** } PARAM_ID_STRUCT;
 501:Generated_Source\PSoC4/CapSense_Structure.c **** 
 502:Generated_Source\PSoC4/CapSense_Structure.c **** 
 503:Generated_Source\PSoC4/CapSense_Structure.c **** /*******************************************************************************
 504:Generated_Source\PSoC4/CapSense_Structure.c **** * Static Function Prototypes
 505:Generated_Source\PSoC4/CapSense_Structure.c **** *******************************************************************************/
 506:Generated_Source\PSoC4/CapSense_Structure.c **** /**
 507:Generated_Source\PSoC4/CapSense_Structure.c **** * \cond SECTION_C_INTERNAL
 508:Generated_Source\PSoC4/CapSense_Structure.c **** * \addtogroup group_c_internal
 509:Generated_Source\PSoC4/CapSense_Structure.c **** * \{
 510:Generated_Source\PSoC4/CapSense_Structure.c **** */
 511:Generated_Source\PSoC4/CapSense_Structure.c **** 
 512:Generated_Source\PSoC4/CapSense_Structure.c **** 
 513:Generated_Source\PSoC4/CapSense_Structure.c **** 
 514:Generated_Source\PSoC4/CapSense_Structure.c **** static cystatus DsParseParamId(uint32 paramId, PARAM_ID_STRUCT *pData);
 515:Generated_Source\PSoC4/CapSense_Structure.c **** 
 516:Generated_Source\PSoC4/CapSense_Structure.c **** /** \}
 517:Generated_Source\PSoC4/CapSense_Structure.c **** * \endcond */
 518:Generated_Source\PSoC4/CapSense_Structure.c **** 
 519:Generated_Source\PSoC4/CapSense_Structure.c **** 
 520:Generated_Source\PSoC4/CapSense_Structure.c **** /*******************************************************************************
 521:Generated_Source\PSoC4/CapSense_Structure.c **** * Function Name: CapSense_DsInitialize
 522:Generated_Source\PSoC4/CapSense_Structure.c **** ****************************************************************************//**
 523:Generated_Source\PSoC4/CapSense_Structure.c **** *
 524:Generated_Source\PSoC4/CapSense_Structure.c **** * \brief
 525:Generated_Source\PSoC4/CapSense_Structure.c **** *   This function initializes the Data Structure storage.
 526:Generated_Source\PSoC4/CapSense_Structure.c **** *
 527:Generated_Source\PSoC4/CapSense_Structure.c **** * \details
 528:Generated_Source\PSoC4/CapSense_Structure.c **** *   This function copies the default widget configuration parameters
 529:Generated_Source\PSoC4/CapSense_Structure.c **** *   from the Flash storage into the RAM Data Structure.
 530:Generated_Source\PSoC4/CapSense_Structure.c **** *
 531:Generated_Source\PSoC4/CapSense_Structure.c **** *******************************************************************************/
 532:Generated_Source\PSoC4/CapSense_Structure.c **** void CapSense_DsInitialize(void)
 533:Generated_Source\PSoC4/CapSense_Structure.c **** {
 534:Generated_Source\PSoC4/CapSense_Structure.c ****     #if ((CapSense_ENABLE == CapSense_CSX_EN) || \
 535:Generated_Source\PSoC4/CapSense_Structure.c ****          (CapSense_ENABLE == CapSense_CSD_IDAC_COMP_EN) || \
 536:Generated_Source\PSoC4/CapSense_Structure.c ****         ((CapSense_ENABLE == CapSense_CSX_EN) && \
 537:Generated_Source\PSoC4/CapSense_Structure.c ****          (CapSense_ENABLE == CapSense_CSX_SKIP_OVSMPL_SPECIFIC_NODES)))
 538:Generated_Source\PSoC4/CapSense_Structure.c ****         uint32 snsId;
 539:Generated_Source\PSoC4/CapSense_Structure.c ****         uint32 wdgtId;
 540:Generated_Source\PSoC4/CapSense_Structure.c ****         CapSense_RAM_SNS_STRUCT * ptrSnsTmp;
 541:Generated_Source\PSoC4/CapSense_Structure.c ****         CapSense_FLASH_WD_STRUCT const * ptrFlashWdgt;
 542:Generated_Source\PSoC4/CapSense_Structure.c ****     #endif
 543:Generated_Source\PSoC4/CapSense_Structure.c **** 
 544:Generated_Source\PSoC4/CapSense_Structure.c ****     #if ((CapSense_ENABLE == CapSense_CSX_EN) && \
ARM GAS  C:\Users\inspiron\AppData\Local\Temp\cc3AwUZg.s 			page 11


 545:Generated_Source\PSoC4/CapSense_Structure.c ****          (CapSense_ENABLE == CapSense_CSX_SKIP_OVSMPL_SPECIFIC_NODES))
 546:Generated_Source\PSoC4/CapSense_Structure.c ****         uint16 subConvNumber;
 547:Generated_Source\PSoC4/CapSense_Structure.c ****     #endif
 548:Generated_Source\PSoC4/CapSense_Structure.c **** 
 549:Generated_Source\PSoC4/CapSense_Structure.c ****     #if ((0u != CapSense_CSX_EN) || (0 != CapSense_CSD_IDAC_COMP_EN))
 550:Generated_Source\PSoC4/CapSense_Structure.c ****         uint8 const * ptrIdacInit = CapSense_ramIdacInit;
 551:Generated_Source\PSoC4/CapSense_Structure.c ****     #endif
 552:Generated_Source\PSoC4/CapSense_Structure.c **** 
 553:Generated_Source\PSoC4/CapSense_Structure.c ****     /* Reset RAM data structure content */
 554:Generated_Source\PSoC4/CapSense_Structure.c ****     (void)memset(&CapSense_dsRam, 0, sizeof(CapSense_dsRam));
 555:Generated_Source\PSoC4/CapSense_Structure.c **** 
 556:Generated_Source\PSoC4/CapSense_Structure.c ****     /* Initialize configId, deviceId and hwClock registers */
 557:Generated_Source\PSoC4/CapSense_Structure.c ****     CapSense_dsRam.configId = CapSense_CONFIG_ID;
 558:Generated_Source\PSoC4/CapSense_Structure.c ****     CapSense_dsRam.deviceId = CapSense_DEVICE_ID;
 559:Generated_Source\PSoC4/CapSense_Structure.c ****     CapSense_dsRam.hwClock = CapSense_HW_CLOCK;
 560:Generated_Source\PSoC4/CapSense_Structure.c **** 
 561:Generated_Source\PSoC4/CapSense_Structure.c ****     /* Initialize global RAM data */
 562:Generated_Source\PSoC4/CapSense_Structure.c ****     CapSense_dsRam.csd0Config = CapSense_CSD0_CONFIG;
 563:Generated_Source\PSoC4/CapSense_Structure.c **** 
 564:Generated_Source\PSoC4/CapSense_Structure.c ****     CapSense_dsRam.scanCurrentISC = CapSense_SNS_CONNECTION_UNDEFINED;
 565:Generated_Source\PSoC4/CapSense_Structure.c ****     #if (0u != CapSense_TOTAL_CSD_WIDGETS)
 566:Generated_Source\PSoC4/CapSense_Structure.c ****         CapSense_dsRam.modCsdClk = CapSense_CSD_SCANSPEED_DIVIDER;
 567:Generated_Source\PSoC4/CapSense_Structure.c ****         CapSense_dsRam.scanCsdISC = CapSense_CSD_INACTIVE_SNS_CONNECTION;
 568:Generated_Source\PSoC4/CapSense_Structure.c **** 
 569:Generated_Source\PSoC4/CapSense_Structure.c ****         #if (0u != CapSense_CSD_COMMON_SNS_CLK_EN)
 570:Generated_Source\PSoC4/CapSense_Structure.c ****             CapSense_dsRam.snsCsdClk = CapSense_CSD_SNS_CLK_DIVIDER;
 571:Generated_Source\PSoC4/CapSense_Structure.c ****         #endif /* #if (0u != CapSense_CSD_COMMON_SNS_CLK_EN) */
 572:Generated_Source\PSoC4/CapSense_Structure.c ****     #endif /* #if (0u != CapSense_TOTAL_CSD_WIDGETS) */
 573:Generated_Source\PSoC4/CapSense_Structure.c **** 
 574:Generated_Source\PSoC4/CapSense_Structure.c ****     #if (CapSense_ENABLE == CapSense_CSX_EN)
 575:Generated_Source\PSoC4/CapSense_Structure.c ****         CapSense_dsRam.modCsxClk = CapSense_CSX_SCANSPEED_DIVIDER;
 576:Generated_Source\PSoC4/CapSense_Structure.c ****         CapSense_dsRam.scanCsxISC = CapSense_CSX_INACTIVE_SNS_CONNECTION;
 577:Generated_Source\PSoC4/CapSense_Structure.c **** 
 578:Generated_Source\PSoC4/CapSense_Structure.c ****         #if (0u != CapSense_CSX_COMMON_TX_CLK_EN)
 579:Generated_Source\PSoC4/CapSense_Structure.c ****             CapSense_dsRam.snsCsxClk = CapSense_CSX_TX_CLK_DIVIDER;
 580:Generated_Source\PSoC4/CapSense_Structure.c ****         #endif /* #if (0u != CapSense_CSX_COMMON_TX_CLK_EN) */
 581:Generated_Source\PSoC4/CapSense_Structure.c ****     #endif /* #if (CapSense_ENABLE == CapSense_CSX_EN) */
 582:Generated_Source\PSoC4/CapSense_Structure.c **** 
 583:Generated_Source\PSoC4/CapSense_Structure.c ****     #if (CapSense_ENABLE == CapSense_ISX_EN)
 584:Generated_Source\PSoC4/CapSense_Structure.c ****         CapSense_dsRam.modIsxClk = CapSense_ISX_SCANSPEED_DIVIDER;
 585:Generated_Source\PSoC4/CapSense_Structure.c ****     #endif /* #if (0u != CapSense_ISX_EN) */
 586:Generated_Source\PSoC4/CapSense_Structure.c **** 
 587:Generated_Source\PSoC4/CapSense_Structure.c ****     #if (0u != CapSense_SELF_TEST_EN)
 588:Generated_Source\PSoC4/CapSense_Structure.c **** 
 589:Generated_Source\PSoC4/CapSense_Structure.c ****         CapSense_dsRam.glbCrc = CapSense_GLB_CRC;
 590:Generated_Source\PSoC4/CapSense_Structure.c ****         CapSense_dsRam.selfTestConfig.fineInitTime = (uint8)CapSense_TST_FINE_INIT_TIME;
 591:Generated_Source\PSoC4/CapSense_Structure.c ****         CapSense_dsRam.selfTestConfig.startupDelay = CapSense_TST_ANALOG_STARTUP_DELAY_US;
 592:Generated_Source\PSoC4/CapSense_Structure.c **** 
 593:Generated_Source\PSoC4/CapSense_Structure.c ****         #if (0u != CapSense_TST_SNS_SHORT_EN)
 594:Generated_Source\PSoC4/CapSense_Structure.c ****             CapSense_dsRam.selfTestConfig.snsShortTimeUs = CapSense_TST_SNS_SHORT_TIME;
 595:Generated_Source\PSoC4/CapSense_Structure.c ****         #endif
 596:Generated_Source\PSoC4/CapSense_Structure.c **** 
 597:Generated_Source\PSoC4/CapSense_Structure.c ****         #if ((0u != CapSense_TST_SNS_CAP_EN) ||\
 598:Generated_Source\PSoC4/CapSense_Structure.c ****              (0u != CapSense_TST_SH_CAP_EN))
 599:Generated_Source\PSoC4/CapSense_Structure.c ****             CapSense_dsRam.selfTestConfig.snsCapSnsClkDivider = CapSense_TST_SNS_CAP_SNS_CLK_DIVIDE
 600:Generated_Source\PSoC4/CapSense_Structure.c ****             CapSense_dsRam.selfTestConfig.snsCapSnsClkHz = CapSense_TST_SNS_CAP_SNS_CLK_HZ;
 601:Generated_Source\PSoC4/CapSense_Structure.c ****             CapSense_dsRam.selfTestConfig.snsCapResolution = CapSense_TST_SNS_CAP_RESOLUTION;
ARM GAS  C:\Users\inspiron\AppData\Local\Temp\cc3AwUZg.s 			page 12


 602:Generated_Source\PSoC4/CapSense_Structure.c ****             CapSense_dsRam.selfTestConfig.snsCapVrefGain = CapSense_TST_SNS_CAP_VREF_GAIN ;
 603:Generated_Source\PSoC4/CapSense_Structure.c ****             CapSense_dsRam.selfTestConfig.snsCapVrefVoltage = CapSense_TST_SNS_CAP_VREF_MV;
 604:Generated_Source\PSoC4/CapSense_Structure.c ****             CapSense_dsRam.selfTestConfig.snsCapModClkDivider = CapSense_TST_MOD_CLK_DIVIDER ;
 605:Generated_Source\PSoC4/CapSense_Structure.c ****             CapSense_dsRam.selfTestConfig.snsCapModClkKHz = CapSense_TST_MOD_CLK_KHZ ;
 606:Generated_Source\PSoC4/CapSense_Structure.c ****         #endif /* ((0u != CapSense_TST_SNS_CAP_EN) ||
 607:Generated_Source\PSoC4/CapSense_Structure.c ****                    (0u != CapSense_TST_SH_CAP_EN)) */
 608:Generated_Source\PSoC4/CapSense_Structure.c **** 
 609:Generated_Source\PSoC4/CapSense_Structure.c ****         #if (0u != CapSense_TST_SNS_CAP_EN)
 610:Generated_Source\PSoC4/CapSense_Structure.c ****             #if (0u != CapSense_CSD_EN)
 611:Generated_Source\PSoC4/CapSense_Structure.c ****                 CapSense_dsRam.selfTestConfig.bistCsdSnsCapISC = CapSense_SNS_CAP_CSD_INACTIVE_CONN
 612:Generated_Source\PSoC4/CapSense_Structure.c ****             #endif /* (0u != CapSense_CSD_EN) */
 613:Generated_Source\PSoC4/CapSense_Structure.c ****             #if (0u != CapSense_CSX_EN)
 614:Generated_Source\PSoC4/CapSense_Structure.c ****                 CapSense_dsRam.selfTestConfig.bistCsxSnsCapISC = CapSense_SNS_CAP_CSX_INACTIVE_CONN
 615:Generated_Source\PSoC4/CapSense_Structure.c ****             #endif /* (0u != CapSense_CSX_EN) */
 616:Generated_Source\PSoC4/CapSense_Structure.c ****         #endif /* (0u != CapSense_TST_SNS_CAP_EN) */
 617:Generated_Source\PSoC4/CapSense_Structure.c **** 
 618:Generated_Source\PSoC4/CapSense_Structure.c ****         #if (0u != CapSense_TST_SH_CAP_EN)
 619:Generated_Source\PSoC4/CapSense_Structure.c ****             #if ((0u != CapSense_CSD_EN) && (0u != CapSense_CSD_SHIELD_EN))
 620:Generated_Source\PSoC4/CapSense_Structure.c ****                 CapSense_dsRam.selfTestConfig.bistCsdShCapISC = CapSense_SHIELD_CAP_INACTIVE_CONNEC
 621:Generated_Source\PSoC4/CapSense_Structure.c ****             #endif /* ((0u != CapSense_CSD_EN) && (0u != CapSense_CSD_SHIELD_EN)) */
 622:Generated_Source\PSoC4/CapSense_Structure.c ****         #endif /* (0u != CapSense_TST_SH_CAP_EN) */
 623:Generated_Source\PSoC4/CapSense_Structure.c **** 
 624:Generated_Source\PSoC4/CapSense_Structure.c ****         #if (0u != CapSense_TST_EXTERNAL_CAP_EN)
 625:Generated_Source\PSoC4/CapSense_Structure.c ****             CapSense_dsRam.selfTestConfig.extCapVrefGain = CapSense_TST_EXT_CAP_VREF_GAIN;
 626:Generated_Source\PSoC4/CapSense_Structure.c ****             CapSense_dsRam.selfTestConfig.extCapVrefVoltage = CapSense_TST_EXT_CAP_VREF_MV;
 627:Generated_Source\PSoC4/CapSense_Structure.c ****         #endif /* #if (0u != CapSense_TST_EXTERNAL_CAP_EN) */
 628:Generated_Source\PSoC4/CapSense_Structure.c **** 
 629:Generated_Source\PSoC4/CapSense_Structure.c ****         #if (0u != CapSense_TST_VDDA_EN)
 630:Generated_Source\PSoC4/CapSense_Structure.c ****             CapSense_dsRam.selfTestConfig.vddaResolution = CapSense_TST_VDDA_RESOLUTION;
 631:Generated_Source\PSoC4/CapSense_Structure.c ****             CapSense_dsRam.selfTestConfig.vddaModClkDivider = CapSense_TST_VDDA_MOD_CLK_DIVIDER;
 632:Generated_Source\PSoC4/CapSense_Structure.c **** 
 633:Generated_Source\PSoC4/CapSense_Structure.c ****             CapSense_dsRam.selfTestConfig.vddaVrefGain = CapSense_TST_VDDA_VREF_GAIN;
 634:Generated_Source\PSoC4/CapSense_Structure.c ****             CapSense_dsRam.selfTestConfig.vddaVrefVoltage = CapSense_TST_VDDA_VREF_MV;
 635:Generated_Source\PSoC4/CapSense_Structure.c ****         #endif /* #if (0u != CapSense_TST_VDDA_EN) */
 636:Generated_Source\PSoC4/CapSense_Structure.c **** 
 637:Generated_Source\PSoC4/CapSense_Structure.c ****     #endif /* #if (0u != CapSense_SELF_TEST_EN) */
 638:Generated_Source\PSoC4/CapSense_Structure.c **** 
 639:Generated_Source\PSoC4/CapSense_Structure.c ****     /* Initialize RAM widget data */
 640:Generated_Source\PSoC4/CapSense_Structure.c ****     CapSense_dsRam.wdgtList = CapSense_ramWidgetInit;
 641:Generated_Source\PSoC4/CapSense_Structure.c **** 
 642:Generated_Source\PSoC4/CapSense_Structure.c ****     /* Initialize Gesture configuration structure */
 643:Generated_Source\PSoC4/CapSense_Structure.c ****     #if ((0u != CapSense_GES_GLOBAL_EN) || (0u != CapSense_BALLISTIC_MULTIPLIER_EN))
 644:Generated_Source\PSoC4/CapSense_Structure.c ****         CapSense_dsRam.timestampInterval = CapSense_TIMESTAMP_INTERVAL;
 645:Generated_Source\PSoC4/CapSense_Structure.c ****     #endif /* ((0u != CapSense_GES_GLOBAL_EN) || (0u != CapSense_BALLISTIC_MULTIPLIER_EN)) */
 646:Generated_Source\PSoC4/CapSense_Structure.c **** 
 647:Generated_Source\PSoC4/CapSense_Structure.c ****     #if (0u != CapSense_GES_GLOBAL_EN)
 648:Generated_Source\PSoC4/CapSense_Structure.c ****         CapSense_dsRam.gestures = CapSense_ramGesturesInit;
 649:Generated_Source\PSoC4/CapSense_Structure.c ****     #endif /* (0u != CapSense_GES_GLOBAL_EN) */
 650:Generated_Source\PSoC4/CapSense_Structure.c **** 
 651:Generated_Source\PSoC4/CapSense_Structure.c ****     #if (0u != CapSense_BALLISTIC_MULTIPLIER_EN)
 652:Generated_Source\PSoC4/CapSense_Structure.c ****         CapSense_dsRam.ballisticConfig = CapSense_ramBallisticInit;
 653:Generated_Source\PSoC4/CapSense_Structure.c ****     #endif /* (0u != CapSense_BALLISTIC_MULTIPLIER_EN) */
 654:Generated_Source\PSoC4/CapSense_Structure.c **** 
 655:Generated_Source\PSoC4/CapSense_Structure.c ****     #if (0u != CapSense_CSX_EN) || (0 != CapSense_CSD_IDAC_COMP_EN)
 656:Generated_Source\PSoC4/CapSense_Structure.c ****         /* Initialize IDAC data */
 657:Generated_Source\PSoC4/CapSense_Structure.c ****         ptrFlashWdgt = CapSense_dsFlash.wdgtArray;
 658:Generated_Source\PSoC4/CapSense_Structure.c **** 
ARM GAS  C:\Users\inspiron\AppData\Local\Temp\cc3AwUZg.s 			page 13


 659:Generated_Source\PSoC4/CapSense_Structure.c ****         for (wdgtId = CapSense_TOTAL_WIDGETS; wdgtId-- > 0u; )
 660:Generated_Source\PSoC4/CapSense_Structure.c ****         {
 661:Generated_Source\PSoC4/CapSense_Structure.c ****             ptrSnsTmp = ptrFlashWdgt->ptr2SnsRam;
 662:Generated_Source\PSoC4/CapSense_Structure.c **** 
 663:Generated_Source\PSoC4/CapSense_Structure.c ****             for (snsId = CapSense_GET_SNS_CNT_BY_PTR(ptrFlashWdgt); snsId-- > 0u;)
 664:Generated_Source\PSoC4/CapSense_Structure.c ****             {
 665:Generated_Source\PSoC4/CapSense_Structure.c ****                 ptrSnsTmp->idacComp[0u] = *ptrIdacInit;
 666:Generated_Source\PSoC4/CapSense_Structure.c ****                 ptrIdacInit++;
 667:Generated_Source\PSoC4/CapSense_Structure.c **** 
 668:Generated_Source\PSoC4/CapSense_Structure.c ****                 #if (0u != CapSense_MULTI_FREQ_SCAN_EN)
 669:Generated_Source\PSoC4/CapSense_Structure.c ****                     ptrSnsTmp->idacComp[1u] = *ptrIdacInit;
 670:Generated_Source\PSoC4/CapSense_Structure.c ****                     ptrIdacInit++;
 671:Generated_Source\PSoC4/CapSense_Structure.c **** 
 672:Generated_Source\PSoC4/CapSense_Structure.c ****                     ptrSnsTmp->idacComp[2u] = *ptrIdacInit;
 673:Generated_Source\PSoC4/CapSense_Structure.c ****                     ptrIdacInit++;
 674:Generated_Source\PSoC4/CapSense_Structure.c ****                 #endif /* #if (0u != CapSense_MULTI_FREQ_SCAN_EN) */
 675:Generated_Source\PSoC4/CapSense_Structure.c **** 
 676:Generated_Source\PSoC4/CapSense_Structure.c ****                 ptrSnsTmp++;
 677:Generated_Source\PSoC4/CapSense_Structure.c ****             }
 678:Generated_Source\PSoC4/CapSense_Structure.c **** 
 679:Generated_Source\PSoC4/CapSense_Structure.c ****             ptrFlashWdgt++; /* Move to next widget */
 680:Generated_Source\PSoC4/CapSense_Structure.c ****         }
 681:Generated_Source\PSoC4/CapSense_Structure.c ****     #endif /*(0u != CapSense_CSX_EN) || (0 != CapSense_CSD_IDAC_COMP_EN)*/
 682:Generated_Source\PSoC4/CapSense_Structure.c **** 
 683:Generated_Source\PSoC4/CapSense_Structure.c ****     #if ((CapSense_ENABLE == CapSense_CSX_EN) && \
 684:Generated_Source\PSoC4/CapSense_Structure.c ****          (CapSense_ENABLE == CapSense_CSX_SKIP_OVSMPL_SPECIFIC_NODES))
 685:Generated_Source\PSoC4/CapSense_Structure.c ****         /* Initialize Sub-Conversion Number for each node of each CSX widget */
 686:Generated_Source\PSoC4/CapSense_Structure.c ****         ptrFlashWdgt = CapSense_dsFlash.wdgtArray;
 687:Generated_Source\PSoC4/CapSense_Structure.c ****         for (wdgtId = CapSense_TOTAL_WIDGETS; wdgtId-- > 0u;)
 688:Generated_Source\PSoC4/CapSense_Structure.c ****         {
 689:Generated_Source\PSoC4/CapSense_Structure.c ****             /* Check for widget sense method */
 690:Generated_Source\PSoC4/CapSense_Structure.c ****             if (CapSense_SENSE_METHOD_CSX_E == CapSense_GET_SENSE_METHOD(ptrFlashWdgt))
 691:Generated_Source\PSoC4/CapSense_Structure.c ****             {
 692:Generated_Source\PSoC4/CapSense_Structure.c ****                 /* Take the sub-convesion number of a CSX widget and initialize each node of this w
 693:Generated_Source\PSoC4/CapSense_Structure.c ****                 subConvNumber = ((CapSense_RAM_WD_BASE_STRUCT *)(ptrFlashWdgt->ptr2WdgtRam))->resol
 694:Generated_Source\PSoC4/CapSense_Structure.c ****                 ptrSnsTmp = ptrFlashWdgt->ptr2SnsRam;
 695:Generated_Source\PSoC4/CapSense_Structure.c ****                 for (snsId = CapSense_GET_SNS_CNT_BY_PTR(ptrFlashWdgt); snsId-- > 0u;)
 696:Generated_Source\PSoC4/CapSense_Structure.c ****                 {
 697:Generated_Source\PSoC4/CapSense_Structure.c ****                     ptrSnsTmp->subConvNum = subConvNumber;
 698:Generated_Source\PSoC4/CapSense_Structure.c ****                     ptrSnsTmp++;
 699:Generated_Source\PSoC4/CapSense_Structure.c ****                 }
 700:Generated_Source\PSoC4/CapSense_Structure.c ****             }
 701:Generated_Source\PSoC4/CapSense_Structure.c ****             /* Move to the next widget */
 702:Generated_Source\PSoC4/CapSense_Structure.c ****             ptrFlashWdgt++;
 703:Generated_Source\PSoC4/CapSense_Structure.c ****         }
 704:Generated_Source\PSoC4/CapSense_Structure.c ****     #endif /* ((CapSense_ENABLE == CapSense_CSX_EN) && \
 705:Generated_Source\PSoC4/CapSense_Structure.c ****                (CapSense_ENABLE == CapSense_CSX_SKIP_OVSMPL_SPECIFIC_NODES)) */
 706:Generated_Source\PSoC4/CapSense_Structure.c **** 
 707:Generated_Source\PSoC4/CapSense_Structure.c ****     #if (0u != CapSense_ADC_EN)
 708:Generated_Source\PSoC4/CapSense_Structure.c ****         CapSense_AdcDsInitialize();
 709:Generated_Source\PSoC4/CapSense_Structure.c ****     #endif /* (0u != CapSense_ADC_EN) */
 710:Generated_Source\PSoC4/CapSense_Structure.c **** }
 711:Generated_Source\PSoC4/CapSense_Structure.c **** 
 712:Generated_Source\PSoC4/CapSense_Structure.c **** 
 713:Generated_Source\PSoC4/CapSense_Structure.c **** #if (0u != CapSense_ADC_EN)
 714:Generated_Source\PSoC4/CapSense_Structure.c ****     /*******************************************************************************
 715:Generated_Source\PSoC4/CapSense_Structure.c ****     * Function Name: CapSense_AdcDsInitialize
ARM GAS  C:\Users\inspiron\AppData\Local\Temp\cc3AwUZg.s 			page 14


 716:Generated_Source\PSoC4/CapSense_Structure.c ****     ****************************************************************************//**
 717:Generated_Source\PSoC4/CapSense_Structure.c ****     *
 718:Generated_Source\PSoC4/CapSense_Structure.c ****     * \brief
 719:Generated_Source\PSoC4/CapSense_Structure.c ****     *   Configures the initial Adc datastructure members.
 720:Generated_Source\PSoC4/CapSense_Structure.c ****     *
 721:Generated_Source\PSoC4/CapSense_Structure.c ****     *******************************************************************************/
 722:Generated_Source\PSoC4/CapSense_Structure.c ****     void CapSense_AdcDsInitialize(void)
 723:Generated_Source\PSoC4/CapSense_Structure.c ****     {
 724:Generated_Source\PSoC4/CapSense_Structure.c ****         CapSense_dsRam.adcResolution = CapSense_ADC_RESOLUTION;
 725:Generated_Source\PSoC4/CapSense_Structure.c ****         CapSense_dsRam.adcIdac = (uint8)(CapSense_ADC_IDAC_DEFAULT);
 726:Generated_Source\PSoC4/CapSense_Structure.c ****         CapSense_dsRam.adcActiveCh = CapSense_AdcNO_CHANNEL;
 727:Generated_Source\PSoC4/CapSense_Structure.c ****     }
 728:Generated_Source\PSoC4/CapSense_Structure.c **** #endif /* (0u != CapSense_ADC_EN) */
 729:Generated_Source\PSoC4/CapSense_Structure.c **** 
 730:Generated_Source\PSoC4/CapSense_Structure.c **** 
 731:Generated_Source\PSoC4/CapSense_Structure.c **** /*******************************************************************************
 732:Generated_Source\PSoC4/CapSense_Structure.c **** * Function Name: DsParseParamId
 733:Generated_Source\PSoC4/CapSense_Structure.c **** ****************************************************************************//**
 734:Generated_Source\PSoC4/CapSense_Structure.c **** *
 735:Generated_Source\PSoC4/CapSense_Structure.c **** * \brief
 736:Generated_Source\PSoC4/CapSense_Structure.c **** *   This function parses the parameter ID and checks its correctness.
 737:Generated_Source\PSoC4/CapSense_Structure.c **** *
 738:Generated_Source\PSoC4/CapSense_Structure.c **** * \details
 739:Generated_Source\PSoC4/CapSense_Structure.c **** *   This function checks the parameter CRC if the self-test is enabled,
 740:Generated_Source\PSoC4/CapSense_Structure.c **** *   validates the offset value and parameter type.
 741:Generated_Source\PSoC4/CapSense_Structure.c **** *
 742:Generated_Source\PSoC4/CapSense_Structure.c **** * \param paramId The parameter to parse.
 743:Generated_Source\PSoC4/CapSense_Structure.c **** * \param pData   The pointer to the structure that will hold parsed data.
 744:Generated_Source\PSoC4/CapSense_Structure.c **** *
 745:Generated_Source\PSoC4/CapSense_Structure.c **** * \return CYRET_SUCCESS     If the parameter is valid
 746:Generated_Source\PSoC4/CapSense_Structure.c **** *         CYRET_BAD_PARAM   If the parameter is invalid
 747:Generated_Source\PSoC4/CapSense_Structure.c **** *
 748:Generated_Source\PSoC4/CapSense_Structure.c **** *******************************************************************************/
 749:Generated_Source\PSoC4/CapSense_Structure.c **** static cystatus DsParseParamId(uint32 paramId, PARAM_ID_STRUCT *pData)
 750:Generated_Source\PSoC4/CapSense_Structure.c **** {
  27              		.loc 1 750 0
  28              		.cfi_startproc
  29              		@ args = 0, pretend = 0, frame = 0
  30              		@ frame_needed = 0, uses_anonymous_args = 0
  31              	.LVL0:
  32 0000 70B5     		push	{r4, r5, r6, lr}
  33              		.cfi_def_cfa_offset 16
  34              		.cfi_offset 4, -16
  35              		.cfi_offset 5, -12
  36              		.cfi_offset 6, -8
  37              		.cfi_offset 14, -4
  38              	.LVL1:
 751:Generated_Source\PSoC4/CapSense_Structure.c ****     cystatus result = CYRET_SUCCESS;
 752:Generated_Source\PSoC4/CapSense_Structure.c **** 
 753:Generated_Source\PSoC4/CapSense_Structure.c ****     #if (0u != CapSense_SELF_TEST_EN)
 754:Generated_Source\PSoC4/CapSense_Structure.c ****         const uint8 crcTable[] =
 755:Generated_Source\PSoC4/CapSense_Structure.c ****         {
 756:Generated_Source\PSoC4/CapSense_Structure.c ****             0x00u, 0x09u, 0x0Bu, 0x02u, 0x0Fu, 0x06u, 0x04u, 0x0Du,
 757:Generated_Source\PSoC4/CapSense_Structure.c ****             0x07u, 0x0Eu, 0x0Cu, 0x05u, 0x08u, 0x01u, 0x03u, 0x0Au
 758:Generated_Source\PSoC4/CapSense_Structure.c ****         };
 759:Generated_Source\PSoC4/CapSense_Structure.c **** 
 760:Generated_Source\PSoC4/CapSense_Structure.c ****         uint32 i;
ARM GAS  C:\Users\inspiron\AppData\Local\Temp\cc3AwUZg.s 			page 15


 761:Generated_Source\PSoC4/CapSense_Structure.c ****         uint32 actualCrc = 0u;
 762:Generated_Source\PSoC4/CapSense_Structure.c ****         uint32 crcIndex;
 763:Generated_Source\PSoC4/CapSense_Structure.c ****     #endif /* #if (0u != CapSense_SELF_TEST_EN) */
 764:Generated_Source\PSoC4/CapSense_Structure.c **** 
 765:Generated_Source\PSoC4/CapSense_Structure.c ****     /* Extract parameter data */
 766:Generated_Source\PSoC4/CapSense_Structure.c ****     pData->offset     = LO16(paramId);
  39              		.loc 1 766 0
  40 0002 85B2     		uxth	r5, r0
  41 0004 0D80     		strh	r5, [r1]
 767:Generated_Source\PSoC4/CapSense_Structure.c ****     pData->affectsCrc = LO8((paramId & PARAM_UBIT_MASK)  >> PARAM_UBIT_OFFSET);
  42              		.loc 1 767 0
  43 0006 C30D     		lsrs	r3, r0, #23
  44 0008 0124     		movs	r4, #1
  45 000a 2340     		ands	r3, r4
  46 000c CB70     		strb	r3, [r1, #3]
 768:Generated_Source\PSoC4/CapSense_Structure.c ****     pData->widgetId   = LO8((paramId & PARAM_WDID_MASK)  >> PARAM_WDID_OFFSET);
  47              		.loc 1 768 0
  48 000e 030C     		lsrs	r3, r0, #16
  49 0010 7F22     		movs	r2, #127
  50 0012 1340     		ands	r3, r2
  51 0014 8B70     		strb	r3, [r1, #2]
 769:Generated_Source\PSoC4/CapSense_Structure.c ****     pData->type       = LO8((paramId & PARAM_TYPE_MASK)  >> PARAM_TYPE_OFFSET);
  52              		.loc 1 769 0
  53 0016 860F     		lsrs	r6, r0, #30
  54 0018 CE71     		strb	r6, [r1, #7]
 770:Generated_Source\PSoC4/CapSense_Structure.c ****     pData->flash      = LO8((paramId & PARAM_FBIT_MASK)  >> PARAM_FBIT_OFFSET);
  55              		.loc 1 770 0
  56 001a 030F     		lsrs	r3, r0, #28
  57 001c 2340     		ands	r3, r4
  58 001e 4B71     		strb	r3, [r1, #5]
 771:Generated_Source\PSoC4/CapSense_Structure.c ****     pData->rw         = LO8((paramId & PARAM_RWBIT_MASK) >> PARAM_RWBIT_OFFSET);
  59              		.loc 1 771 0
  60 0020 420F     		lsrs	r2, r0, #29
  61 0022 2240     		ands	r2, r4
  62 0024 8A71     		strb	r2, [r1, #6]
 772:Generated_Source\PSoC4/CapSense_Structure.c ****     pData->crc        = LO8((paramId & PARAM_CRC_MASK)   >> PARAM_CRC_OFFSET);
  63              		.loc 1 772 0
  64 0026 000E     		lsrs	r0, r0, #24
  65              	.LVL2:
  66 0028 0E34     		adds	r4, r4, #14
  67 002a 2040     		ands	r0, r4
  68 002c 0871     		strb	r0, [r1, #4]
 773:Generated_Source\PSoC4/CapSense_Structure.c **** 
 774:Generated_Source\PSoC4/CapSense_Structure.c ****     /* Check parameter CRC if self-test is enabled */
 775:Generated_Source\PSoC4/CapSense_Structure.c ****     #if (0u != CapSense_SELF_TEST_EN)
 776:Generated_Source\PSoC4/CapSense_Structure.c **** 
 777:Generated_Source\PSoC4/CapSense_Structure.c ****         /* Calculate CRC for bits 0..24.
 778:Generated_Source\PSoC4/CapSense_Structure.c ****          * The CRC is calculated using nibbles (4-bits).
 779:Generated_Source\PSoC4/CapSense_Structure.c ****          * So for 0..24 bits there are in total 6 nibbles. */
 780:Generated_Source\PSoC4/CapSense_Structure.c ****         for (i = 6u; i > 0u; i--)
 781:Generated_Source\PSoC4/CapSense_Structure.c ****         {
 782:Generated_Source\PSoC4/CapSense_Structure.c ****             crcIndex = actualCrc ^ (paramId & 0x0Fu);
 783:Generated_Source\PSoC4/CapSense_Structure.c ****             actualCrc = crcTable[crcIndex];
 784:Generated_Source\PSoC4/CapSense_Structure.c ****             paramId >>= 4u;
 785:Generated_Source\PSoC4/CapSense_Structure.c ****         }
 786:Generated_Source\PSoC4/CapSense_Structure.c **** 
 787:Generated_Source\PSoC4/CapSense_Structure.c ****         /* Add bits 28..32 */
ARM GAS  C:\Users\inspiron\AppData\Local\Temp\cc3AwUZg.s 			page 16


 788:Generated_Source\PSoC4/CapSense_Structure.c ****         crcIndex = actualCrc ^ ((paramId >> 4u) & 0x0Fu);
 789:Generated_Source\PSoC4/CapSense_Structure.c ****         actualCrc = crcTable[crcIndex];
 790:Generated_Source\PSoC4/CapSense_Structure.c **** 
 791:Generated_Source\PSoC4/CapSense_Structure.c ****         /* Add bits 24..28 (CRC) */
 792:Generated_Source\PSoC4/CapSense_Structure.c ****         crcIndex = actualCrc ^ (paramId & 0x0Fu);
 793:Generated_Source\PSoC4/CapSense_Structure.c ****         actualCrc = crcTable[crcIndex];
 794:Generated_Source\PSoC4/CapSense_Structure.c **** 
 795:Generated_Source\PSoC4/CapSense_Structure.c ****         if (0u != actualCrc)
 796:Generated_Source\PSoC4/CapSense_Structure.c ****         {
 797:Generated_Source\PSoC4/CapSense_Structure.c ****             /* CRC mismatch */
 798:Generated_Source\PSoC4/CapSense_Structure.c ****             result = CYRET_BAD_PARAM;
 799:Generated_Source\PSoC4/CapSense_Structure.c ****         }
 800:Generated_Source\PSoC4/CapSense_Structure.c **** 
 801:Generated_Source\PSoC4/CapSense_Structure.c ****         if ((CYRET_SUCCESS == result) &&
 802:Generated_Source\PSoC4/CapSense_Structure.c ****             (0u != pData->affectsCrc) && (pData->widgetId >= CapSense_TOTAL_WIDGETS ))
 803:Generated_Source\PSoC4/CapSense_Structure.c ****         {
 804:Generated_Source\PSoC4/CapSense_Structure.c ****             /* Wrong widgetId for protected parameter */
 805:Generated_Source\PSoC4/CapSense_Structure.c ****             result = CYRET_BAD_PARAM;
 806:Generated_Source\PSoC4/CapSense_Structure.c ****         }
 807:Generated_Source\PSoC4/CapSense_Structure.c **** 
 808:Generated_Source\PSoC4/CapSense_Structure.c ****         /* Check offset value range */
 809:Generated_Source\PSoC4/CapSense_Structure.c ****         if (CYRET_SUCCESS == result)
 810:Generated_Source\PSoC4/CapSense_Structure.c ****         {
 811:Generated_Source\PSoC4/CapSense_Structure.c ****             if (0u == pData->flash)
 812:Generated_Source\PSoC4/CapSense_Structure.c ****             {
 813:Generated_Source\PSoC4/CapSense_Structure.c ****                 /* Check offset for RAM Data Structure range */
 814:Generated_Source\PSoC4/CapSense_Structure.c ****                 if (pData->offset >= sizeof(CapSense_dsRam))
 815:Generated_Source\PSoC4/CapSense_Structure.c ****                 {
 816:Generated_Source\PSoC4/CapSense_Structure.c ****                     result = CYRET_BAD_PARAM;
 817:Generated_Source\PSoC4/CapSense_Structure.c ****                 }
 818:Generated_Source\PSoC4/CapSense_Structure.c ****             }
 819:Generated_Source\PSoC4/CapSense_Structure.c ****             else
 820:Generated_Source\PSoC4/CapSense_Structure.c ****             {
 821:Generated_Source\PSoC4/CapSense_Structure.c ****                 /* Check offset for Flash Data Structure range */
 822:Generated_Source\PSoC4/CapSense_Structure.c ****                 if (pData->offset >= sizeof(CapSense_dsFlash))
 823:Generated_Source\PSoC4/CapSense_Structure.c ****                 {
 824:Generated_Source\PSoC4/CapSense_Structure.c ****                     result = CYRET_BAD_PARAM;
 825:Generated_Source\PSoC4/CapSense_Structure.c ****                 }
 826:Generated_Source\PSoC4/CapSense_Structure.c **** 
 827:Generated_Source\PSoC4/CapSense_Structure.c ****                 /* Check if it is marked as Read Only */
 828:Generated_Source\PSoC4/CapSense_Structure.c ****                 if (0u != pData->rw)
 829:Generated_Source\PSoC4/CapSense_Structure.c ****                 {
 830:Generated_Source\PSoC4/CapSense_Structure.c ****                     result = CYRET_BAD_PARAM;
 831:Generated_Source\PSoC4/CapSense_Structure.c ****                 }
 832:Generated_Source\PSoC4/CapSense_Structure.c ****             }
 833:Generated_Source\PSoC4/CapSense_Structure.c ****         }
 834:Generated_Source\PSoC4/CapSense_Structure.c ****     #else /* #if (0u != CapSense_SELF_TEST_EN) */
 835:Generated_Source\PSoC4/CapSense_Structure.c ****         /* Check offset value range */
 836:Generated_Source\PSoC4/CapSense_Structure.c ****         if (0u == pData->flash)
  69              		.loc 1 836 0
  70 002e 002B     		cmp	r3, #0
  71 0030 04D1     		bne	.L2
 837:Generated_Source\PSoC4/CapSense_Structure.c ****         {
 838:Generated_Source\PSoC4/CapSense_Structure.c ****             /* Check offset for RAM Data Structure range */
 839:Generated_Source\PSoC4/CapSense_Structure.c ****             if (pData->offset >= sizeof(CapSense_dsRam))
  72              		.loc 1 839 0
  73 0032 124B     		ldr	r3, .L16
ARM GAS  C:\Users\inspiron\AppData\Local\Temp\cc3AwUZg.s 			page 17


  74 0034 9D42     		cmp	r5, r3
  75 0036 09D8     		bhi	.L9
 751:Generated_Source\PSoC4/CapSense_Structure.c **** 
  76              		.loc 1 751 0
  77 0038 0020     		movs	r0, #0
  78 003a 0AE0     		b	.L3
  79              	.L2:
 840:Generated_Source\PSoC4/CapSense_Structure.c ****             {
 841:Generated_Source\PSoC4/CapSense_Structure.c ****                 result = CYRET_BAD_PARAM;
 842:Generated_Source\PSoC4/CapSense_Structure.c ****             }
 843:Generated_Source\PSoC4/CapSense_Structure.c ****         }
 844:Generated_Source\PSoC4/CapSense_Structure.c ****         else
 845:Generated_Source\PSoC4/CapSense_Structure.c ****         {
 846:Generated_Source\PSoC4/CapSense_Structure.c ****             /* Check offset for Flash Data Structure range */
 847:Generated_Source\PSoC4/CapSense_Structure.c ****             if (pData->offset >= sizeof(CapSense_dsFlash))
  80              		.loc 1 847 0
  81 003c 372D     		cmp	r5, #55
  82 003e 01D8     		bhi	.L10
 751:Generated_Source\PSoC4/CapSense_Structure.c **** 
  83              		.loc 1 751 0
  84 0040 0020     		movs	r0, #0
  85 0042 00E0     		b	.L4
  86              	.L10:
 848:Generated_Source\PSoC4/CapSense_Structure.c ****             {
 849:Generated_Source\PSoC4/CapSense_Structure.c ****                 result = CYRET_BAD_PARAM;
  87              		.loc 1 849 0
  88 0044 0120     		movs	r0, #1
  89              	.L4:
  90              	.LVL3:
 850:Generated_Source\PSoC4/CapSense_Structure.c ****             }
 851:Generated_Source\PSoC4/CapSense_Structure.c **** 
 852:Generated_Source\PSoC4/CapSense_Structure.c ****             /* Check if it is marked as Read Only */
 853:Generated_Source\PSoC4/CapSense_Structure.c ****             if (0u != pData->rw)
  91              		.loc 1 853 0
  92 0046 002A     		cmp	r2, #0
  93 0048 02D1     		bne	.L11
  94 004a 02E0     		b	.L3
  95              	.LVL4:
  96              	.L9:
 841:Generated_Source\PSoC4/CapSense_Structure.c ****             }
  97              		.loc 1 841 0
  98 004c 0120     		movs	r0, #1
  99 004e 00E0     		b	.L3
 100              	.LVL5:
 101              	.L11:
 854:Generated_Source\PSoC4/CapSense_Structure.c ****             {
 855:Generated_Source\PSoC4/CapSense_Structure.c ****                 result = CYRET_BAD_PARAM;
 102              		.loc 1 855 0
 103 0050 0120     		movs	r0, #1
 104              	.LVL6:
 105              	.L3:
 856:Generated_Source\PSoC4/CapSense_Structure.c ****             }
 857:Generated_Source\PSoC4/CapSense_Structure.c ****         }
 858:Generated_Source\PSoC4/CapSense_Structure.c ****     #endif /* #if (0u != CapSense_SELF_TEST_EN) */
 859:Generated_Source\PSoC4/CapSense_Structure.c **** 
 860:Generated_Source\PSoC4/CapSense_Structure.c ****     if (CYRET_SUCCESS == result)
 106              		.loc 1 860 0
ARM GAS  C:\Users\inspiron\AppData\Local\Temp\cc3AwUZg.s 			page 18


 107 0052 0028     		cmp	r0, #0
 108 0054 11D1     		bne	.L5
 861:Generated_Source\PSoC4/CapSense_Structure.c ****     {
 862:Generated_Source\PSoC4/CapSense_Structure.c ****         /* Check parameter type, offset alignment */
 863:Generated_Source\PSoC4/CapSense_Structure.c ****         switch (pData->type)
 109              		.loc 1 863 0
 110 0056 022E     		cmp	r6, #2
 111 0058 04D0     		beq	.L6
 112 005a 032E     		cmp	r6, #3
 113 005c 05D0     		beq	.L7
 114 005e 012E     		cmp	r6, #1
 115 0060 06D1     		bne	.L15
 116 0062 0AE0     		b	.L5
 117              	.L6:
 864:Generated_Source\PSoC4/CapSense_Structure.c ****         {
 865:Generated_Source\PSoC4/CapSense_Structure.c ****         case DS_PARAM_TYPE_UINT16:
 866:Generated_Source\PSoC4/CapSense_Structure.c ****             if (0u != (pData->offset & UINT16_ALIGN_MASK))
 118              		.loc 1 866 0
 119 0064 EB07     		lsls	r3, r5, #31
 120 0066 05D4     		bmi	.L13
 121 0068 07E0     		b	.L5
 122              	.L7:
 867:Generated_Source\PSoC4/CapSense_Structure.c ****             {
 868:Generated_Source\PSoC4/CapSense_Structure.c ****                 result = CYRET_BAD_PARAM;
 869:Generated_Source\PSoC4/CapSense_Structure.c ****             }
 870:Generated_Source\PSoC4/CapSense_Structure.c ****             break;
 871:Generated_Source\PSoC4/CapSense_Structure.c **** 
 872:Generated_Source\PSoC4/CapSense_Structure.c ****         case DS_PARAM_TYPE_UINT32:
 873:Generated_Source\PSoC4/CapSense_Structure.c ****             if (0u != (pData->offset & UINT32_ALIGN_MASK))
 123              		.loc 1 873 0
 124 006a AB07     		lsls	r3, r5, #30
 125 006c 04D1     		bne	.L14
 126 006e 04E0     		b	.L5
 127              	.L15:
 874:Generated_Source\PSoC4/CapSense_Structure.c ****             {
 875:Generated_Source\PSoC4/CapSense_Structure.c ****                 result = CYRET_BAD_PARAM;
 876:Generated_Source\PSoC4/CapSense_Structure.c ****             }
 877:Generated_Source\PSoC4/CapSense_Structure.c ****             break;
 878:Generated_Source\PSoC4/CapSense_Structure.c **** 
 879:Generated_Source\PSoC4/CapSense_Structure.c ****         case DS_PARAM_TYPE_UINT8:
 880:Generated_Source\PSoC4/CapSense_Structure.c ****             break;
 881:Generated_Source\PSoC4/CapSense_Structure.c **** 
 882:Generated_Source\PSoC4/CapSense_Structure.c ****         default:
 883:Generated_Source\PSoC4/CapSense_Structure.c ****             result = CYRET_BAD_PARAM;
 128              		.loc 1 883 0
 129 0070 0120     		movs	r0, #1
 130              	.LVL7:
 131 0072 02E0     		b	.L5
 132              	.LVL8:
 133              	.L13:
 868:Generated_Source\PSoC4/CapSense_Structure.c ****             }
 134              		.loc 1 868 0
 135 0074 0120     		movs	r0, #1
 136              	.LVL9:
 137 0076 00E0     		b	.L5
 138              	.LVL10:
 139              	.L14:
ARM GAS  C:\Users\inspiron\AppData\Local\Temp\cc3AwUZg.s 			page 19


 875:Generated_Source\PSoC4/CapSense_Structure.c ****             }
 140              		.loc 1 875 0
 141 0078 0120     		movs	r0, #1
 142              	.LVL11:
 143              	.L5:
 884:Generated_Source\PSoC4/CapSense_Structure.c ****             break;
 885:Generated_Source\PSoC4/CapSense_Structure.c ****         }
 886:Generated_Source\PSoC4/CapSense_Structure.c ****     }
 887:Generated_Source\PSoC4/CapSense_Structure.c **** 
 888:Generated_Source\PSoC4/CapSense_Structure.c ****     return result;
 889:Generated_Source\PSoC4/CapSense_Structure.c **** }
 144              		.loc 1 889 0
 145              		@ sp needed
 146 007a 70BD     		pop	{r4, r5, r6, pc}
 147              	.L17:
 148              		.align	2
 149              	.L16:
 150 007c 87020000 		.word	647
 151              		.cfi_endproc
 152              	.LFE2:
 153              		.size	DsParseParamId, .-DsParseParamId
 154              		.section	.text.CapSense_DsInitialize,"ax",%progbits
 155              		.align	2
 156              		.global	CapSense_DsInitialize
 157              		.code	16
 158              		.thumb_func
 159              		.type	CapSense_DsInitialize, %function
 160              	CapSense_DsInitialize:
 161              	.LFB1:
 533:Generated_Source\PSoC4/CapSense_Structure.c ****     #if ((CapSense_ENABLE == CapSense_CSX_EN) || \
 162              		.loc 1 533 0
 163              		.cfi_startproc
 164              		@ args = 0, pretend = 0, frame = 0
 165              		@ frame_needed = 0, uses_anonymous_args = 0
 166 0000 70B5     		push	{r4, r5, r6, lr}
 167              		.cfi_def_cfa_offset 16
 168              		.cfi_offset 4, -16
 169              		.cfi_offset 5, -12
 170              		.cfi_offset 6, -8
 171              		.cfi_offset 14, -4
 172              	.LVL12:
 554:Generated_Source\PSoC4/CapSense_Structure.c **** 
 173              		.loc 1 554 0
 174 0002 204C     		ldr	r4, .L23
 175 0004 A222     		movs	r2, #162
 176 0006 9200     		lsls	r2, r2, #2
 177 0008 0021     		movs	r1, #0
 178 000a 2000     		movs	r0, r4
 179 000c FFF7FEFF 		bl	memset
 180              	.LVL13:
 557:Generated_Source\PSoC4/CapSense_Structure.c ****     CapSense_dsRam.deviceId = CapSense_DEVICE_ID;
 181              		.loc 1 557 0
 182 0010 1D4B     		ldr	r3, .L23+4
 183 0012 2380     		strh	r3, [r4]
 558:Generated_Source\PSoC4/CapSense_Structure.c ****     CapSense_dsRam.hwClock = CapSense_HW_CLOCK;
 184              		.loc 1 558 0
 185 0014 9023     		movs	r3, #144
ARM GAS  C:\Users\inspiron\AppData\Local\Temp\cc3AwUZg.s 			page 20


 186 0016 1B01     		lsls	r3, r3, #4
 187 0018 6380     		strh	r3, [r4, #2]
 559:Generated_Source\PSoC4/CapSense_Structure.c **** 
 188              		.loc 1 559 0
 189 001a 1C4B     		ldr	r3, .L23+8
 190 001c A380     		strh	r3, [r4, #4]
 562:Generated_Source\PSoC4/CapSense_Structure.c **** 
 191              		.loc 1 562 0
 192 001e 0823     		movs	r3, #8
 193 0020 6383     		strh	r3, [r4, #26]
 564:Generated_Source\PSoC4/CapSense_Structure.c ****     #if (0u != CapSense_TOTAL_CSD_WIDGETS)
 194              		.loc 1 564 0
 195 0022 0322     		movs	r2, #3
 196 0024 1A4B     		ldr	r3, .L23+12
 197 0026 E254     		strb	r2, [r4, r3]
 575:Generated_Source\PSoC4/CapSense_Structure.c ****         CapSense_dsRam.scanCsxISC = CapSense_CSX_INACTIVE_SNS_CONNECTION;
 198              		.loc 1 575 0
 199 0028 0223     		movs	r3, #2
 200 002a 2377     		strb	r3, [r4, #28]
 579:Generated_Source\PSoC4/CapSense_Structure.c ****         #endif /* #if (0u != CapSense_CSX_COMMON_TX_CLK_EN) */
 201              		.loc 1 579 0
 202 002c 4E33     		adds	r3, r3, #78
 203 002e E383     		strh	r3, [r4, #30]
 640:Generated_Source\PSoC4/CapSense_Structure.c **** 
 204              		.loc 1 640 0
 205 0030 184D     		ldr	r5, .L23+16
 206 0032 2300     		movs	r3, r4
 207 0034 2033     		adds	r3, r3, #32
 208 0036 2A00     		movs	r2, r5
 209 0038 6C32     		adds	r2, r2, #108
 210 003a 43CA     		ldmia	r2!, {r0, r1, r6}
 211 003c 43C3     		stmia	r3!, {r0, r1, r6}
 212 003e 43CA     		ldmia	r2!, {r0, r1, r6}
 213 0040 43C3     		stmia	r3!, {r0, r1, r6}
 644:Generated_Source\PSoC4/CapSense_Structure.c ****     #endif /* ((0u != CapSense_GES_GLOBAL_EN) || (0u != CapSense_BALLISTIC_MULTIPLIER_EN)) */
 214              		.loc 1 644 0
 215 0042 0122     		movs	r2, #1
 216 0044 9E23     		movs	r3, #158
 217 0046 9B00     		lsls	r3, r3, #2
 218 0048 E250     		str	r2, [r4, r3]
 648:Generated_Source\PSoC4/CapSense_Structure.c ****     #endif /* (0u != CapSense_GES_GLOBAL_EN) */
 219              		.loc 1 648 0
 220 004a 134B     		ldr	r3, .L23+20
 221 004c E018     		adds	r0, r4, r3
 222 004e 5532     		adds	r2, r2, #85
 223 0050 1249     		ldr	r1, .L23+24
 224 0052 0431     		adds	r1, r1, #4
 225 0054 FFF7FEFF 		bl	memcpy
 226              	.LVL14:
 550:Generated_Source\PSoC4/CapSense_Structure.c ****     #endif
 227              		.loc 1 550 0
 228 0058 2A00     		movs	r2, r5
 657:Generated_Source\PSoC4/CapSense_Structure.c **** 
 229              		.loc 1 657 0
 230 005a 2C00     		movs	r4, r5
 231 005c 3434     		adds	r4, r4, #52
 659:Generated_Source\PSoC4/CapSense_Structure.c ****         {
ARM GAS  C:\Users\inspiron\AppData\Local\Temp\cc3AwUZg.s 			page 21


 232              		.loc 1 659 0
 233 005e 0123     		movs	r3, #1
 234 0060 0CE0     		b	.L19
 235              	.LVL15:
 236              	.L22:
 661:Generated_Source\PSoC4/CapSense_Structure.c **** 
 237              		.loc 1 661 0
 238 0062 A168     		ldr	r1, [r4, #8]
 239              	.LVL16:
 663:Generated_Source\PSoC4/CapSense_Structure.c ****             {
 240              		.loc 1 663 0
 241 0064 238B     		ldrh	r3, [r4, #24]
 242              	.LVL17:
 243 0066 04E0     		b	.L20
 244              	.LVL18:
 245              	.L21:
 665:Generated_Source\PSoC4/CapSense_Structure.c ****                 ptrIdacInit++;
 246              		.loc 1 665 0
 247 0068 1378     		ldrb	r3, [r2]
 248 006a 4B72     		strb	r3, [r1, #9]
 666:Generated_Source\PSoC4/CapSense_Structure.c **** 
 249              		.loc 1 666 0
 250 006c 0132     		adds	r2, r2, #1
 251              	.LVL19:
 676:Generated_Source\PSoC4/CapSense_Structure.c ****             }
 252              		.loc 1 676 0
 253 006e 0A31     		adds	r1, r1, #10
 254              	.LVL20:
 663:Generated_Source\PSoC4/CapSense_Structure.c ****             {
 255              		.loc 1 663 0
 256 0070 0300     		movs	r3, r0
 257              	.LVL21:
 258              	.L20:
 663:Generated_Source\PSoC4/CapSense_Structure.c ****             {
 259              		.loc 1 663 0 is_stmt 0 discriminator 1
 260 0072 581E     		subs	r0, r3, #1
 261              	.LVL22:
 262 0074 002B     		cmp	r3, #0
 263 0076 F7D1     		bne	.L21
 679:Generated_Source\PSoC4/CapSense_Structure.c ****         }
 264              		.loc 1 679 0 is_stmt 1
 265 0078 3834     		adds	r4, r4, #56
 266              	.LVL23:
 659:Generated_Source\PSoC4/CapSense_Structure.c ****         {
 267              		.loc 1 659 0
 268 007a 2B00     		movs	r3, r5
 269              	.LVL24:
 270              	.L19:
 659:Generated_Source\PSoC4/CapSense_Structure.c ****         {
 271              		.loc 1 659 0 is_stmt 0 discriminator 1
 272 007c 5D1E     		subs	r5, r3, #1
 273              	.LVL25:
 274 007e 002B     		cmp	r3, #0
 275 0080 EFD1     		bne	.L22
 710:Generated_Source\PSoC4/CapSense_Structure.c **** 
 276              		.loc 1 710 0 is_stmt 1
 277              		@ sp needed
ARM GAS  C:\Users\inspiron\AppData\Local\Temp\cc3AwUZg.s 			page 22


 278              	.LVL26:
 279              	.LVL27:
 280 0082 70BD     		pop	{r4, r5, r6, pc}
 281              	.L24:
 282              		.align	2
 283              	.L23:
 284 0084 00000000 		.word	CapSense_dsRam
 285 0088 AC160000 		.word	5804
 286 008c 70170000 		.word	6000
 287 0090 87020000 		.word	647
 288 0094 00000000 		.word	.LANCHOR0
 289 0098 22020000 		.word	546
 290 009c 80000000 		.word	.LANCHOR1
 291              		.cfi_endproc
 292              	.LFE1:
 293              		.size	CapSense_DsInitialize, .-CapSense_DsInitialize
 294              		.section	.text.CapSense_GetParam,"ax",%progbits
 295              		.align	2
 296              		.global	CapSense_GetParam
 297              		.code	16
 298              		.thumb_func
 299              		.type	CapSense_GetParam, %function
 300              	CapSense_GetParam:
 301              	.LFB3:
 890:Generated_Source\PSoC4/CapSense_Structure.c **** 
 891:Generated_Source\PSoC4/CapSense_Structure.c **** /*******************************************************************************
 892:Generated_Source\PSoC4/CapSense_Structure.c **** * Function Name: CapSense_GetParam
 893:Generated_Source\PSoC4/CapSense_Structure.c **** ****************************************************************************//**
 894:Generated_Source\PSoC4/CapSense_Structure.c **** *
 895:Generated_Source\PSoC4/CapSense_Structure.c **** * \brief
 896:Generated_Source\PSoC4/CapSense_Structure.c **** *  Gets the specified parameter value from the \ref group_structures.
 897:Generated_Source\PSoC4/CapSense_Structure.c **** *
 898:Generated_Source\PSoC4/CapSense_Structure.c **** * \details
 899:Generated_Source\PSoC4/CapSense_Structure.c **** *  This function gets the value of the specified parameter by the paramId
 900:Generated_Source\PSoC4/CapSense_Structure.c **** *  argument. The paramId for each register is available in the
 901:Generated_Source\PSoC4/CapSense_Structure.c **** *  CapSense RegisterMap header file as
 902:Generated_Source\PSoC4/CapSense_Structure.c **** *  CapSense_<ParameterName>_PARAM_ID. The paramId is a special
 903:Generated_Source\PSoC4/CapSense_Structure.c **** *  enumerated value generated by the customizer. The format of paramId is as
 904:Generated_Source\PSoC4/CapSense_Structure.c **** *  follows:
 905:Generated_Source\PSoC4/CapSense_Structure.c **** *    1. [ byte 3 byte 2 byte 1 byte 0 ]
 906:Generated_Source\PSoC4/CapSense_Structure.c **** *    2. [ TTWFCCCC UIIIIIII MMMMMMMM LLLLLLLL ]
 907:Generated_Source\PSoC4/CapSense_Structure.c **** *    3. T - encodes the parameter type:
 908:Generated_Source\PSoC4/CapSense_Structure.c **** *      - 01b: uint8
 909:Generated_Source\PSoC4/CapSense_Structure.c **** *      - 10b: uint16
 910:Generated_Source\PSoC4/CapSense_Structure.c **** *      - 11b: uint32
 911:Generated_Source\PSoC4/CapSense_Structure.c **** *    4. W - indicates whether the parameter is writable:
 912:Generated_Source\PSoC4/CapSense_Structure.c **** *      - 0: ReadOnly
 913:Generated_Source\PSoC4/CapSense_Structure.c **** *      - 1: Read/Write
 914:Generated_Source\PSoC4/CapSense_Structure.c **** *    5. C - 4 bit CRC (X^3 + 1) of the whole paramId word, the C bits are
 915:Generated_Source\PSoC4/CapSense_Structure.c **** *       filled with 0s when the CRC is calculated.
 916:Generated_Source\PSoC4/CapSense_Structure.c **** *    6. U - indicates if the parameter affects the RAM Widget Object CRC.
 917:Generated_Source\PSoC4/CapSense_Structure.c **** *    7. I - specifies that the widgetId parameter belongs to
 918:Generated_Source\PSoC4/CapSense_Structure.c **** *    8. M,L - the parameter offset MSB and LSB accordingly in:
 919:Generated_Source\PSoC4/CapSense_Structure.c **** *      - Flash Data Structure if W bit is 0.
 920:Generated_Source\PSoC4/CapSense_Structure.c **** *      - RAM Data Structure if W bit is 1.
 921:Generated_Source\PSoC4/CapSense_Structure.c **** *
 922:Generated_Source\PSoC4/CapSense_Structure.c **** *  Refer to the \ref group_structures section for details of the data structure
ARM GAS  C:\Users\inspiron\AppData\Local\Temp\cc3AwUZg.s 			page 23


 923:Generated_Source\PSoC4/CapSense_Structure.c **** *  organization and examples of its register access.
 924:Generated_Source\PSoC4/CapSense_Structure.c **** *
 925:Generated_Source\PSoC4/CapSense_Structure.c **** * \param paramId
 926:Generated_Source\PSoC4/CapSense_Structure.c **** *  Specifies the ID of parameter to get its value.
 927:Generated_Source\PSoC4/CapSense_Structure.c **** *  A macro for the parameter ID can be found in the CapSense RegisterMap header
 928:Generated_Source\PSoC4/CapSense_Structure.c **** *  file defined as CapSense_<ParameterName>_PARAM_ID.
 929:Generated_Source\PSoC4/CapSense_Structure.c **** *
 930:Generated_Source\PSoC4/CapSense_Structure.c **** * \param value
 931:Generated_Source\PSoC4/CapSense_Structure.c **** *  The pointer to a variable to be updated with the obtained value.
 932:Generated_Source\PSoC4/CapSense_Structure.c **** *
 933:Generated_Source\PSoC4/CapSense_Structure.c **** * \return
 934:Generated_Source\PSoC4/CapSense_Structure.c **** *  Returns the status of the operation:
 935:Generated_Source\PSoC4/CapSense_Structure.c **** *    - CYRET_SUCCESS - The operation is successfully completed.
 936:Generated_Source\PSoC4/CapSense_Structure.c **** *    - CYRET_BAD_PARAM - The input parameter is invalid.
 937:Generated_Source\PSoC4/CapSense_Structure.c **** *
 938:Generated_Source\PSoC4/CapSense_Structure.c **** *******************************************************************************/
 939:Generated_Source\PSoC4/CapSense_Structure.c **** cystatus CapSense_GetParam(uint32 paramId, uint32 *value)
 940:Generated_Source\PSoC4/CapSense_Structure.c **** {
 302              		.loc 1 940 0
 303              		.cfi_startproc
 304              		@ args = 0, pretend = 0, frame = 8
 305              		@ frame_needed = 0, uses_anonymous_args = 0
 306              	.LVL28:
 307 0000 30B5     		push	{r4, r5, lr}
 308              		.cfi_def_cfa_offset 12
 309              		.cfi_offset 4, -12
 310              		.cfi_offset 5, -8
 311              		.cfi_offset 14, -4
 312 0002 83B0     		sub	sp, sp, #12
 313              		.cfi_def_cfa_offset 24
 314 0004 0D00     		movs	r5, r1
 941:Generated_Source\PSoC4/CapSense_Structure.c ****     PARAM_ID_STRUCT pData;
 942:Generated_Source\PSoC4/CapSense_Structure.c ****     cystatus result;
 943:Generated_Source\PSoC4/CapSense_Structure.c **** 
 944:Generated_Source\PSoC4/CapSense_Structure.c ****     union
 945:Generated_Source\PSoC4/CapSense_Structure.c ****     {
 946:Generated_Source\PSoC4/CapSense_Structure.c ****         volatile void   const * ptr;
 947:Generated_Source\PSoC4/CapSense_Structure.c ****         volatile uint8  const * ptrUint8;
 948:Generated_Source\PSoC4/CapSense_Structure.c ****         volatile uint16 const * ptrUint16;
 949:Generated_Source\PSoC4/CapSense_Structure.c ****         volatile uint32 const * ptrUint32;
 950:Generated_Source\PSoC4/CapSense_Structure.c ****     } ptrData;
 951:Generated_Source\PSoC4/CapSense_Structure.c **** 
 952:Generated_Source\PSoC4/CapSense_Structure.c ****     result = DsParseParamId(paramId, &pData);
 315              		.loc 1 952 0
 316 0006 6946     		mov	r1, sp
 317              	.LVL29:
 318 0008 FFF7FEFF 		bl	DsParseParamId
 319              	.LVL30:
 320 000c 041E     		subs	r4, r0, #0
 321              	.LVL31:
 953:Generated_Source\PSoC4/CapSense_Structure.c **** 
 954:Generated_Source\PSoC4/CapSense_Structure.c ****     /* Parse and validate paramId */
 955:Generated_Source\PSoC4/CapSense_Structure.c ****     if (CYRET_SUCCESS == result)
 322              		.loc 1 955 0
 323 000e 1FD1     		bne	.L26
 956:Generated_Source\PSoC4/CapSense_Structure.c ****     {
 957:Generated_Source\PSoC4/CapSense_Structure.c ****         /* Get base address of parameter */
ARM GAS  C:\Users\inspiron\AppData\Local\Temp\cc3AwUZg.s 			page 24


 958:Generated_Source\PSoC4/CapSense_Structure.c ****         if (0u == pData.flash)
 324              		.loc 1 958 0
 325 0010 6B46     		mov	r3, sp
 326 0012 5B79     		ldrb	r3, [r3, #5]
 327 0014 002B     		cmp	r3, #0
 328 0016 01D1     		bne	.L27
 959:Generated_Source\PSoC4/CapSense_Structure.c ****         {
 960:Generated_Source\PSoC4/CapSense_Structure.c ****             ptrData.ptr = &CapSense_dsRam;
 329              		.loc 1 960 0
 330 0018 0F4A     		ldr	r2, .L32
 331              	.LVL32:
 332 001a 02E0     		b	.L28
 333              	.L27:
 961:Generated_Source\PSoC4/CapSense_Structure.c ****         }
 962:Generated_Source\PSoC4/CapSense_Structure.c ****         else
 963:Generated_Source\PSoC4/CapSense_Structure.c ****         {
 964:Generated_Source\PSoC4/CapSense_Structure.c ****             ptrData.ptr = &CapSense_dsFlash;
 334              		.loc 1 964 0
 335 001c 0F4B     		ldr	r3, .L32+4
 336 001e 3433     		adds	r3, r3, #52
 337 0020 1A00     		movs	r2, r3
 338              	.L28:
 965:Generated_Source\PSoC4/CapSense_Structure.c ****         }
 966:Generated_Source\PSoC4/CapSense_Structure.c **** 
 967:Generated_Source\PSoC4/CapSense_Structure.c ****         /* Add offset to base address */
 968:Generated_Source\PSoC4/CapSense_Structure.c ****         ptrData.ptrUint8 += pData.offset;
 339              		.loc 1 968 0
 340 0022 6B46     		mov	r3, sp
 341 0024 1B88     		ldrh	r3, [r3]
 342              	.LVL33:
 343 0026 D318     		adds	r3, r2, r3
 969:Generated_Source\PSoC4/CapSense_Structure.c **** 
 970:Generated_Source\PSoC4/CapSense_Structure.c ****         /* Read data */
 971:Generated_Source\PSoC4/CapSense_Structure.c ****         if (DS_PARAM_TYPE_UINT8 == pData.type)
 344              		.loc 1 971 0
 345 0028 6A46     		mov	r2, sp
 346              	.LVL34:
 347 002a D279     		ldrb	r2, [r2, #7]
 348 002c 012A     		cmp	r2, #1
 349 002e 02D1     		bne	.L29
 972:Generated_Source\PSoC4/CapSense_Structure.c ****         {
 973:Generated_Source\PSoC4/CapSense_Structure.c ****             *value = (uint32) (*ptrData.ptrUint8);
 350              		.loc 1 973 0
 351 0030 1B78     		ldrb	r3, [r3]
 352 0032 2B60     		str	r3, [r5]
 353 0034 0CE0     		b	.L26
 354              	.L29:
 974:Generated_Source\PSoC4/CapSense_Structure.c ****         }
 975:Generated_Source\PSoC4/CapSense_Structure.c ****         else if (DS_PARAM_TYPE_UINT16 == pData.type)
 355              		.loc 1 975 0
 356 0036 022A     		cmp	r2, #2
 357 0038 02D1     		bne	.L30
 976:Generated_Source\PSoC4/CapSense_Structure.c ****         {
 977:Generated_Source\PSoC4/CapSense_Structure.c ****             *value = (uint32) (*ptrData.ptrUint16);
 358              		.loc 1 977 0
 359 003a 1B88     		ldrh	r3, [r3]
 360 003c 2B60     		str	r3, [r5]
ARM GAS  C:\Users\inspiron\AppData\Local\Temp\cc3AwUZg.s 			page 25


 361 003e 07E0     		b	.L26
 362              	.L30:
 978:Generated_Source\PSoC4/CapSense_Structure.c ****         }
 979:Generated_Source\PSoC4/CapSense_Structure.c ****         else if (DS_PARAM_TYPE_UINT32 == pData.type)
 363              		.loc 1 979 0
 364 0040 032A     		cmp	r2, #3
 365 0042 02D1     		bne	.L31
 980:Generated_Source\PSoC4/CapSense_Structure.c ****         {
 981:Generated_Source\PSoC4/CapSense_Structure.c ****             *value = *ptrData.ptrUint32;
 366              		.loc 1 981 0
 367 0044 1B68     		ldr	r3, [r3]
 368 0046 2B60     		str	r3, [r5]
 369 0048 02E0     		b	.L26
 370              	.L31:
 982:Generated_Source\PSoC4/CapSense_Structure.c ****         }
 983:Generated_Source\PSoC4/CapSense_Structure.c ****         else
 984:Generated_Source\PSoC4/CapSense_Structure.c ****         {
 985:Generated_Source\PSoC4/CapSense_Structure.c ****             /* Parameter comes here already validated. */
 986:Generated_Source\PSoC4/CapSense_Structure.c ****             CYASSERT(0u);
 371              		.loc 1 986 0 discriminator 1
 372 004a 0020     		movs	r0, #0
 373              	.LVL35:
 374 004c FFF7FEFF 		bl	CyHalt
 375              	.LVL36:
 376              	.L26:
 987:Generated_Source\PSoC4/CapSense_Structure.c ****         }
 988:Generated_Source\PSoC4/CapSense_Structure.c ****     }
 989:Generated_Source\PSoC4/CapSense_Structure.c **** 
 990:Generated_Source\PSoC4/CapSense_Structure.c ****     return result;
 991:Generated_Source\PSoC4/CapSense_Structure.c **** }
 377              		.loc 1 991 0
 378 0050 2000     		movs	r0, r4
 379 0052 03B0     		add	sp, sp, #12
 380              		@ sp needed
 381              	.LVL37:
 382              	.LVL38:
 383 0054 30BD     		pop	{r4, r5, pc}
 384              	.L33:
 385 0056 C046     		.align	2
 386              	.L32:
 387 0058 00000000 		.word	CapSense_dsRam
 388 005c 00000000 		.word	.LANCHOR0
 389              		.cfi_endproc
 390              	.LFE3:
 391              		.size	CapSense_GetParam, .-CapSense_GetParam
 392              		.section	.text.CapSense_SetParam,"ax",%progbits
 393              		.align	2
 394              		.global	CapSense_SetParam
 395              		.code	16
 396              		.thumb_func
 397              		.type	CapSense_SetParam, %function
 398              	CapSense_SetParam:
 399              	.LFB4:
 992:Generated_Source\PSoC4/CapSense_Structure.c **** 
 993:Generated_Source\PSoC4/CapSense_Structure.c **** 
 994:Generated_Source\PSoC4/CapSense_Structure.c **** /*******************************************************************************
 995:Generated_Source\PSoC4/CapSense_Structure.c **** * Function Name: CapSense_SetParam
ARM GAS  C:\Users\inspiron\AppData\Local\Temp\cc3AwUZg.s 			page 26


 996:Generated_Source\PSoC4/CapSense_Structure.c **** ****************************************************************************//**
 997:Generated_Source\PSoC4/CapSense_Structure.c **** *
 998:Generated_Source\PSoC4/CapSense_Structure.c **** * \brief
 999:Generated_Source\PSoC4/CapSense_Structure.c **** *  Sets a new value for the specified parameter in the \ref group_structures.
1000:Generated_Source\PSoC4/CapSense_Structure.c **** *
1001:Generated_Source\PSoC4/CapSense_Structure.c **** * \details
1002:Generated_Source\PSoC4/CapSense_Structure.c **** *  This function sets the value of the specified parameter by the paramId
1003:Generated_Source\PSoC4/CapSense_Structure.c **** *  argument. The paramId for each register is available in the
1004:Generated_Source\PSoC4/CapSense_Structure.c **** *  CapSense RegisterMap header file as
1005:Generated_Source\PSoC4/CapSense_Structure.c **** *  CapSense_<ParameterName>_PARAM_ID. The paramId is a special
1006:Generated_Source\PSoC4/CapSense_Structure.c **** *  enumerated value generated by the customizer. The format of paramId is as
1007:Generated_Source\PSoC4/CapSense_Structure.c **** *  follows:
1008:Generated_Source\PSoC4/CapSense_Structure.c **** *    1. [ byte 3 byte 2 byte 1 byte 0 ]
1009:Generated_Source\PSoC4/CapSense_Structure.c **** *    2. [ TTWFCCCC UIIIIIII MMMMMMMM LLLLLLLL ]
1010:Generated_Source\PSoC4/CapSense_Structure.c **** *    3. T - encodes the parameter type:
1011:Generated_Source\PSoC4/CapSense_Structure.c **** *      - 01b: uint8
1012:Generated_Source\PSoC4/CapSense_Structure.c **** *      - 10b: uint16
1013:Generated_Source\PSoC4/CapSense_Structure.c **** *      - 11b: uint32
1014:Generated_Source\PSoC4/CapSense_Structure.c **** *    4. W - indicates whether the parameter is writable:
1015:Generated_Source\PSoC4/CapSense_Structure.c **** *      - 0: ReadOnly
1016:Generated_Source\PSoC4/CapSense_Structure.c **** *      - 1: Read/Write
1017:Generated_Source\PSoC4/CapSense_Structure.c **** *    5. C - 4 bit CRC (X^3 + 1) of the whole paramId word, the C bits are
1018:Generated_Source\PSoC4/CapSense_Structure.c **** *       filled with 0s when the CRC is calculated.
1019:Generated_Source\PSoC4/CapSense_Structure.c **** *    6. U - indicates if the parameter affects the RAM Widget Object CRC.
1020:Generated_Source\PSoC4/CapSense_Structure.c **** *    7. I - specifies that the widgetId parameter belongs to
1021:Generated_Source\PSoC4/CapSense_Structure.c **** *    8. M,L - the parameter offset MSB and LSB accordingly in:
1022:Generated_Source\PSoC4/CapSense_Structure.c **** *      - Flash Data Structure if W bit is 0.
1023:Generated_Source\PSoC4/CapSense_Structure.c **** *      - RAM Data Structure if W bit is 1.
1024:Generated_Source\PSoC4/CapSense_Structure.c **** *
1025:Generated_Source\PSoC4/CapSense_Structure.c **** *  Refer to the \ref group_structures section for details of the data structure
1026:Generated_Source\PSoC4/CapSense_Structure.c **** *  organization and examples of its register access.
1027:Generated_Source\PSoC4/CapSense_Structure.c **** *
1028:Generated_Source\PSoC4/CapSense_Structure.c **** *  This function writes specified value into the desired register without
1029:Generated_Source\PSoC4/CapSense_Structure.c **** *  other registers update. It is application layer responsibility to keep all
1030:Generated_Source\PSoC4/CapSense_Structure.c **** *  the data structure registers aligned. Repeated call of
1031:Generated_Source\PSoC4/CapSense_Structure.c **** *  CapSense_Start() function helps aligning dependent register values.
1032:Generated_Source\PSoC4/CapSense_Structure.c **** *
1033:Generated_Source\PSoC4/CapSense_Structure.c **** * \param paramId
1034:Generated_Source\PSoC4/CapSense_Structure.c **** *  Specifies the ID of parameter to set its value.
1035:Generated_Source\PSoC4/CapSense_Structure.c **** *  A macro for the parameter ID can be found in the CapSense RegisterMap header
1036:Generated_Source\PSoC4/CapSense_Structure.c **** *  file defined as CapSense_<ParameterName>_PARAM_ID.
1037:Generated_Source\PSoC4/CapSense_Structure.c **** 
1038:Generated_Source\PSoC4/CapSense_Structure.c **** * \param value
1039:Generated_Source\PSoC4/CapSense_Structure.c **** *  Specifies the new parameter's value.
1040:Generated_Source\PSoC4/CapSense_Structure.c **** *
1041:Generated_Source\PSoC4/CapSense_Structure.c **** * \return
1042:Generated_Source\PSoC4/CapSense_Structure.c **** *  Returns the status of the operation:
1043:Generated_Source\PSoC4/CapSense_Structure.c **** *    - CYRET_SUCCESS - The operation is successfully completed.
1044:Generated_Source\PSoC4/CapSense_Structure.c **** *    - CYRET_BAD_PARAM - The input parameter is invalid.
1045:Generated_Source\PSoC4/CapSense_Structure.c **** *
1046:Generated_Source\PSoC4/CapSense_Structure.c **** *******************************************************************************/
1047:Generated_Source\PSoC4/CapSense_Structure.c **** cystatus CapSense_SetParam(uint32 paramId, uint32 value)
1048:Generated_Source\PSoC4/CapSense_Structure.c **** {
 400              		.loc 1 1048 0
 401              		.cfi_startproc
 402              		@ args = 0, pretend = 0, frame = 8
 403              		@ frame_needed = 0, uses_anonymous_args = 0
ARM GAS  C:\Users\inspiron\AppData\Local\Temp\cc3AwUZg.s 			page 27


 404              	.LVL39:
 405 0000 30B5     		push	{r4, r5, lr}
 406              		.cfi_def_cfa_offset 12
 407              		.cfi_offset 4, -12
 408              		.cfi_offset 5, -8
 409              		.cfi_offset 14, -4
 410 0002 83B0     		sub	sp, sp, #12
 411              		.cfi_def_cfa_offset 24
 412 0004 0D00     		movs	r5, r1
1049:Generated_Source\PSoC4/CapSense_Structure.c ****     cystatus result;
1050:Generated_Source\PSoC4/CapSense_Structure.c ****     PARAM_ID_STRUCT pData;
1051:Generated_Source\PSoC4/CapSense_Structure.c **** 
1052:Generated_Source\PSoC4/CapSense_Structure.c ****     union
1053:Generated_Source\PSoC4/CapSense_Structure.c ****     {
1054:Generated_Source\PSoC4/CapSense_Structure.c ****         volatile void   * ptr;
1055:Generated_Source\PSoC4/CapSense_Structure.c ****         volatile uint8  * ptrUint8;
1056:Generated_Source\PSoC4/CapSense_Structure.c ****         volatile uint16 * ptrUint16;
1057:Generated_Source\PSoC4/CapSense_Structure.c ****         volatile uint32 * ptrUint32;
1058:Generated_Source\PSoC4/CapSense_Structure.c ****     } ptrData;
1059:Generated_Source\PSoC4/CapSense_Structure.c **** 
1060:Generated_Source\PSoC4/CapSense_Structure.c ****     result = DsParseParamId(paramId, &pData);
 413              		.loc 1 1060 0
 414 0006 6946     		mov	r1, sp
 415              	.LVL40:
 416 0008 FFF7FEFF 		bl	DsParseParamId
 417              	.LVL41:
 418 000c 041E     		subs	r4, r0, #0
 419              	.LVL42:
1061:Generated_Source\PSoC4/CapSense_Structure.c **** 
1062:Generated_Source\PSoC4/CapSense_Structure.c ****     /* verify if parameter is writable */
1063:Generated_Source\PSoC4/CapSense_Structure.c ****     if (CYRET_SUCCESS == result)
 420              		.loc 1 1063 0
 421 000e 04D1     		bne	.L35
1064:Generated_Source\PSoC4/CapSense_Structure.c ****     {
1065:Generated_Source\PSoC4/CapSense_Structure.c ****         if (0u == pData.rw)
 422              		.loc 1 1065 0
 423 0010 6B46     		mov	r3, sp
 424 0012 9B79     		ldrb	r3, [r3, #6]
 425 0014 002B     		cmp	r3, #0
 426 0016 00D1     		bne	.L35
1066:Generated_Source\PSoC4/CapSense_Structure.c ****         {
1067:Generated_Source\PSoC4/CapSense_Structure.c ****             result = CYRET_BAD_PARAM;
 427              		.loc 1 1067 0
 428 0018 0134     		adds	r4, r4, #1
 429              	.L35:
 430              	.LVL43:
1068:Generated_Source\PSoC4/CapSense_Structure.c ****         }
1069:Generated_Source\PSoC4/CapSense_Structure.c ****     }
1070:Generated_Source\PSoC4/CapSense_Structure.c **** 
1071:Generated_Source\PSoC4/CapSense_Structure.c ****     /* Parse and validate paramId */
1072:Generated_Source\PSoC4/CapSense_Structure.c ****     if (CYRET_SUCCESS == result)
 431              		.loc 1 1072 0
 432 001a 002C     		cmp	r4, #0
 433 001c 16D1     		bne	.L36
1073:Generated_Source\PSoC4/CapSense_Structure.c ****     {
1074:Generated_Source\PSoC4/CapSense_Structure.c ****         /* Get base address of parameter */
1075:Generated_Source\PSoC4/CapSense_Structure.c ****         ptrData.ptr = &CapSense_dsRam;
ARM GAS  C:\Users\inspiron\AppData\Local\Temp\cc3AwUZg.s 			page 28


1076:Generated_Source\PSoC4/CapSense_Structure.c **** 
1077:Generated_Source\PSoC4/CapSense_Structure.c ****         /* Add offset to base address */
1078:Generated_Source\PSoC4/CapSense_Structure.c ****         ptrData.ptrUint8 += pData.offset;
 434              		.loc 1 1078 0
 435 001e 6B46     		mov	r3, sp
 436 0020 1A88     		ldrh	r2, [r3]
 437 0022 0C4B     		ldr	r3, .L41
 438 0024 D318     		adds	r3, r2, r3
1079:Generated_Source\PSoC4/CapSense_Structure.c **** 
1080:Generated_Source\PSoC4/CapSense_Structure.c ****         /* Write data */
1081:Generated_Source\PSoC4/CapSense_Structure.c ****         if (DS_PARAM_TYPE_UINT8 == pData.type)
 439              		.loc 1 1081 0
 440 0026 6A46     		mov	r2, sp
 441 0028 D279     		ldrb	r2, [r2, #7]
 442 002a 012A     		cmp	r2, #1
 443 002c 02D1     		bne	.L37
1082:Generated_Source\PSoC4/CapSense_Structure.c ****         {
1083:Generated_Source\PSoC4/CapSense_Structure.c ****             *ptrData.ptrUint8 = LO8(value);
 444              		.loc 1 1083 0
 445 002e EDB2     		uxtb	r5, r5
 446              	.LVL44:
 447 0030 1D70     		strb	r5, [r3]
 448 0032 0BE0     		b	.L36
 449              	.LVL45:
 450              	.L37:
1084:Generated_Source\PSoC4/CapSense_Structure.c ****         }
1085:Generated_Source\PSoC4/CapSense_Structure.c ****         else if (DS_PARAM_TYPE_UINT16 == pData.type)
 451              		.loc 1 1085 0
 452 0034 022A     		cmp	r2, #2
 453 0036 02D1     		bne	.L38
1086:Generated_Source\PSoC4/CapSense_Structure.c ****         {
1087:Generated_Source\PSoC4/CapSense_Structure.c ****             *ptrData.ptrUint16 = LO16(value);
 454              		.loc 1 1087 0
 455 0038 ADB2     		uxth	r5, r5
 456              	.LVL46:
 457 003a 1D80     		strh	r5, [r3]
 458 003c 06E0     		b	.L36
 459              	.LVL47:
 460              	.L38:
1088:Generated_Source\PSoC4/CapSense_Structure.c ****         }
1089:Generated_Source\PSoC4/CapSense_Structure.c ****         else if (DS_PARAM_TYPE_UINT32 == pData.type)
 461              		.loc 1 1089 0
 462 003e 032A     		cmp	r2, #3
 463 0040 01D1     		bne	.L39
1090:Generated_Source\PSoC4/CapSense_Structure.c ****         {
1091:Generated_Source\PSoC4/CapSense_Structure.c ****             *ptrData.ptrUint32 = value;
 464              		.loc 1 1091 0
 465 0042 1D60     		str	r5, [r3]
 466 0044 02E0     		b	.L36
 467              	.L39:
1092:Generated_Source\PSoC4/CapSense_Structure.c ****         }
1093:Generated_Source\PSoC4/CapSense_Structure.c ****         else
1094:Generated_Source\PSoC4/CapSense_Structure.c ****         {
1095:Generated_Source\PSoC4/CapSense_Structure.c ****             /* Parameter comes here already validated. */
1096:Generated_Source\PSoC4/CapSense_Structure.c ****             CYASSERT(0u);
 468              		.loc 1 1096 0 discriminator 1
 469 0046 0020     		movs	r0, #0
ARM GAS  C:\Users\inspiron\AppData\Local\Temp\cc3AwUZg.s 			page 29


 470 0048 FFF7FEFF 		bl	CyHalt
 471              	.LVL48:
 472              	.L36:
1097:Generated_Source\PSoC4/CapSense_Structure.c ****         }
1098:Generated_Source\PSoC4/CapSense_Structure.c **** 
1099:Generated_Source\PSoC4/CapSense_Structure.c ****         #if (CapSense_ENABLE == (CapSense_TST_WDGT_CRC_EN || CapSense_TST_GLOBAL_CRC_EN))
1100:Generated_Source\PSoC4/CapSense_Structure.c ****             /* Update widget or global CRC if self-test is enabled and parameter affects it */
1101:Generated_Source\PSoC4/CapSense_Structure.c ****             if (0u != pData.affectsCrc)
1102:Generated_Source\PSoC4/CapSense_Structure.c ****             {
1103:Generated_Source\PSoC4/CapSense_Structure.c ****                 if ((ptrData.ptrUint16 >= &CapSense_dsRam.csd0Config) &&
1104:Generated_Source\PSoC4/CapSense_Structure.c ****                     (ptrData.ptrUint16 <  &CapSense_dsRam.glbCrc))
1105:Generated_Source\PSoC4/CapSense_Structure.c ****                 {
1106:Generated_Source\PSoC4/CapSense_Structure.c **** 
1107:Generated_Source\PSoC4/CapSense_Structure.c ****                     #if (CapSense_ENABLE == CapSense_TST_GLOBAL_CRC_EN)
1108:Generated_Source\PSoC4/CapSense_Structure.c ****                         CapSense_DsUpdateGlobalCrc();
1109:Generated_Source\PSoC4/CapSense_Structure.c ****                     #endif /* (CapSense_ENABLE == CapSense_TST_GLOBAL_CRC_EN) */
1110:Generated_Source\PSoC4/CapSense_Structure.c **** 
1111:Generated_Source\PSoC4/CapSense_Structure.c ****                 }
1112:Generated_Source\PSoC4/CapSense_Structure.c ****                 else
1113:Generated_Source\PSoC4/CapSense_Structure.c ****                 {
1114:Generated_Source\PSoC4/CapSense_Structure.c ****                     #if (CapSense_ENABLE == CapSense_TST_WDGT_CRC_EN)
1115:Generated_Source\PSoC4/CapSense_Structure.c ****                         CapSense_DsUpdateWidgetCrc((uint32)pData.widgetId);
1116:Generated_Source\PSoC4/CapSense_Structure.c ****                     #endif /* (CapSense_ENABLE == CapSense_TST_WDGT_CRC_EN) */
1117:Generated_Source\PSoC4/CapSense_Structure.c ****                 }
1118:Generated_Source\PSoC4/CapSense_Structure.c ****             }
1119:Generated_Source\PSoC4/CapSense_Structure.c ****         #endif /* (CapSense_ENABLE == (CapSense_TST_WDGT_CRC_EN || CapSense_TST_GLOBAL_CRC_EN)) */
1120:Generated_Source\PSoC4/CapSense_Structure.c ****     }
1121:Generated_Source\PSoC4/CapSense_Structure.c **** 
1122:Generated_Source\PSoC4/CapSense_Structure.c ****     return result;
1123:Generated_Source\PSoC4/CapSense_Structure.c **** }
 473              		.loc 1 1123 0
 474 004c 2000     		movs	r0, r4
 475 004e 03B0     		add	sp, sp, #12
 476              		@ sp needed
 477              	.LVL49:
 478 0050 30BD     		pop	{r4, r5, pc}
 479              	.L42:
 480 0052 C046     		.align	2
 481              	.L41:
 482 0054 00000000 		.word	CapSense_dsRam
 483              		.cfi_endproc
 484              	.LFE4:
 485              		.size	CapSense_SetParam, .-CapSense_SetParam
 486              		.section	.text.CapSense_IsAnyWidgetActive,"ax",%progbits
 487              		.align	2
 488              		.global	CapSense_IsAnyWidgetActive
 489              		.code	16
 490              		.thumb_func
 491              		.type	CapSense_IsAnyWidgetActive, %function
 492              	CapSense_IsAnyWidgetActive:
 493              	.LFB5:
1124:Generated_Source\PSoC4/CapSense_Structure.c **** 
1125:Generated_Source\PSoC4/CapSense_Structure.c **** /*******************************************************************************
1126:Generated_Source\PSoC4/CapSense_Structure.c **** * Function Name: CapSense_IsAnyWidgetActive
1127:Generated_Source\PSoC4/CapSense_Structure.c **** ****************************************************************************//**
1128:Generated_Source\PSoC4/CapSense_Structure.c **** *
1129:Generated_Source\PSoC4/CapSense_Structure.c **** * \brief
ARM GAS  C:\Users\inspiron\AppData\Local\Temp\cc3AwUZg.s 			page 30


1130:Generated_Source\PSoC4/CapSense_Structure.c **** *  Reports if any widget has detected a touch.
1131:Generated_Source\PSoC4/CapSense_Structure.c **** *
1132:Generated_Source\PSoC4/CapSense_Structure.c **** * \details
1133:Generated_Source\PSoC4/CapSense_Structure.c **** *  This function reports if any widget has detected a touch or not by extracting
1134:Generated_Source\PSoC4/CapSense_Structure.c **** *  information from the wdgtStatus registers
1135:Generated_Source\PSoC4/CapSense_Structure.c **** *  (CapSense_WDGT_STATUS<X>_VALUE). This function does not process a
1136:Generated_Source\PSoC4/CapSense_Structure.c **** *  widget but extracts processed results from the \ref group_structures.
1137:Generated_Source\PSoC4/CapSense_Structure.c **** *
1138:Generated_Source\PSoC4/CapSense_Structure.c **** * \return
1139:Generated_Source\PSoC4/CapSense_Structure.c **** *   Returns the touch detection status of all the widgets:
1140:Generated_Source\PSoC4/CapSense_Structure.c **** *     - Zero - No touch is detected in all the widgets or sensors.
1141:Generated_Source\PSoC4/CapSense_Structure.c **** *     - Non-zero - At least one widget or sensor detected a touch.
1142:Generated_Source\PSoC4/CapSense_Structure.c **** *
1143:Generated_Source\PSoC4/CapSense_Structure.c **** *******************************************************************************/
1144:Generated_Source\PSoC4/CapSense_Structure.c **** uint32 CapSense_IsAnyWidgetActive(void)
1145:Generated_Source\PSoC4/CapSense_Structure.c **** {
 494              		.loc 1 1145 0
 495              		.cfi_startproc
 496              		@ args = 0, pretend = 0, frame = 0
 497              		@ frame_needed = 0, uses_anonymous_args = 0
 498              		@ link register save eliminated.
 499              	.LVL50:
1146:Generated_Source\PSoC4/CapSense_Structure.c ****     uint32 result = 0Lu;
1147:Generated_Source\PSoC4/CapSense_Structure.c ****     uint32 wdWord;
1148:Generated_Source\PSoC4/CapSense_Structure.c **** 
1149:Generated_Source\PSoC4/CapSense_Structure.c ****     for (wdWord = CapSense_WDGT_STATUS_WORDS; wdWord-- > 0u;)
 500              		.loc 1 1149 0
 501 0000 0123     		movs	r3, #1
1146:Generated_Source\PSoC4/CapSense_Structure.c ****     uint32 result = 0Lu;
 502              		.loc 1 1146 0
 503 0002 0020     		movs	r0, #0
 504              		.loc 1 1149 0
 505 0004 06E0     		b	.L44
 506              	.LVL51:
 507              	.L45:
1150:Generated_Source\PSoC4/CapSense_Structure.c ****     {
1151:Generated_Source\PSoC4/CapSense_Structure.c ****         result |= CapSense_dsRam.wdgtStatus[wdWord];
 508              		.loc 1 1151 0
 509 0006 131D     		adds	r3, r2, #4
 510 0008 9B00     		lsls	r3, r3, #2
 511 000a 0449     		ldr	r1, .L46
 512 000c CB18     		adds	r3, r1, r3
 513 000e 5B68     		ldr	r3, [r3, #4]
 514 0010 1843     		orrs	r0, r3
 515              	.LVL52:
1149:Generated_Source\PSoC4/CapSense_Structure.c ****     {
 516              		.loc 1 1149 0
 517 0012 1300     		movs	r3, r2
 518              	.LVL53:
 519              	.L44:
1149:Generated_Source\PSoC4/CapSense_Structure.c ****     {
 520              		.loc 1 1149 0 is_stmt 0 discriminator 1
 521 0014 5A1E     		subs	r2, r3, #1
 522              	.LVL54:
 523 0016 002B     		cmp	r3, #0
 524 0018 F5D1     		bne	.L45
1152:Generated_Source\PSoC4/CapSense_Structure.c ****     }
ARM GAS  C:\Users\inspiron\AppData\Local\Temp\cc3AwUZg.s 			page 31


1153:Generated_Source\PSoC4/CapSense_Structure.c **** 
1154:Generated_Source\PSoC4/CapSense_Structure.c ****     return result;
1155:Generated_Source\PSoC4/CapSense_Structure.c **** }
 525              		.loc 1 1155 0 is_stmt 1
 526              		@ sp needed
 527 001a 7047     		bx	lr
 528              	.L47:
 529              		.align	2
 530              	.L46:
 531 001c 00000000 		.word	CapSense_dsRam
 532              		.cfi_endproc
 533              	.LFE5:
 534              		.size	CapSense_IsAnyWidgetActive, .-CapSense_IsAnyWidgetActive
 535              		.section	.text.CapSense_IsWidgetActive,"ax",%progbits
 536              		.align	2
 537              		.global	CapSense_IsWidgetActive
 538              		.code	16
 539              		.thumb_func
 540              		.type	CapSense_IsWidgetActive, %function
 541              	CapSense_IsWidgetActive:
 542              	.LFB6:
1156:Generated_Source\PSoC4/CapSense_Structure.c **** 
1157:Generated_Source\PSoC4/CapSense_Structure.c **** 
1158:Generated_Source\PSoC4/CapSense_Structure.c **** /*******************************************************************************
1159:Generated_Source\PSoC4/CapSense_Structure.c **** * Function Name: CapSense_IsWidgetActive
1160:Generated_Source\PSoC4/CapSense_Structure.c **** ****************************************************************************//**
1161:Generated_Source\PSoC4/CapSense_Structure.c **** *
1162:Generated_Source\PSoC4/CapSense_Structure.c **** * \brief
1163:Generated_Source\PSoC4/CapSense_Structure.c **** *  Reports if the specified widget detects a touch on any of its sensors.
1164:Generated_Source\PSoC4/CapSense_Structure.c **** *
1165:Generated_Source\PSoC4/CapSense_Structure.c **** * \details
1166:Generated_Source\PSoC4/CapSense_Structure.c **** *  This function reports if the specified widget has detected a touch or not by
1167:Generated_Source\PSoC4/CapSense_Structure.c **** *  extracting information from the wdgtStatus registers
1168:Generated_Source\PSoC4/CapSense_Structure.c **** *  (CapSense_WDGT_STATUS<X>_VALUE). This function does not process the
1169:Generated_Source\PSoC4/CapSense_Structure.c **** *  widget but extracts processed results from the \ref group_structures.
1170:Generated_Source\PSoC4/CapSense_Structure.c **** *
1171:Generated_Source\PSoC4/CapSense_Structure.c **** * \param widgetId
1172:Generated_Source\PSoC4/CapSense_Structure.c **** *  Specifies the ID number of the widget to get its status.
1173:Generated_Source\PSoC4/CapSense_Structure.c **** *  A macro for the widget ID can be found in the CapSense Configuration header
1174:Generated_Source\PSoC4/CapSense_Structure.c **** *  file defined as CapSense_<WidgetName>_WDGT_ID.
1175:Generated_Source\PSoC4/CapSense_Structure.c **** *
1176:Generated_Source\PSoC4/CapSense_Structure.c **** * \return
1177:Generated_Source\PSoC4/CapSense_Structure.c **** *  Returns the touch detection status of the specified widgets:
1178:Generated_Source\PSoC4/CapSense_Structure.c **** *    - Zero - No touch is detected in the specified widget or a wrong widgetId
1179:Generated_Source\PSoC4/CapSense_Structure.c **** *      is specified.
1180:Generated_Source\PSoC4/CapSense_Structure.c **** *    - Non-zero if at least one sensor of the specified widget is active, i.e.
1181:Generated_Source\PSoC4/CapSense_Structure.c **** *      a touch is detected.
1182:Generated_Source\PSoC4/CapSense_Structure.c **** *
1183:Generated_Source\PSoC4/CapSense_Structure.c **** *******************************************************************************/
1184:Generated_Source\PSoC4/CapSense_Structure.c **** uint32 CapSense_IsWidgetActive(uint32 widgetId)
1185:Generated_Source\PSoC4/CapSense_Structure.c **** {
 543              		.loc 1 1185 0
 544              		.cfi_startproc
 545              		@ args = 0, pretend = 0, frame = 0
 546              		@ frame_needed = 0, uses_anonymous_args = 0
 547              		@ link register save eliminated.
 548              	.LVL55:
ARM GAS  C:\Users\inspiron\AppData\Local\Temp\cc3AwUZg.s 			page 32


1186:Generated_Source\PSoC4/CapSense_Structure.c ****     uint32 result = 0Lu;
1187:Generated_Source\PSoC4/CapSense_Structure.c **** 
1188:Generated_Source\PSoC4/CapSense_Structure.c ****     if (widgetId < CapSense_TOTAL_WIDGETS)
 549              		.loc 1 1188 0
 550 0000 0028     		cmp	r0, #0
 551 0002 0BD1     		bne	.L50
1189:Generated_Source\PSoC4/CapSense_Structure.c ****     {
1190:Generated_Source\PSoC4/CapSense_Structure.c ****         result = CapSense_GET_WIDGET_ACTIVE_STATUS(widgetId);
 552              		.loc 1 1190 0
 553 0004 1F23     		movs	r3, #31
 554 0006 0340     		ands	r3, r0
 555 0008 0122     		movs	r2, #1
 556 000a 9A40     		lsls	r2, r2, r3
 557 000c 4009     		lsrs	r0, r0, #5
 558              	.LVL56:
 559 000e 031D     		adds	r3, r0, #4
 560 0010 9B00     		lsls	r3, r3, #2
 561 0012 0348     		ldr	r0, .L51
 562 0014 C318     		adds	r3, r0, r3
 563 0016 5868     		ldr	r0, [r3, #4]
 564 0018 1040     		ands	r0, r2
 565              	.LVL57:
 566 001a 00E0     		b	.L49
 567              	.LVL58:
 568              	.L50:
1186:Generated_Source\PSoC4/CapSense_Structure.c ****     uint32 result = 0Lu;
 569              		.loc 1 1186 0
 570 001c 0020     		movs	r0, #0
 571              	.LVL59:
 572              	.L49:
1191:Generated_Source\PSoC4/CapSense_Structure.c ****     }
1192:Generated_Source\PSoC4/CapSense_Structure.c ****     return result;
1193:Generated_Source\PSoC4/CapSense_Structure.c **** }
 573              		.loc 1 1193 0
 574              		@ sp needed
 575 001e 7047     		bx	lr
 576              	.L52:
 577              		.align	2
 578              	.L51:
 579 0020 00000000 		.word	CapSense_dsRam
 580              		.cfi_endproc
 581              	.LFE6:
 582              		.size	CapSense_IsWidgetActive, .-CapSense_IsWidgetActive
 583              		.section	.text.CapSense_IsSensorActive,"ax",%progbits
 584              		.align	2
 585              		.global	CapSense_IsSensorActive
 586              		.code	16
 587              		.thumb_func
 588              		.type	CapSense_IsSensorActive, %function
 589              	CapSense_IsSensorActive:
 590              	.LFB7:
1194:Generated_Source\PSoC4/CapSense_Structure.c **** 
1195:Generated_Source\PSoC4/CapSense_Structure.c **** 
1196:Generated_Source\PSoC4/CapSense_Structure.c **** /*******************************************************************************
1197:Generated_Source\PSoC4/CapSense_Structure.c **** * Function Name: CapSense_IsSensorActive
1198:Generated_Source\PSoC4/CapSense_Structure.c **** ****************************************************************************//**
1199:Generated_Source\PSoC4/CapSense_Structure.c **** *
ARM GAS  C:\Users\inspiron\AppData\Local\Temp\cc3AwUZg.s 			page 33


1200:Generated_Source\PSoC4/CapSense_Structure.c **** * \brief
1201:Generated_Source\PSoC4/CapSense_Structure.c **** *  Reports if the specified sensor in the widget detects a touch.
1202:Generated_Source\PSoC4/CapSense_Structure.c **** *
1203:Generated_Source\PSoC4/CapSense_Structure.c **** * \details
1204:Generated_Source\PSoC4/CapSense_Structure.c **** *  This function reports if the specified sensor in the widget has detected a
1205:Generated_Source\PSoC4/CapSense_Structure.c **** *  touch or not by extracting information from the wdgtStatus registers
1206:Generated_Source\PSoC4/CapSense_Structure.c **** *  (CapSense_WDGT_STATUS<X>_VALUE). This function does not process the
1207:Generated_Source\PSoC4/CapSense_Structure.c **** *  widget or sensor but extracts processed results from the \ref group_structures.
1208:Generated_Source\PSoC4/CapSense_Structure.c **** *
1209:Generated_Source\PSoC4/CapSense_Structure.c **** *  For proximity sensors, this function returns the proximity detection status. To
1210:Generated_Source\PSoC4/CapSense_Structure.c **** *  get the finger touch status of proximity sensors, use the
1211:Generated_Source\PSoC4/CapSense_Structure.c **** *  CapSense_IsProximitySensorActive() function.
1212:Generated_Source\PSoC4/CapSense_Structure.c **** *
1213:Generated_Source\PSoC4/CapSense_Structure.c **** * \param widgetId
1214:Generated_Source\PSoC4/CapSense_Structure.c **** *  Specifies the ID number of the widget.
1215:Generated_Source\PSoC4/CapSense_Structure.c **** *  A macro for the widget ID can be found in the CapSense Configuration header
1216:Generated_Source\PSoC4/CapSense_Structure.c **** *  file defined as CapSense_<WidgetName>_WDGT_ID.
1217:Generated_Source\PSoC4/CapSense_Structure.c **** 
1218:Generated_Source\PSoC4/CapSense_Structure.c **** * \param sensorId
1219:Generated_Source\PSoC4/CapSense_Structure.c **** *  Specifies the ID number of the sensor within the widget to get its touch
1220:Generated_Source\PSoC4/CapSense_Structure.c **** *  detection status.
1221:Generated_Source\PSoC4/CapSense_Structure.c **** *  A macro for the sensor ID within the specified widget can be found in the
1222:Generated_Source\PSoC4/CapSense_Structure.c **** *  CapSense Configuration header file defined as
1223:Generated_Source\PSoC4/CapSense_Structure.c **** *  CapSense_<WidgetName>_SNS<SensorNumber>_ID.
1224:Generated_Source\PSoC4/CapSense_Structure.c **** *
1225:Generated_Source\PSoC4/CapSense_Structure.c **** * \return
1226:Generated_Source\PSoC4/CapSense_Structure.c **** *  Returns the touch detection status of the specified sensor / widget:
1227:Generated_Source\PSoC4/CapSense_Structure.c **** *    - Zero if no touch is detected in the specified sensor / widget or a wrong
1228:Generated_Source\PSoC4/CapSense_Structure.c **** *      widget ID / sensor ID is specified.
1229:Generated_Source\PSoC4/CapSense_Structure.c **** *    - Non-zero if the specified sensor is active i.e. touch is detected. If the
1230:Generated_Source\PSoC4/CapSense_Structure.c **** *      specific sensor belongs to a proximity widget, the proximity detection
1231:Generated_Source\PSoC4/CapSense_Structure.c **** *      status is returned.
1232:Generated_Source\PSoC4/CapSense_Structure.c **** *
1233:Generated_Source\PSoC4/CapSense_Structure.c **** *******************************************************************************/
1234:Generated_Source\PSoC4/CapSense_Structure.c **** uint32 CapSense_IsSensorActive(uint32 widgetId, uint32 sensorId)
1235:Generated_Source\PSoC4/CapSense_Structure.c **** {
 591              		.loc 1 1235 0
 592              		.cfi_startproc
 593              		@ args = 0, pretend = 0, frame = 0
 594              		@ frame_needed = 0, uses_anonymous_args = 0
 595              		@ link register save eliminated.
 596              	.LVL60:
1236:Generated_Source\PSoC4/CapSense_Structure.c ****     uint32 result = 0Lu;
1237:Generated_Source\PSoC4/CapSense_Structure.c **** 
1238:Generated_Source\PSoC4/CapSense_Structure.c ****     if ((widgetId < CapSense_TOTAL_WIDGETS) &&
 597              		.loc 1 1238 0
 598 0000 0028     		cmp	r0, #0
 599 0002 0FD1     		bne	.L55
1239:Generated_Source\PSoC4/CapSense_Structure.c ****         (sensorId < CapSense_GET_SENSOR_COUNT(widgetId)))
 600              		.loc 1 1239 0 discriminator 1
 601 0004 C200     		lsls	r2, r0, #3
 602 0006 121A     		subs	r2, r2, r0
 603 0008 D300     		lsls	r3, r2, #3
 604 000a 084A     		ldr	r2, .L57
 605 000c D318     		adds	r3, r2, r3
 606 000e 4C33     		adds	r3, r3, #76
 607 0010 1B88     		ldrh	r3, [r3]
ARM GAS  C:\Users\inspiron\AppData\Local\Temp\cc3AwUZg.s 			page 34


1238:Generated_Source\PSoC4/CapSense_Structure.c ****         (sensorId < CapSense_GET_SENSOR_COUNT(widgetId)))
 608              		.loc 1 1238 0 discriminator 1
 609 0012 8B42     		cmp	r3, r1
 610 0014 08D9     		bls	.L56
1240:Generated_Source\PSoC4/CapSense_Structure.c ****     {
1241:Generated_Source\PSoC4/CapSense_Structure.c ****         #if (CapSense_ENABLE == CapSense_PROXIMITY_WIDGET_EN)
1242:Generated_Source\PSoC4/CapSense_Structure.c ****             if (CapSense_WD_PROXIMITY_E ==
1243:Generated_Source\PSoC4/CapSense_Structure.c ****                 (CapSense_WD_TYPE_ENUM)CapSense_dsFlash.wdgtArray[widgetId].wdgtType)
1244:Generated_Source\PSoC4/CapSense_Structure.c ****             {
1245:Generated_Source\PSoC4/CapSense_Structure.c ****                 sensorId = CapSense_PROX_STS_OFFSET(sensorId);
1246:Generated_Source\PSoC4/CapSense_Structure.c ****             }
1247:Generated_Source\PSoC4/CapSense_Structure.c ****         #endif /* (CapSense_ENABLE != CapSense_PROXIMITY_WIDGET_EN) */
1248:Generated_Source\PSoC4/CapSense_Structure.c ****         result = CapSense_dsRam.snsStatus[widgetId] & (1Lu << sensorId);
 611              		.loc 1 1248 0
 612 0016 064B     		ldr	r3, .L57+4
 613 0018 1818     		adds	r0, r3, r0
 614              	.LVL61:
 615 001a 037E     		ldrb	r3, [r0, #24]
 616 001c 0120     		movs	r0, #1
 617 001e 8840     		lsls	r0, r0, r1
 618 0020 1840     		ands	r0, r3
 619              	.LVL62:
 620 0022 02E0     		b	.L54
 621              	.LVL63:
 622              	.L55:
1236:Generated_Source\PSoC4/CapSense_Structure.c **** 
 623              		.loc 1 1236 0
 624 0024 0020     		movs	r0, #0
 625              	.LVL64:
 626 0026 00E0     		b	.L54
 627              	.LVL65:
 628              	.L56:
 629 0028 0020     		movs	r0, #0
 630              	.LVL66:
 631              	.L54:
1249:Generated_Source\PSoC4/CapSense_Structure.c ****     }
1250:Generated_Source\PSoC4/CapSense_Structure.c **** 
1251:Generated_Source\PSoC4/CapSense_Structure.c ****     return result;
1252:Generated_Source\PSoC4/CapSense_Structure.c **** }
 632              		.loc 1 1252 0
 633              		@ sp needed
 634 002a 7047     		bx	lr
 635              	.L58:
 636              		.align	2
 637              	.L57:
 638 002c 00000000 		.word	.LANCHOR0
 639 0030 00000000 		.word	CapSense_dsRam
 640              		.cfi_endproc
 641              	.LFE7:
 642              		.size	CapSense_IsSensorActive, .-CapSense_IsSensorActive
 643              		.section	.text.CapSense_GetXYCoordinates,"ax",%progbits
 644              		.align	2
 645              		.global	CapSense_GetXYCoordinates
 646              		.code	16
 647              		.thumb_func
 648              		.type	CapSense_GetXYCoordinates, %function
 649              	CapSense_GetXYCoordinates:
ARM GAS  C:\Users\inspiron\AppData\Local\Temp\cc3AwUZg.s 			page 35


 650              	.LFB8:
1253:Generated_Source\PSoC4/CapSense_Structure.c **** 
1254:Generated_Source\PSoC4/CapSense_Structure.c **** #if (0u != CapSense_MATRIX_WIDGET_EN)
1255:Generated_Source\PSoC4/CapSense_Structure.c **** /*******************************************************************************
1256:Generated_Source\PSoC4/CapSense_Structure.c **** * Function Name: CapSense_IsMatrixButtonsActive
1257:Generated_Source\PSoC4/CapSense_Structure.c **** ****************************************************************************//**
1258:Generated_Source\PSoC4/CapSense_Structure.c **** *
1259:Generated_Source\PSoC4/CapSense_Structure.c **** * \brief
1260:Generated_Source\PSoC4/CapSense_Structure.c **** *  Reports the status of the specified matrix button widget.
1261:Generated_Source\PSoC4/CapSense_Structure.c **** *
1262:Generated_Source\PSoC4/CapSense_Structure.c **** * \details
1263:Generated_Source\PSoC4/CapSense_Structure.c **** *  This function reports if the specified matrix widget has detected a touch or
1264:Generated_Source\PSoC4/CapSense_Structure.c **** *  not by extracting information from the wdgtStatus registers
1265:Generated_Source\PSoC4/CapSense_Structure.c **** *  (CapSense_WDGT_STATUS<X>_VALUE for the CSD widgets and
1266:Generated_Source\PSoC4/CapSense_Structure.c **** *  CapSense_SNS_STATUS<WidgetId>_VALUE for CSX widget). In addition, the
1267:Generated_Source\PSoC4/CapSense_Structure.c **** *  function provides details of the active sensor including active rows/columns
1268:Generated_Source\PSoC4/CapSense_Structure.c **** *  for the CSD widgets. This function is used only with the matrix button
1269:Generated_Source\PSoC4/CapSense_Structure.c **** *  widgets. This function does not process the widget but extracts
1270:Generated_Source\PSoC4/CapSense_Structure.c **** *  processed results from the \ref group_structures.
1271:Generated_Source\PSoC4/CapSense_Structure.c **** *
1272:Generated_Source\PSoC4/CapSense_Structure.c **** * \param widgetId
1273:Generated_Source\PSoC4/CapSense_Structure.c **** *  Specifies the ID number of the matrix button widget to check the status of its
1274:Generated_Source\PSoC4/CapSense_Structure.c **** *  sensors.
1275:Generated_Source\PSoC4/CapSense_Structure.c **** *  A macro for the widget ID can be found in the CapSense Configuration header file
1276:Generated_Source\PSoC4/CapSense_Structure.c **** *  defined as CapSense_<WidgetName>_WDGT_ID
1277:Generated_Source\PSoC4/CapSense_Structure.c **** *
1278:Generated_Source\PSoC4/CapSense_Structure.c **** * \return
1279:Generated_Source\PSoC4/CapSense_Structure.c **** *  Returns the touch detection status of the sensors in the specified matrix
1280:Generated_Source\PSoC4/CapSense_Structure.c **** *  buttons widget. Zero indicates that no touch is detected in the specified
1281:Generated_Source\PSoC4/CapSense_Structure.c **** *  widget or a wrong widgetId is specified.
1282:Generated_Source\PSoC4/CapSense_Structure.c **** *    1. For the matrix buttons widgets with the CSD sensing mode:
1283:Generated_Source\PSoC4/CapSense_Structure.c **** *      - Bit [31] if set, indicates that one or more sensors in the widget
1284:Generated_Source\PSoC4/CapSense_Structure.c **** *        detected a touch.
1285:Generated_Source\PSoC4/CapSense_Structure.c **** *      - Bits [30..24] are reserved
1286:Generated_Source\PSoC4/CapSense_Structure.c **** *      - Bits [23..16] indicate the logical sensor number of the sensor that
1287:Generated_Source\PSoC4/CapSense_Structure.c **** *        detected a touch. If more than one sensor detected a touch for the CSD
1288:Generated_Source\PSoC4/CapSense_Structure.c **** *        widget, no status is reported because more than one touch is invalid for the
1289:Generated_Source\PSoC4/CapSense_Structure.c **** *        CSD matrix buttons widgets.
1290:Generated_Source\PSoC4/CapSense_Structure.c **** *      - Bits [15..8] indicate the active row number.
1291:Generated_Source\PSoC4/CapSense_Structure.c **** *      - Bits [7..0] indicate the active column number.
1292:Generated_Source\PSoC4/CapSense_Structure.c **** *    2. For the matrix buttons widgets with the CSX widgets, each bit (31..0)
1293:Generated_Source\PSoC4/CapSense_Structure.c **** *      corresponds to the TX/RX intersection.
1294:Generated_Source\PSoC4/CapSense_Structure.c **** *
1295:Generated_Source\PSoC4/CapSense_Structure.c **** *******************************************************************************/
1296:Generated_Source\PSoC4/CapSense_Structure.c **** uint32 CapSense_IsMatrixButtonsActive(uint32 widgetId)
1297:Generated_Source\PSoC4/CapSense_Structure.c **** {
1298:Generated_Source\PSoC4/CapSense_Structure.c ****     uint32 result = 0Lu;
1299:Generated_Source\PSoC4/CapSense_Structure.c ****     cystatus state = CYRET_SUCCESS;
1300:Generated_Source\PSoC4/CapSense_Structure.c ****     CapSense_FLASH_WD_STRUCT const *ptrFlashWdgt = 0u;
1301:Generated_Source\PSoC4/CapSense_Structure.c **** 
1302:Generated_Source\PSoC4/CapSense_Structure.c ****     #if (0u != CapSense_CSD_MATRIX_WIDGET_EN)
1303:Generated_Source\PSoC4/CapSense_Structure.c ****         CapSense_RAM_WD_CSD_MATRIX_STRUCT *wdCsdMatrix;
1304:Generated_Source\PSoC4/CapSense_Structure.c ****     #endif
1305:Generated_Source\PSoC4/CapSense_Structure.c **** 
1306:Generated_Source\PSoC4/CapSense_Structure.c ****     if (widgetId >= CapSense_TOTAL_WIDGETS)
1307:Generated_Source\PSoC4/CapSense_Structure.c ****     {
1308:Generated_Source\PSoC4/CapSense_Structure.c ****         state = CYRET_BAD_PARAM;
ARM GAS  C:\Users\inspiron\AppData\Local\Temp\cc3AwUZg.s 			page 36


1309:Generated_Source\PSoC4/CapSense_Structure.c ****     }
1310:Generated_Source\PSoC4/CapSense_Structure.c ****     else
1311:Generated_Source\PSoC4/CapSense_Structure.c ****     {
1312:Generated_Source\PSoC4/CapSense_Structure.c ****         ptrFlashWdgt = &CapSense_dsFlash.wdgtArray[widgetId];
1313:Generated_Source\PSoC4/CapSense_Structure.c **** 
1314:Generated_Source\PSoC4/CapSense_Structure.c ****         if ((CapSense_WD_TYPE_ENUM)ptrFlashWdgt->wdgtType != CapSense_WD_MATRIX_BUTTON_E)
1315:Generated_Source\PSoC4/CapSense_Structure.c ****         {
1316:Generated_Source\PSoC4/CapSense_Structure.c ****             state = CYRET_BAD_PARAM;
1317:Generated_Source\PSoC4/CapSense_Structure.c ****         }
1318:Generated_Source\PSoC4/CapSense_Structure.c ****         else if (0u == CapSense_GET_WIDGET_ACTIVE_STATUS(widgetId))
1319:Generated_Source\PSoC4/CapSense_Structure.c ****         {
1320:Generated_Source\PSoC4/CapSense_Structure.c ****             state = CYRET_BAD_PARAM;
1321:Generated_Source\PSoC4/CapSense_Structure.c ****         }
1322:Generated_Source\PSoC4/CapSense_Structure.c ****         else
1323:Generated_Source\PSoC4/CapSense_Structure.c ****         {
1324:Generated_Source\PSoC4/CapSense_Structure.c ****             /* input parameters are OK */
1325:Generated_Source\PSoC4/CapSense_Structure.c ****         }
1326:Generated_Source\PSoC4/CapSense_Structure.c ****     }
1327:Generated_Source\PSoC4/CapSense_Structure.c **** 
1328:Generated_Source\PSoC4/CapSense_Structure.c ****     if (CYRET_SUCCESS == state)
1329:Generated_Source\PSoC4/CapSense_Structure.c ****     {
1330:Generated_Source\PSoC4/CapSense_Structure.c ****         switch(CapSense_GET_SENSE_METHOD(ptrFlashWdgt))
1331:Generated_Source\PSoC4/CapSense_Structure.c ****         {
1332:Generated_Source\PSoC4/CapSense_Structure.c ****         #if (0u != CapSense_CSD_MATRIX_WIDGET_EN)
1333:Generated_Source\PSoC4/CapSense_Structure.c ****             case CapSense_SENSE_METHOD_CSD_E:
1334:Generated_Source\PSoC4/CapSense_Structure.c ****                 wdCsdMatrix = ptrFlashWdgt->ptr2WdgtRam;
1335:Generated_Source\PSoC4/CapSense_Structure.c **** 
1336:Generated_Source\PSoC4/CapSense_Structure.c ****                 result = CapSense_MATRIX_BUTTONS_TOUCHED |
1337:Generated_Source\PSoC4/CapSense_Structure.c ****                          ((uint32)wdCsdMatrix->posSnsId << 16u)  |
1338:Generated_Source\PSoC4/CapSense_Structure.c ****                          ((uint32)wdCsdMatrix->posRow   << 8u)   |
1339:Generated_Source\PSoC4/CapSense_Structure.c ****                          (uint32)wdCsdMatrix->posCol;
1340:Generated_Source\PSoC4/CapSense_Structure.c ****                 break;
1341:Generated_Source\PSoC4/CapSense_Structure.c ****         #endif /* #if (0u != CapSense_CSD_MATRIX_WIDGET_EN) */
1342:Generated_Source\PSoC4/CapSense_Structure.c **** 
1343:Generated_Source\PSoC4/CapSense_Structure.c ****         #if (0u != CapSense_CSX_MATRIX_WIDGET_EN)
1344:Generated_Source\PSoC4/CapSense_Structure.c ****             case CapSense_SENSE_METHOD_CSX_E:
1345:Generated_Source\PSoC4/CapSense_Structure.c ****                 result = CapSense_dsRam.snsStatus[widgetId];
1346:Generated_Source\PSoC4/CapSense_Structure.c ****                 break;
1347:Generated_Source\PSoC4/CapSense_Structure.c ****         #endif /* #if (0u != CapSense_CSX_MATRIX_WIDGET_EN) */
1348:Generated_Source\PSoC4/CapSense_Structure.c **** 
1349:Generated_Source\PSoC4/CapSense_Structure.c ****         default:
1350:Generated_Source\PSoC4/CapSense_Structure.c ****             CYASSERT(0u);
1351:Generated_Source\PSoC4/CapSense_Structure.c ****             break;
1352:Generated_Source\PSoC4/CapSense_Structure.c ****         }
1353:Generated_Source\PSoC4/CapSense_Structure.c ****     }
1354:Generated_Source\PSoC4/CapSense_Structure.c **** 
1355:Generated_Source\PSoC4/CapSense_Structure.c ****     return result;
1356:Generated_Source\PSoC4/CapSense_Structure.c **** }
1357:Generated_Source\PSoC4/CapSense_Structure.c **** #endif /* #if (0u != CapSense_MATRIX_WIDGET_EN) */
1358:Generated_Source\PSoC4/CapSense_Structure.c **** 
1359:Generated_Source\PSoC4/CapSense_Structure.c **** #if (0u != CapSense_PROXIMITY_WIDGET_EN)
1360:Generated_Source\PSoC4/CapSense_Structure.c **** /*******************************************************************************
1361:Generated_Source\PSoC4/CapSense_Structure.c **** * Function Name: CapSense_IsProximitySensorActive
1362:Generated_Source\PSoC4/CapSense_Structure.c **** ****************************************************************************//**
1363:Generated_Source\PSoC4/CapSense_Structure.c **** *
1364:Generated_Source\PSoC4/CapSense_Structure.c **** * \brief
1365:Generated_Source\PSoC4/CapSense_Structure.c **** *  Reports the finger detection status of the specified proximity widget/sensor.
ARM GAS  C:\Users\inspiron\AppData\Local\Temp\cc3AwUZg.s 			page 37


1366:Generated_Source\PSoC4/CapSense_Structure.c **** *
1367:Generated_Source\PSoC4/CapSense_Structure.c **** * \details
1368:Generated_Source\PSoC4/CapSense_Structure.c **** *  This function reports if the specified proximity sensor has detected a touch
1369:Generated_Source\PSoC4/CapSense_Structure.c **** *  or not by extracting information from the wdgtStatus registers
1370:Generated_Source\PSoC4/CapSense_Structure.c **** *  (CapSense_SNS_STATUS<WidgetId>_VALUE). This function is used
1371:Generated_Source\PSoC4/CapSense_Structure.c **** *  only with proximity sensor widgets. This function does not process the
1372:Generated_Source\PSoC4/CapSense_Structure.c **** *  widget but extracts processed results from the \ref group_structures.
1373:Generated_Source\PSoC4/CapSense_Structure.c **** *
1374:Generated_Source\PSoC4/CapSense_Structure.c **** * \param widgetId
1375:Generated_Source\PSoC4/CapSense_Structure.c **** *  Specifies the ID number of the proximity widget.
1376:Generated_Source\PSoC4/CapSense_Structure.c **** *  A macro for the widget ID can be found in the CapSense Configuration header
1377:Generated_Source\PSoC4/CapSense_Structure.c **** *  file defined as CapSense_<WidgetName>_WDGT_ID
1378:Generated_Source\PSoC4/CapSense_Structure.c **** *
1379:Generated_Source\PSoC4/CapSense_Structure.c **** * \param proxId
1380:Generated_Source\PSoC4/CapSense_Structure.c **** *  Specifies the ID number of the proximity sensor within the proximity widget to
1381:Generated_Source\PSoC4/CapSense_Structure.c **** *  get its touch detection status.
1382:Generated_Source\PSoC4/CapSense_Structure.c **** *  A macro for the proximity ID within a specified widget can be found in the
1383:Generated_Source\PSoC4/CapSense_Structure.c **** *  CapSense Configuration header file defined as
1384:Generated_Source\PSoC4/CapSense_Structure.c **** *  CapSense_<WidgetName>_SNS<SensorNumber>_ID
1385:Generated_Source\PSoC4/CapSense_Structure.c **** *
1386:Generated_Source\PSoC4/CapSense_Structure.c **** * \return
1387:Generated_Source\PSoC4/CapSense_Structure.c **** *  Returns the status of the specified sensor of the proximity widget. Zero
1388:Generated_Source\PSoC4/CapSense_Structure.c **** *  indicates that no touch is detected in the specified sensor / widget or a
1389:Generated_Source\PSoC4/CapSense_Structure.c **** *  wrong widgetId / proxId is specified.
1390:Generated_Source\PSoC4/CapSense_Structure.c **** *    - Bits [31..2] are reserved.
1391:Generated_Source\PSoC4/CapSense_Structure.c **** *    - Bit [1] indicates that a touch is detected.
1392:Generated_Source\PSoC4/CapSense_Structure.c **** *    - Bit [0] indicates that a proximity is detected.
1393:Generated_Source\PSoC4/CapSense_Structure.c **** *
1394:Generated_Source\PSoC4/CapSense_Structure.c **** *******************************************************************************/
1395:Generated_Source\PSoC4/CapSense_Structure.c **** uint32 CapSense_IsProximitySensorActive(uint32 widgetId, uint32 proxId)
1396:Generated_Source\PSoC4/CapSense_Structure.c **** {
1397:Generated_Source\PSoC4/CapSense_Structure.c ****     uint32 result = 0Lu;
1398:Generated_Source\PSoC4/CapSense_Structure.c **** 
1399:Generated_Source\PSoC4/CapSense_Structure.c ****     if ((widgetId < CapSense_TOTAL_WIDGETS) && (proxId < CapSense_GET_SENSOR_COUNT(widgetId)) &&
1400:Generated_Source\PSoC4/CapSense_Structure.c ****         (CapSense_WD_PROXIMITY_E ==
1401:Generated_Source\PSoC4/CapSense_Structure.c ****             (CapSense_WD_TYPE_ENUM)CapSense_dsFlash.wdgtArray[widgetId].wdgtType))
1402:Generated_Source\PSoC4/CapSense_Structure.c ****     {
1403:Generated_Source\PSoC4/CapSense_Structure.c ****         result = CapSense_dsRam.snsStatus[widgetId];
1404:Generated_Source\PSoC4/CapSense_Structure.c ****         result >>= CapSense_PROX_STS_OFFSET(proxId);
1405:Generated_Source\PSoC4/CapSense_Structure.c ****         result &=  CapSense_PROX_STS_MASK;
1406:Generated_Source\PSoC4/CapSense_Structure.c ****     }
1407:Generated_Source\PSoC4/CapSense_Structure.c **** 
1408:Generated_Source\PSoC4/CapSense_Structure.c ****     return result;
1409:Generated_Source\PSoC4/CapSense_Structure.c **** }
1410:Generated_Source\PSoC4/CapSense_Structure.c **** #endif /* #if (0u != CapSense_PROXIMITY_WIDGET_EN) */
1411:Generated_Source\PSoC4/CapSense_Structure.c **** 
1412:Generated_Source\PSoC4/CapSense_Structure.c **** 
1413:Generated_Source\PSoC4/CapSense_Structure.c **** #if (0u != CapSense_SLIDER_WIDGET_EN)
1414:Generated_Source\PSoC4/CapSense_Structure.c **** /*******************************************************************************
1415:Generated_Source\PSoC4/CapSense_Structure.c **** * Function Name: CapSense_GetCentroidPos
1416:Generated_Source\PSoC4/CapSense_Structure.c **** ****************************************************************************//**
1417:Generated_Source\PSoC4/CapSense_Structure.c **** *
1418:Generated_Source\PSoC4/CapSense_Structure.c **** * \brief
1419:Generated_Source\PSoC4/CapSense_Structure.c **** *  Reports the centroid position for the specified slider widget.
1420:Generated_Source\PSoC4/CapSense_Structure.c **** *
1421:Generated_Source\PSoC4/CapSense_Structure.c **** * \details
1422:Generated_Source\PSoC4/CapSense_Structure.c **** *  This function reports the centroid value of a specified radial or linear
ARM GAS  C:\Users\inspiron\AppData\Local\Temp\cc3AwUZg.s 			page 38


1423:Generated_Source\PSoC4/CapSense_Structure.c **** *  slider widget by extracting information from the wdgtStatus registers
1424:Generated_Source\PSoC4/CapSense_Structure.c **** *  (CapSense_<WidgetName>_POSITION<X>_VALUE). This function is
1425:Generated_Source\PSoC4/CapSense_Structure.c **** *  used only with radial or linear slider widgets. This function does not
1426:Generated_Source\PSoC4/CapSense_Structure.c **** *  process the widget but extracts processed results from the \ref group_structures.
1427:Generated_Source\PSoC4/CapSense_Structure.c **** *
1428:Generated_Source\PSoC4/CapSense_Structure.c **** * \param widgetId
1429:Generated_Source\PSoC4/CapSense_Structure.c **** *  Specifies the ID number of a slider widget to get the centroid of the
1430:Generated_Source\PSoC4/CapSense_Structure.c **** *  detected touch.
1431:Generated_Source\PSoC4/CapSense_Structure.c **** *  A macro for the widget ID can be found in the
1432:Generated_Source\PSoC4/CapSense_Structure.c **** *  CapSense Configuration header file defined as
1433:Generated_Source\PSoC4/CapSense_Structure.c **** *  CapSense_<WidgetName>_WDGT_ID
1434:Generated_Source\PSoC4/CapSense_Structure.c **** *
1435:Generated_Source\PSoC4/CapSense_Structure.c **** * \return
1436:Generated_Source\PSoC4/CapSense_Structure.c **** *  Returns the centroid position of a specified slider widget:
1437:Generated_Source\PSoC4/CapSense_Structure.c **** *    - The centroid position if a touch is detected.
1438:Generated_Source\PSoC4/CapSense_Structure.c **** *    - CapSense_SLIDER_NO_TOUCH - No touch is detected or a wrong
1439:Generated_Source\PSoC4/CapSense_Structure.c **** *      widgetId is specified.
1440:Generated_Source\PSoC4/CapSense_Structure.c **** *
1441:Generated_Source\PSoC4/CapSense_Structure.c **** *******************************************************************************/
1442:Generated_Source\PSoC4/CapSense_Structure.c **** uint32 CapSense_GetCentroidPos(uint32 widgetId)
1443:Generated_Source\PSoC4/CapSense_Structure.c **** {
1444:Generated_Source\PSoC4/CapSense_Structure.c ****     uint32 result = CapSense_SLIDER_NO_TOUCH;
1445:Generated_Source\PSoC4/CapSense_Structure.c ****     CapSense_RAM_WD_SLIDER_STRUCT *wdSlider;
1446:Generated_Source\PSoC4/CapSense_Structure.c **** 
1447:Generated_Source\PSoC4/CapSense_Structure.c ****     if ((widgetId < CapSense_TOTAL_WIDGETS) &&
1448:Generated_Source\PSoC4/CapSense_Structure.c ****         ((CapSense_WD_LINEAR_SLIDER_E ==
1449:Generated_Source\PSoC4/CapSense_Structure.c ****             (CapSense_WD_TYPE_ENUM)CapSense_dsFlash.wdgtArray[widgetId].wdgtType) ||
1450:Generated_Source\PSoC4/CapSense_Structure.c ****          (CapSense_WD_RADIAL_SLIDER_E ==
1451:Generated_Source\PSoC4/CapSense_Structure.c ****             (CapSense_WD_TYPE_ENUM)CapSense_dsFlash.wdgtArray[widgetId].wdgtType)))
1452:Generated_Source\PSoC4/CapSense_Structure.c ****     {
1453:Generated_Source\PSoC4/CapSense_Structure.c ****         wdSlider = CapSense_dsFlash.wdgtArray[widgetId].ptr2WdgtRam;
1454:Generated_Source\PSoC4/CapSense_Structure.c ****         result = (uint32)wdSlider->position[0u];
1455:Generated_Source\PSoC4/CapSense_Structure.c ****     }
1456:Generated_Source\PSoC4/CapSense_Structure.c **** 
1457:Generated_Source\PSoC4/CapSense_Structure.c ****     return result;
1458:Generated_Source\PSoC4/CapSense_Structure.c **** }
1459:Generated_Source\PSoC4/CapSense_Structure.c **** #endif /* #if (0u != CapSense_SLIDER_WIDGET_EN) */
1460:Generated_Source\PSoC4/CapSense_Structure.c **** 
1461:Generated_Source\PSoC4/CapSense_Structure.c **** 
1462:Generated_Source\PSoC4/CapSense_Structure.c **** #if (0u != CapSense_TOUCHPAD_WIDGET_EN)
1463:Generated_Source\PSoC4/CapSense_Structure.c **** /*******************************************************************************
1464:Generated_Source\PSoC4/CapSense_Structure.c **** * Function Name: CapSense_GetXYCoordinates
1465:Generated_Source\PSoC4/CapSense_Structure.c **** ****************************************************************************//**
1466:Generated_Source\PSoC4/CapSense_Structure.c **** *
1467:Generated_Source\PSoC4/CapSense_Structure.c **** * \brief
1468:Generated_Source\PSoC4/CapSense_Structure.c **** *  Reports the X/Y position detected for the specified touchpad widget.
1469:Generated_Source\PSoC4/CapSense_Structure.c **** *
1470:Generated_Source\PSoC4/CapSense_Structure.c **** * \details
1471:Generated_Source\PSoC4/CapSense_Structure.c **** *  This function reports a touch position (X and Y coordinates) value of a
1472:Generated_Source\PSoC4/CapSense_Structure.c **** *  specified touchpad widget by extracting information from the wdgtStatus
1473:Generated_Source\PSoC4/CapSense_Structure.c **** *  registers (CapSense_<WidgetName>_POS_Y_VALUE). This function should
1474:Generated_Source\PSoC4/CapSense_Structure.c **** *  be used only with the touchpad widgets. This function does not process the
1475:Generated_Source\PSoC4/CapSense_Structure.c **** *  widget but extracts processed results from the \ref group_structures.
1476:Generated_Source\PSoC4/CapSense_Structure.c **** *
1477:Generated_Source\PSoC4/CapSense_Structure.c **** * \param widgetId
1478:Generated_Source\PSoC4/CapSense_Structure.c **** *  Specifies the ID number of a touchpad widget to get the X/Y position of a
1479:Generated_Source\PSoC4/CapSense_Structure.c **** *  detected touch.
ARM GAS  C:\Users\inspiron\AppData\Local\Temp\cc3AwUZg.s 			page 39


1480:Generated_Source\PSoC4/CapSense_Structure.c **** *  A macro for the widget ID can be found in the
1481:Generated_Source\PSoC4/CapSense_Structure.c **** *  CapSense Configuration header file defined as
1482:Generated_Source\PSoC4/CapSense_Structure.c **** *  CapSense_<WidgetName>_WDGT_ID.
1483:Generated_Source\PSoC4/CapSense_Structure.c **** *
1484:Generated_Source\PSoC4/CapSense_Structure.c **** * \return
1485:Generated_Source\PSoC4/CapSense_Structure.c **** *  Returns the touch position of a specified touchpad widget:
1486:Generated_Source\PSoC4/CapSense_Structure.c **** *    1. If a touch is detected:
1487:Generated_Source\PSoC4/CapSense_Structure.c **** *      - Bits [31..16] indicate the Y coordinate.
1488:Generated_Source\PSoC4/CapSense_Structure.c **** *      - Bits [15..0] indicate the X coordinate.
1489:Generated_Source\PSoC4/CapSense_Structure.c **** *    2. If no touch is detected or a wrong widgetId is specified:
1490:Generated_Source\PSoC4/CapSense_Structure.c **** *      - CapSense_TOUCHPAD_NO_TOUCH.
1491:Generated_Source\PSoC4/CapSense_Structure.c **** *
1492:Generated_Source\PSoC4/CapSense_Structure.c **** *******************************************************************************/
1493:Generated_Source\PSoC4/CapSense_Structure.c **** uint32 CapSense_GetXYCoordinates(uint32 widgetId)
1494:Generated_Source\PSoC4/CapSense_Structure.c **** {
 651              		.loc 1 1494 0
 652              		.cfi_startproc
 653              		@ args = 0, pretend = 0, frame = 0
 654              		@ frame_needed = 0, uses_anonymous_args = 0
 655              	.LVL67:
 656 0000 10B5     		push	{r4, lr}
 657              		.cfi_def_cfa_offset 8
 658              		.cfi_offset 4, -8
 659              		.cfi_offset 14, -4
 660              	.LVL68:
1495:Generated_Source\PSoC4/CapSense_Structure.c ****     CapSense_FLASH_WD_STRUCT const *ptrFlashWdgt = NULL;
1496:Generated_Source\PSoC4/CapSense_Structure.c **** 
1497:Generated_Source\PSoC4/CapSense_Structure.c ****     #if (0u != CapSense_CSD_TOUCHPAD_WIDGET_EN)
1498:Generated_Source\PSoC4/CapSense_Structure.c ****         CapSense_RAM_WD_CSD_TOUCHPAD_STRUCT *wdCsdTouchpad;
1499:Generated_Source\PSoC4/CapSense_Structure.c ****     #endif /* #if (0u != CapSense_CSD_TOUCHPAD_WIDGET_EN) */
1500:Generated_Source\PSoC4/CapSense_Structure.c **** 
1501:Generated_Source\PSoC4/CapSense_Structure.c ****     #if (0u != CapSense_CSX_TOUCHPAD_WIDGET_EN)
1502:Generated_Source\PSoC4/CapSense_Structure.c ****         CapSense_RAM_WD_CSX_TOUCHPAD_STRUCT *wdCsxTouchpad;
1503:Generated_Source\PSoC4/CapSense_Structure.c ****     #endif /* #if (0u != CapSense_CSX_TOUCHPAD_WIDGET_EN) */
1504:Generated_Source\PSoC4/CapSense_Structure.c **** 
1505:Generated_Source\PSoC4/CapSense_Structure.c ****     cystatus state = CYRET_SUCCESS;
1506:Generated_Source\PSoC4/CapSense_Structure.c ****     uint32 result = CapSense_TOUCHPAD_NO_TOUCH;
1507:Generated_Source\PSoC4/CapSense_Structure.c **** 
1508:Generated_Source\PSoC4/CapSense_Structure.c ****     if (widgetId >= CapSense_TOTAL_WIDGETS)
 661              		.loc 1 1508 0
 662 0002 0028     		cmp	r0, #0
 663 0004 0BD1     		bne	.L62
1509:Generated_Source\PSoC4/CapSense_Structure.c ****     {
1510:Generated_Source\PSoC4/CapSense_Structure.c ****         state = CYRET_BAD_PARAM;
1511:Generated_Source\PSoC4/CapSense_Structure.c ****     }
1512:Generated_Source\PSoC4/CapSense_Structure.c ****     else
1513:Generated_Source\PSoC4/CapSense_Structure.c ****     {
1514:Generated_Source\PSoC4/CapSense_Structure.c ****         ptrFlashWdgt = &CapSense_dsFlash.wdgtArray[widgetId];
 664              		.loc 1 1514 0
 665 0006 0D4B     		ldr	r3, .L65
 666 0008 3433     		adds	r3, r3, #52
 667 000a 1900     		movs	r1, r3
 668 000c C300     		lsls	r3, r0, #3
 669 000e 1C1A     		subs	r4, r3, r0
 670 0010 E200     		lsls	r2, r4, #3
 671 0012 8A18     		adds	r2, r1, r2
 672              	.LVL69:
ARM GAS  C:\Users\inspiron\AppData\Local\Temp\cc3AwUZg.s 			page 40


1515:Generated_Source\PSoC4/CapSense_Structure.c **** 
1516:Generated_Source\PSoC4/CapSense_Structure.c ****         if ((CapSense_WD_TYPE_ENUM)ptrFlashWdgt->wdgtType != CapSense_WD_TOUCHPAD_E)
 673              		.loc 1 1516 0
 674 0014 937E     		ldrb	r3, [r2, #26]
 675 0016 052B     		cmp	r3, #5
 676 0018 04D1     		bne	.L63
1505:Generated_Source\PSoC4/CapSense_Structure.c ****     uint32 result = CapSense_TOUCHPAD_NO_TOUCH;
 677              		.loc 1 1505 0
 678 001a 0023     		movs	r3, #0
 679 001c 03E0     		b	.L60
 680              	.LVL70:
 681              	.L62:
1510:Generated_Source\PSoC4/CapSense_Structure.c ****     }
 682              		.loc 1 1510 0
 683 001e 0123     		movs	r3, #1
1495:Generated_Source\PSoC4/CapSense_Structure.c **** 
 684              		.loc 1 1495 0
 685 0020 0022     		movs	r2, #0
 686 0022 00E0     		b	.L60
 687              	.LVL71:
 688              	.L63:
1517:Generated_Source\PSoC4/CapSense_Structure.c ****         {
1518:Generated_Source\PSoC4/CapSense_Structure.c ****             state = CYRET_BAD_PARAM;
 689              		.loc 1 1518 0
 690 0024 0123     		movs	r3, #1
 691              	.LVL72:
 692              	.L60:
1519:Generated_Source\PSoC4/CapSense_Structure.c ****         }
1520:Generated_Source\PSoC4/CapSense_Structure.c ****     }
1521:Generated_Source\PSoC4/CapSense_Structure.c **** 
1522:Generated_Source\PSoC4/CapSense_Structure.c ****     if (CYRET_SUCCESS == state)
 693              		.loc 1 1522 0
 694 0026 002B     		cmp	r3, #0
 695 0028 05D1     		bne	.L64
1523:Generated_Source\PSoC4/CapSense_Structure.c ****     {
1524:Generated_Source\PSoC4/CapSense_Structure.c ****         switch(CapSense_GET_SENSE_METHOD(ptrFlashWdgt))
1525:Generated_Source\PSoC4/CapSense_Structure.c ****         {
1526:Generated_Source\PSoC4/CapSense_Structure.c ****         #if (0u != CapSense_CSD_TOUCHPAD_WIDGET_EN)
1527:Generated_Source\PSoC4/CapSense_Structure.c ****             case CapSense_SENSE_METHOD_CSD_E:
1528:Generated_Source\PSoC4/CapSense_Structure.c ****                 wdCsdTouchpad = ptrFlashWdgt->ptr2WdgtRam;
1529:Generated_Source\PSoC4/CapSense_Structure.c ****                 #if (CapSense_ENABLE == CapSense_CENTROID_5X5_CSD_EN)
1530:Generated_Source\PSoC4/CapSense_Structure.c ****                     #if (CapSense_ENABLE == CapSense_CENTROID_3X3_CSD_EN)
1531:Generated_Source\PSoC4/CapSense_Structure.c ****                         if (0 != (ptrFlashWdgt->staticConfig & CapSense_CENTROID_5X5_MASK))
1532:Generated_Source\PSoC4/CapSense_Structure.c ****                         {
1533:Generated_Source\PSoC4/CapSense_Structure.c ****                     #endif
1534:Generated_Source\PSoC4/CapSense_Structure.c ****                         result = ((uint32)wdCsdTouchpad->position.pos[0u].x) |
1535:Generated_Source\PSoC4/CapSense_Structure.c ****                                  ((uint32)wdCsdTouchpad->position.pos[0u].y << 16u);
1536:Generated_Source\PSoC4/CapSense_Structure.c ****                     #if (CapSense_ENABLE == CapSense_CENTROID_3X3_CSD_EN)
1537:Generated_Source\PSoC4/CapSense_Structure.c ****                         }
1538:Generated_Source\PSoC4/CapSense_Structure.c ****                     #endif
1539:Generated_Source\PSoC4/CapSense_Structure.c ****                 #endif
1540:Generated_Source\PSoC4/CapSense_Structure.c **** 
1541:Generated_Source\PSoC4/CapSense_Structure.c ****                 #if (CapSense_ENABLE == CapSense_CENTROID_3X3_CSD_EN)
1542:Generated_Source\PSoC4/CapSense_Structure.c ****                     #if (CapSense_ENABLE == CapSense_CENTROID_5X5_CSD_EN)
1543:Generated_Source\PSoC4/CapSense_Structure.c ****                         if (0 != (ptrFlashWdgt->staticConfig & CapSense_CENTROID_3X3_MASK))
1544:Generated_Source\PSoC4/CapSense_Structure.c ****                         {
1545:Generated_Source\PSoC4/CapSense_Structure.c ****                     #endif
ARM GAS  C:\Users\inspiron\AppData\Local\Temp\cc3AwUZg.s 			page 41


1546:Generated_Source\PSoC4/CapSense_Structure.c ****                         result = ((uint32)wdCsdTouchpad->posX) |
1547:Generated_Source\PSoC4/CapSense_Structure.c ****                                  ((uint32)wdCsdTouchpad->posY << 16u);
1548:Generated_Source\PSoC4/CapSense_Structure.c ****                     #if (CapSense_ENABLE == CapSense_CENTROID_5X5_CSD_EN)
1549:Generated_Source\PSoC4/CapSense_Structure.c ****                         }
1550:Generated_Source\PSoC4/CapSense_Structure.c ****                     #endif
1551:Generated_Source\PSoC4/CapSense_Structure.c ****                 #endif
1552:Generated_Source\PSoC4/CapSense_Structure.c **** 
1553:Generated_Source\PSoC4/CapSense_Structure.c ****                 break;
1554:Generated_Source\PSoC4/CapSense_Structure.c ****         #endif /* #if (0u != CapSense_CSD_TOUCHPAD_WIDGET_EN) */
1555:Generated_Source\PSoC4/CapSense_Structure.c **** 
1556:Generated_Source\PSoC4/CapSense_Structure.c ****         #if (0u != CapSense_CSX_TOUCHPAD_WIDGET_EN)
1557:Generated_Source\PSoC4/CapSense_Structure.c ****             case CapSense_SENSE_METHOD_CSX_E:
1558:Generated_Source\PSoC4/CapSense_Structure.c ****                 wdCsxTouchpad = ptrFlashWdgt->ptr2WdgtRam;
 696              		.loc 1 1558 0
 697 002a 5368     		ldr	r3, [r2, #4]
 698              	.LVL73:
1559:Generated_Source\PSoC4/CapSense_Structure.c **** 
1560:Generated_Source\PSoC4/CapSense_Structure.c ****                 result = ((uint32)wdCsxTouchpad->touch[0u].x) |
 699              		.loc 1 1560 0
 700 002c 1A8A     		ldrh	r2, [r3, #16]
 701              	.LVL74:
1561:Generated_Source\PSoC4/CapSense_Structure.c ****                          ((uint32)wdCsxTouchpad->touch[0u].y << 16u);
 702              		.loc 1 1561 0
 703 002e 588A     		ldrh	r0, [r3, #18]
 704              	.LVL75:
 705 0030 0004     		lsls	r0, r0, #16
1560:Generated_Source\PSoC4/CapSense_Structure.c ****                          ((uint32)wdCsxTouchpad->touch[0u].y << 16u);
 706              		.loc 1 1560 0
 707 0032 1043     		orrs	r0, r2
 708              	.LVL76:
1562:Generated_Source\PSoC4/CapSense_Structure.c ****                 break;
 709              		.loc 1 1562 0
 710 0034 01E0     		b	.L61
 711              	.LVL77:
 712              	.L64:
1506:Generated_Source\PSoC4/CapSense_Structure.c **** 
 713              		.loc 1 1506 0
 714 0036 0120     		movs	r0, #1
 715              	.LVL78:
 716 0038 4042     		rsbs	r0, r0, #0
 717              	.LVL79:
 718              	.L61:
1563:Generated_Source\PSoC4/CapSense_Structure.c ****         #endif /* #if (0u != CapSense_CSX_TOUCHPAD_WIDGET_EN) */
1564:Generated_Source\PSoC4/CapSense_Structure.c **** 
1565:Generated_Source\PSoC4/CapSense_Structure.c ****         default:
1566:Generated_Source\PSoC4/CapSense_Structure.c ****             CYASSERT(0u);
1567:Generated_Source\PSoC4/CapSense_Structure.c ****             break;
1568:Generated_Source\PSoC4/CapSense_Structure.c ****         }
1569:Generated_Source\PSoC4/CapSense_Structure.c ****     }
1570:Generated_Source\PSoC4/CapSense_Structure.c **** 
1571:Generated_Source\PSoC4/CapSense_Structure.c ****     return result;
1572:Generated_Source\PSoC4/CapSense_Structure.c **** }
 719              		.loc 1 1572 0
 720              		@ sp needed
 721 003a 10BD     		pop	{r4, pc}
 722              	.L66:
 723              		.align	2
ARM GAS  C:\Users\inspiron\AppData\Local\Temp\cc3AwUZg.s 			page 42


 724              	.L65:
 725 003c 00000000 		.word	.LANCHOR0
 726              		.cfi_endproc
 727              	.LFE8:
 728              		.size	CapSense_GetXYCoordinates, .-CapSense_GetXYCoordinates
 729              		.global	CapSense_ramGesturesInit
 730              		.global	CapSense_ramIdacInit
 731              		.global	CapSense_ramWidgetInit
 732              		.global	CapSense_ioList
 733              		.global	CapSense_dsFlash
 734              		.comm	CapSense_dsRam,648,4
 735              		.section	.rodata
 736              		.align	2
 737              		.set	.LANCHOR0,. + 0
 738              		.set	.LANCHOR1,. + 128
 739              		.type	CapSense_ramIdacInit, %object
 740              		.size	CapSense_ramIdacInit, 49
 741              	CapSense_ramIdacInit:
 742 0000 20       		.byte	32
 743 0001 20       		.byte	32
 744 0002 20       		.byte	32
 745 0003 20       		.byte	32
 746 0004 20       		.byte	32
 747 0005 20       		.byte	32
 748 0006 20       		.byte	32
 749 0007 20       		.byte	32
 750 0008 20       		.byte	32
 751 0009 20       		.byte	32
 752 000a 20       		.byte	32
 753 000b 20       		.byte	32
 754 000c 20       		.byte	32
 755 000d 20       		.byte	32
 756 000e 20       		.byte	32
 757 000f 20       		.byte	32
 758 0010 20       		.byte	32
 759 0011 20       		.byte	32
 760 0012 20       		.byte	32
 761 0013 20       		.byte	32
 762 0014 20       		.byte	32
 763 0015 20       		.byte	32
 764 0016 20       		.byte	32
 765 0017 20       		.byte	32
 766 0018 20       		.byte	32
 767 0019 20       		.byte	32
 768 001a 20       		.byte	32
 769 001b 20       		.byte	32
 770 001c 20       		.byte	32
 771 001d 20       		.byte	32
 772 001e 20       		.byte	32
 773 001f 20       		.byte	32
 774 0020 20       		.byte	32
 775 0021 20       		.byte	32
 776 0022 20       		.byte	32
 777 0023 20       		.byte	32
 778 0024 20       		.byte	32
 779 0025 20       		.byte	32
 780 0026 20       		.byte	32
ARM GAS  C:\Users\inspiron\AppData\Local\Temp\cc3AwUZg.s 			page 43


 781 0027 20       		.byte	32
 782 0028 20       		.byte	32
 783 0029 20       		.byte	32
 784 002a 20       		.byte	32
 785 002b 20       		.byte	32
 786 002c 20       		.byte	32
 787 002d 20       		.byte	32
 788 002e 20       		.byte	32
 789 002f 20       		.byte	32
 790 0030 20       		.byte	32
 791 0031 000000   		.space	3
 792              		.type	CapSense_dsFlash, %object
 793              		.size	CapSense_dsFlash, 56
 794              	CapSense_dsFlash:
 795 0034 00000000 		.word	CapSense_ioList
 796 0038 20000000 		.word	CapSense_dsRam+32
 797 003c 38000000 		.word	CapSense_dsRam+56
 798 0040 00000000 		.word	0
 799 0044 00000000 		.word	0
 800 0048 80280000 		.word	10368
 801 004c 3100     		.short	49
 802 004e 05       		.byte	5
 803 004f 07       		.byte	7
 804 0050 07       		.byte	7
 805 0051 00       		.space	1
 806 0052 6400     		.short	100
 807 0054 6400     		.short	100
 808 0056 0000     		.space	2
 809 0058 AA100000 		.word	4266
 810 005c AA100000 		.word	4266
 811 0060 04000000 		.word	CapSense_csxTouchpadData_Touchpad0
 812 0064 00000000 		.word	CapSense_posHistoryTouchpad0
 813 0068 80       		.byte	-128
 814 0069 000000   		.space	3
 815              		.type	CapSense_ramWidgetInit, %object
 816              		.size	CapSense_ramWidgetInit, 24
 817              	CapSense_ramWidgetInit:
 818 006c 3200     		.short	50
 819 006e 3C00     		.short	60
 820 0070 2D       		.byte	45
 821 0071 2D       		.byte	45
 822 0072 05       		.byte	5
 823 0073 01       		.byte	1
 824 0074 1E       		.byte	30
 825 0075 02       		.byte	2
 826 0076 00       		.byte	0
 827 0077 00       		.byte	0
 828 0078 C4090000 		.word	2500
 829 007c FFFF     		.short	-1
 830 007e FFFF     		.short	-1
 831 0080 FF       		.byte	-1
 832 0081 28       		.byte	40
 833 0082 0000     		.space	2
 834              		.type	CapSense_ramGesturesInit, %object
 835              		.size	CapSense_ramGesturesInit, 86
 836              	CapSense_ramGesturesInit:
 837 0084 56       		.byte	86
ARM GAS  C:\Users\inspiron\AppData\Local\Temp\cc3AwUZg.s 			page 44


 838 0085 08       		.byte	8
 839 0086 08       		.byte	8
 840 0087 08       		.byte	8
 841 0088 08       		.byte	8
 842 0089 14       		.byte	20
 843 008a 14       		.byte	20
 844 008b 14       		.byte	20
 845 008c 18       		.byte	24
 846 008d 1E       		.byte	30
 847 008e 28       		.byte	40
 848 008f 14       		.byte	20
 849 0090 18       		.byte	24
 850 0091 1E       		.byte	30
 851 0092 28       		.byte	40
 852 0093 03       		.byte	3
 853 0094 05       		.byte	5
 854 0095 07       		.byte	7
 855 0096 09       		.byte	9
 856 0097 03       		.byte	3
 857 0098 14       		.byte	20
 858 0099 18       		.byte	24
 859 009a 1E       		.byte	30
 860 009b 28       		.byte	40
 861 009c 14       		.byte	20
 862 009d 18       		.byte	24
 863 009e 1E       		.byte	30
 864 009f 28       		.byte	40
 865 00a0 03       		.byte	3
 866 00a1 05       		.byte	5
 867 00a2 07       		.byte	7
 868 00a3 09       		.byte	9
 869 00a4 03       		.byte	3
 870 00a5 05       		.byte	5
 871 00a6 32       		.byte	50
 872 00a7 32       		.byte	50
 873 00a8 00       		.byte	0
 874 00a9 32       		.byte	50
 875 00aa 32       		.byte	50
 876 00ab 00       		.byte	0
 877 00ac 0A       		.byte	10
 878 00ad 2D       		.byte	45
 879 00ae 2D       		.byte	45
 880 00af 0F       		.byte	15
 881 00b0 03       		.byte	3
 882 00b1 03       		.byte	3
 883 00b2 03       		.byte	3
 884 00b3 03       		.byte	3
 885 00b4 00       		.byte	0
 886 00b5 00       		.byte	0
 887 00b6 14       		.byte	20
 888 00b7 1E       		.byte	30
 889 00b8 1E       		.byte	30
 890 00b9 00       		.space	1
 891 00ba 0300     		.short	3
 892 00bc 6400     		.short	100
 893 00be 6400     		.short	100
 894 00c0 5000     		.short	80
ARM GAS  C:\Users\inspiron\AppData\Local\Temp\cc3AwUZg.s 			page 45


 895 00c2 D007     		.short	2000
 896 00c4 E803     		.short	1000
 897 00c6 6400     		.short	100
 898 00c8 FA00     		.short	250
 899 00ca 0500     		.short	5
 900 00cc 3200     		.short	50
 901 00ce 0A00     		.short	10
 902 00d0 F0       		.byte	-16
 903 00d1 28       		.byte	40
 904 00d2 29       		.byte	41
 905 00d3 30       		.byte	48
 906 00d4 3F       		.byte	63
 907 00d5 48       		.byte	72
 908 00d6 49       		.byte	73
 909 00d7 90       		.byte	-112
 910 00d8 9F       		.byte	-97
 911 00d9 00       		.space	1
 912 00da 0000     		.space	2
 913              		.type	CapSense_ioList, %object
 914              		.size	CapSense_ioList, 392
 915              	CapSense_ioList:
 916 00dc 00010240 		.word	1073873152
 917 00e0 08010440 		.word	1074004232
 918 00e4 00010440 		.word	1074004224
 919 00e8 04010440 		.word	1074004228
 920 00ec 00000F00 		.word	983040
 921 00f0 10000000 		.word	16
 922 00f4 10       		.byte	16
 923 00f5 04       		.byte	4
 924 00f6 0C       		.byte	12
 925 00f7 00       		.space	1
 926 00f8 00010240 		.word	1073873152
 927 00fc 08010440 		.word	1074004232
 928 0100 00010440 		.word	1074004224
 929 0104 04010440 		.word	1074004228
 930 0108 00F00000 		.word	61440
 931 010c 08000000 		.word	8
 932 0110 0C       		.byte	12
 933 0111 03       		.byte	3
 934 0112 09       		.byte	9
 935 0113 00       		.space	1
 936 0114 00010240 		.word	1073873152
 937 0118 08010440 		.word	1074004232
 938 011c 00010440 		.word	1074004224
 939 0120 04010440 		.word	1074004228
 940 0124 000F0000 		.word	3840
 941 0128 04000000 		.word	4
 942 012c 08       		.byte	8
 943 012d 02       		.byte	2
 944 012e 06       		.byte	6
 945 012f 00       		.space	1
 946 0130 00010240 		.word	1073873152
 947 0134 08010440 		.word	1074004232
 948 0138 00010440 		.word	1074004224
 949 013c 04010440 		.word	1074004228
 950 0140 F0000000 		.word	240
 951 0144 02000000 		.word	2
ARM GAS  C:\Users\inspiron\AppData\Local\Temp\cc3AwUZg.s 			page 46


 952 0148 04       		.byte	4
 953 0149 01       		.byte	1
 954 014a 03       		.byte	3
 955 014b 00       		.space	1
 956 014c 00010240 		.word	1073873152
 957 0150 08010440 		.word	1074004232
 958 0154 00010440 		.word	1074004224
 959 0158 04010440 		.word	1074004228
 960 015c 0F000000 		.word	15
 961 0160 01000000 		.word	1
 962 0164 00       		.byte	0
 963 0165 00       		.byte	0
 964 0166 00       		.byte	0
 965 0167 00       		.space	1
 966 0168 00010240 		.word	1073873152
 967 016c 08010440 		.word	1074004232
 968 0170 00010440 		.word	1074004224
 969 0174 04010440 		.word	1074004228
 970 0178 0000F000 		.word	15728640
 971 017c 20000000 		.word	32
 972 0180 14       		.byte	20
 973 0181 05       		.byte	5
 974 0182 0F       		.byte	15
 975 0183 00       		.space	1
 976 0184 00000240 		.word	1073872896
 977 0188 08000440 		.word	1074003976
 978 018c 00000440 		.word	1074003968
 979 0190 04000440 		.word	1074003972
 980 0194 0F000000 		.word	15
 981 0198 01000000 		.word	1
 982 019c 00       		.byte	0
 983 019d 00       		.byte	0
 984 019e 00       		.byte	0
 985 019f 00       		.space	1
 986 01a0 00000240 		.word	1073872896
 987 01a4 08000440 		.word	1074003976
 988 01a8 00000440 		.word	1074003968
 989 01ac 04000440 		.word	1074003972
 990 01b0 0000000F 		.word	251658240
 991 01b4 40000000 		.word	64
 992 01b8 18       		.byte	24
 993 01b9 06       		.byte	6
 994 01ba 12       		.byte	18
 995 01bb 00       		.space	1
 996 01bc 00000240 		.word	1073872896
 997 01c0 08000440 		.word	1074003976
 998 01c4 00000440 		.word	1074003968
 999 01c8 04000440 		.word	1074003972
 1000 01cc 00F00000 		.word	61440
 1001 01d0 08000000 		.word	8
 1002 01d4 0C       		.byte	12
 1003 01d5 03       		.byte	3
 1004 01d6 09       		.byte	9
 1005 01d7 00       		.space	1
 1006 01d8 00020240 		.word	1073873408
 1007 01dc 08020440 		.word	1074004488
 1008 01e0 00020440 		.word	1074004480
ARM GAS  C:\Users\inspiron\AppData\Local\Temp\cc3AwUZg.s 			page 47


 1009 01e4 04020440 		.word	1074004484
 1010 01e8 00F00000 		.word	61440
 1011 01ec 08000000 		.word	8
 1012 01f0 0C       		.byte	12
 1013 01f1 03       		.byte	3
 1014 01f2 09       		.byte	9
 1015 01f3 00       		.space	1
 1016 01f4 00020240 		.word	1073873408
 1017 01f8 08020440 		.word	1074004488
 1018 01fc 00020440 		.word	1074004480
 1019 0200 04020440 		.word	1074004484
 1020 0204 000F0000 		.word	3840
 1021 0208 04000000 		.word	4
 1022 020c 08       		.byte	8
 1023 020d 02       		.byte	2
 1024 020e 06       		.byte	6
 1025 020f 00       		.space	1
 1026 0210 00020240 		.word	1073873408
 1027 0214 08020440 		.word	1074004488
 1028 0218 00020440 		.word	1074004480
 1029 021c 04020440 		.word	1074004484
 1030 0220 F0000000 		.word	240
 1031 0224 02000000 		.word	2
 1032 0228 04       		.byte	4
 1033 0229 01       		.byte	1
 1034 022a 03       		.byte	3
 1035 022b 00       		.space	1
 1036 022c 00020240 		.word	1073873408
 1037 0230 08020440 		.word	1074004488
 1038 0234 00020440 		.word	1074004480
 1039 0238 04020440 		.word	1074004484
 1040 023c 0F000000 		.word	15
 1041 0240 01000000 		.word	1
 1042 0244 00       		.byte	0
 1043 0245 00       		.byte	0
 1044 0246 00       		.byte	0
 1045 0247 00       		.space	1
 1046 0248 00010240 		.word	1073873152
 1047 024c 08010440 		.word	1074004232
 1048 0250 00010440 		.word	1074004224
 1049 0254 04010440 		.word	1074004228
 1050 0258 000000F0 		.word	-268435456
 1051 025c 80000000 		.word	128
 1052 0260 1C       		.byte	28
 1053 0261 07       		.byte	7
 1054 0262 15       		.byte	21
 1055 0263 00       		.space	1
 1056              		.bss
 1057              		.align	2
 1058              		.type	CapSense_posHistoryTouchpad0, %object
 1059              		.size	CapSense_posHistoryTouchpad0, 4
 1060              	CapSense_posHistoryTouchpad0:
 1061 0000 00000000 		.space	4
 1062              		.type	CapSense_csxTouchpadData_Touchpad0, %object
 1063              		.size	CapSense_csxTouchpadData_Touchpad0, 62
 1064              	CapSense_csxTouchpadData_Touchpad0:
 1065 0004 00000000 		.space	62
ARM GAS  C:\Users\inspiron\AppData\Local\Temp\cc3AwUZg.s 			page 48


 1065      00000000 
 1065      00000000 
 1065      00000000 
 1065      00000000 
 1066              		.text
 1067              	.Letext0:
 1068              		.file 2 "c:\\program files (x86)\\cypress\\psoc creator\\4.4\\psoc creator\\import\\gnu\\arm\\5.4.
 1069              		.file 3 "c:\\program files (x86)\\cypress\\psoc creator\\4.4\\psoc creator\\import\\gnu\\arm\\5.4.
 1070              		.file 4 "Generated_Source\\PSoC4/cytypes.h"
 1071              		.file 5 "Generated_Source\\PSoC4\\CapSense_Configuration.h"
 1072              		.file 6 "Generated_Source\\PSoC4\\CapSense_TMG.h"
 1073              		.file 7 "Generated_Source\\PSoC4\\CapSense_Structure.h"
 1074              		.file 8 "Generated_Source\\PSoC4\\CyLib.h"
 1075              		.section	.debug_info,"",%progbits
 1076              	.Ldebug_info0:
 1077 0000 D8100000 		.4byte	0x10d8
 1078 0004 0400     		.2byte	0x4
 1079 0006 00000000 		.4byte	.Ldebug_abbrev0
 1080 000a 04       		.byte	0x4
 1081 000b 01       		.uleb128 0x1
 1082 000c 3D040000 		.4byte	.LASF238
 1083 0010 0C       		.byte	0xc
 1084 0011 1E030000 		.4byte	.LASF239
 1085 0015 75020000 		.4byte	.LASF240
 1086 0019 00000000 		.4byte	.Ldebug_ranges0+0
 1087 001d 00000000 		.4byte	0
 1088 0021 00000000 		.4byte	.Ldebug_line0
 1089 0025 02       		.uleb128 0x2
 1090 0026 01       		.byte	0x1
 1091 0027 06       		.byte	0x6
 1092 0028 5E0E0000 		.4byte	.LASF0
 1093 002c 03       		.uleb128 0x3
 1094 002d 2C0C0000 		.4byte	.LASF3
 1095 0031 02       		.byte	0x2
 1096 0032 1D       		.byte	0x1d
 1097 0033 37000000 		.4byte	0x37
 1098 0037 02       		.uleb128 0x2
 1099 0038 01       		.byte	0x1
 1100 0039 08       		.byte	0x8
 1101 003a 740D0000 		.4byte	.LASF1
 1102 003e 02       		.uleb128 0x2
 1103 003f 02       		.byte	0x2
 1104 0040 05       		.byte	0x5
 1105 0041 190B0000 		.4byte	.LASF2
 1106 0045 03       		.uleb128 0x3
 1107 0046 7E050000 		.4byte	.LASF4
 1108 004a 02       		.byte	0x2
 1109 004b 2B       		.byte	0x2b
 1110 004c 50000000 		.4byte	0x50
 1111 0050 02       		.uleb128 0x2
 1112 0051 02       		.byte	0x2
 1113 0052 07       		.byte	0x7
 1114 0053 940E0000 		.4byte	.LASF5
 1115 0057 02       		.uleb128 0x2
 1116 0058 04       		.byte	0x4
 1117 0059 05       		.byte	0x5
 1118 005a 370B0000 		.4byte	.LASF6
ARM GAS  C:\Users\inspiron\AppData\Local\Temp\cc3AwUZg.s 			page 49


 1119 005e 02       		.uleb128 0x2
 1120 005f 04       		.byte	0x4
 1121 0060 07       		.byte	0x7
 1122 0061 CA0C0000 		.4byte	.LASF7
 1123 0065 02       		.uleb128 0x2
 1124 0066 08       		.byte	0x8
 1125 0067 05       		.byte	0x5
 1126 0068 2A080000 		.4byte	.LASF8
 1127 006c 02       		.uleb128 0x2
 1128 006d 08       		.byte	0x8
 1129 006e 07       		.byte	0x7
 1130 006f 06050000 		.4byte	.LASF9
 1131 0073 04       		.uleb128 0x4
 1132 0074 04       		.byte	0x4
 1133 0075 05       		.byte	0x5
 1134 0076 696E7400 		.ascii	"int\000"
 1135 007a 02       		.uleb128 0x2
 1136 007b 04       		.byte	0x4
 1137 007c 07       		.byte	0x7
 1138 007d 59010000 		.4byte	.LASF10
 1139 0081 03       		.uleb128 0x3
 1140 0082 98070000 		.4byte	.LASF11
 1141 0086 03       		.byte	0x3
 1142 0087 18       		.byte	0x18
 1143 0088 2C000000 		.4byte	0x2c
 1144 008c 03       		.uleb128 0x3
 1145 008d 030A0000 		.4byte	.LASF12
 1146 0091 03       		.byte	0x3
 1147 0092 24       		.byte	0x24
 1148 0093 45000000 		.4byte	0x45
 1149 0097 05       		.uleb128 0x5
 1150 0098 000F0000 		.4byte	.LASF13
 1151 009c 04       		.byte	0x4
 1152 009d F701     		.2byte	0x1f7
 1153 009f 37000000 		.4byte	0x37
 1154 00a3 05       		.uleb128 0x5
 1155 00a4 77070000 		.4byte	.LASF14
 1156 00a8 04       		.byte	0x4
 1157 00a9 F801     		.2byte	0x1f8
 1158 00ab 50000000 		.4byte	0x50
 1159 00af 05       		.uleb128 0x5
 1160 00b0 5E090000 		.4byte	.LASF15
 1161 00b4 04       		.byte	0x4
 1162 00b5 F901     		.2byte	0x1f9
 1163 00b7 5E000000 		.4byte	0x5e
 1164 00bb 02       		.uleb128 0x2
 1165 00bc 04       		.byte	0x4
 1166 00bd 04       		.byte	0x4
 1167 00be 31040000 		.4byte	.LASF16
 1168 00c2 02       		.uleb128 0x2
 1169 00c3 08       		.byte	0x8
 1170 00c4 04       		.byte	0x4
 1171 00c5 060F0000 		.4byte	.LASF17
 1172 00c9 02       		.uleb128 0x2
 1173 00ca 01       		.byte	0x1
 1174 00cb 08       		.byte	0x8
 1175 00cc 25070000 		.4byte	.LASF18
ARM GAS  C:\Users\inspiron\AppData\Local\Temp\cc3AwUZg.s 			page 50


 1176 00d0 05       		.uleb128 0x5
 1177 00d1 660D0000 		.4byte	.LASF19
 1178 00d5 04       		.byte	0x4
 1179 00d6 9902     		.2byte	0x299
 1180 00d8 5E000000 		.4byte	0x5e
 1181 00dc 06       		.uleb128 0x6
 1182 00dd 97000000 		.4byte	0x97
 1183 00e1 06       		.uleb128 0x6
 1184 00e2 A3000000 		.4byte	0xa3
 1185 00e6 05       		.uleb128 0x5
 1186 00e7 410A0000 		.4byte	.LASF20
 1187 00eb 04       		.byte	0x4
 1188 00ec A302     		.2byte	0x2a3
 1189 00ee F2000000 		.4byte	0xf2
 1190 00f2 06       		.uleb128 0x6
 1191 00f3 AF000000 		.4byte	0xaf
 1192 00f7 02       		.uleb128 0x2
 1193 00f8 08       		.byte	0x8
 1194 00f9 04       		.byte	0x4
 1195 00fa EC090000 		.4byte	.LASF21
 1196 00fe 02       		.uleb128 0x2
 1197 00ff 04       		.byte	0x4
 1198 0100 07       		.byte	0x7
 1199 0101 B90C0000 		.4byte	.LASF22
 1200 0105 07       		.uleb128 0x7
 1201 0106 04       		.byte	0x4
 1202 0107 05       		.uleb128 0x5
 1203 0108 FF0D0000 		.4byte	.LASF23
 1204 010c 05       		.byte	0x5
 1205 010d 9101     		.2byte	0x191
 1206 010f A3000000 		.4byte	0xa3
 1207 0113 05       		.uleb128 0x5
 1208 0114 B0070000 		.4byte	.LASF24
 1209 0118 05       		.byte	0x5
 1210 0119 9501     		.2byte	0x195
 1211 011b 97000000 		.4byte	0x97
 1212 011f 08       		.uleb128 0x8
 1213 0120 56       		.byte	0x56
 1214 0121 06       		.byte	0x6
 1215 0122 21       		.byte	0x21
 1216 0123 BC040000 		.4byte	0x4bc
 1217 0127 09       		.uleb128 0x9
 1218 0128 46090000 		.4byte	.LASF25
 1219 012c 06       		.byte	0x6
 1220 012d 26       		.byte	0x26
 1221 012e BC040000 		.4byte	0x4bc
 1222 0132 00       		.byte	0
 1223 0133 09       		.uleb128 0x9
 1224 0134 61000000 		.4byte	.LASF26
 1225 0138 06       		.byte	0x6
 1226 0139 2D       		.byte	0x2d
 1227 013a BC040000 		.4byte	0x4bc
 1228 013e 01       		.byte	0x1
 1229 013f 09       		.uleb128 0x9
 1230 0140 74000000 		.4byte	.LASF27
 1231 0144 06       		.byte	0x6
 1232 0145 33       		.byte	0x33
ARM GAS  C:\Users\inspiron\AppData\Local\Temp\cc3AwUZg.s 			page 51


 1233 0146 BC040000 		.4byte	0x4bc
 1234 014a 02       		.byte	0x2
 1235 014b 09       		.uleb128 0x9
 1236 014c D3030000 		.4byte	.LASF28
 1237 0150 06       		.byte	0x6
 1238 0151 39       		.byte	0x39
 1239 0152 BC040000 		.4byte	0x4bc
 1240 0156 03       		.byte	0x3
 1241 0157 09       		.uleb128 0x9
 1242 0158 E7030000 		.4byte	.LASF29
 1243 015c 06       		.byte	0x6
 1244 015d 3F       		.byte	0x3f
 1245 015e BC040000 		.4byte	0x4bc
 1246 0162 04       		.byte	0x4
 1247 0163 09       		.uleb128 0x9
 1248 0164 37000000 		.4byte	.LASF30
 1249 0168 06       		.byte	0x6
 1250 0169 45       		.byte	0x45
 1251 016a BC040000 		.4byte	0x4bc
 1252 016e 05       		.byte	0x5
 1253 016f 09       		.uleb128 0x9
 1254 0170 4C000000 		.4byte	.LASF31
 1255 0174 06       		.byte	0x6
 1256 0175 4B       		.byte	0x4b
 1257 0176 BC040000 		.4byte	0x4bc
 1258 017a 06       		.byte	0x6
 1259 017b 09       		.uleb128 0x9
 1260 017c D80E0000 		.4byte	.LASF32
 1261 0180 06       		.byte	0x6
 1262 0181 51       		.byte	0x51
 1263 0182 BC040000 		.4byte	0x4bc
 1264 0186 07       		.byte	0x7
 1265 0187 09       		.uleb128 0x9
 1266 0188 750F0000 		.4byte	.LASF33
 1267 018c 06       		.byte	0x6
 1268 018d 57       		.byte	0x57
 1269 018e BC040000 		.4byte	0x4bc
 1270 0192 08       		.byte	0x8
 1271 0193 09       		.uleb128 0x9
 1272 0194 21010000 		.4byte	.LASF34
 1273 0198 06       		.byte	0x6
 1274 0199 5D       		.byte	0x5d
 1275 019a BC040000 		.4byte	0x4bc
 1276 019e 09       		.byte	0x9
 1277 019f 09       		.uleb128 0x9
 1278 01a0 18020000 		.4byte	.LASF35
 1279 01a4 06       		.byte	0x6
 1280 01a5 63       		.byte	0x63
 1281 01a6 BC040000 		.4byte	0x4bc
 1282 01aa 0A       		.byte	0xa
 1283 01ab 09       		.uleb128 0x9
 1284 01ac EC0E0000 		.4byte	.LASF36
 1285 01b0 06       		.byte	0x6
 1286 01b1 69       		.byte	0x69
 1287 01b2 BC040000 		.4byte	0x4bc
 1288 01b6 0B       		.byte	0xb
 1289 01b7 09       		.uleb128 0x9
ARM GAS  C:\Users\inspiron\AppData\Local\Temp\cc3AwUZg.s 			page 52


 1290 01b8 890F0000 		.4byte	.LASF37
 1291 01bc 06       		.byte	0x6
 1292 01bd 6F       		.byte	0x6f
 1293 01be BC040000 		.4byte	0x4bc
 1294 01c2 0C       		.byte	0xc
 1295 01c3 09       		.uleb128 0x9
 1296 01c4 35010000 		.4byte	.LASF38
 1297 01c8 06       		.byte	0x6
 1298 01c9 75       		.byte	0x75
 1299 01ca BC040000 		.4byte	0x4bc
 1300 01ce 0D       		.byte	0xd
 1301 01cf 09       		.uleb128 0x9
 1302 01d0 2C020000 		.4byte	.LASF39
 1303 01d4 06       		.byte	0x6
 1304 01d5 7B       		.byte	0x7b
 1305 01d6 BC040000 		.4byte	0x4bc
 1306 01da 0E       		.byte	0xe
 1307 01db 09       		.uleb128 0x9
 1308 01dc 7A010000 		.4byte	.LASF40
 1309 01e0 06       		.byte	0x6
 1310 01e1 83       		.byte	0x83
 1311 01e2 BC040000 		.4byte	0x4bc
 1312 01e6 0F       		.byte	0xf
 1313 01e7 09       		.uleb128 0x9
 1314 01e8 88010000 		.4byte	.LASF41
 1315 01ec 06       		.byte	0x6
 1316 01ed 8B       		.byte	0x8b
 1317 01ee BC040000 		.4byte	0x4bc
 1318 01f2 10       		.byte	0x10
 1319 01f3 09       		.uleb128 0x9
 1320 01f4 96010000 		.4byte	.LASF42
 1321 01f8 06       		.byte	0x6
 1322 01f9 93       		.byte	0x93
 1323 01fa BC040000 		.4byte	0x4bc
 1324 01fe 11       		.byte	0x11
 1325 01ff 09       		.uleb128 0x9
 1326 0200 A4010000 		.4byte	.LASF43
 1327 0204 06       		.byte	0x6
 1328 0205 9B       		.byte	0x9b
 1329 0206 BC040000 		.4byte	0x4bc
 1330 020a 12       		.byte	0x12
 1331 020b 09       		.uleb128 0x9
 1332 020c EA070000 		.4byte	.LASF44
 1333 0210 06       		.byte	0x6
 1334 0211 A2       		.byte	0xa2
 1335 0212 BC040000 		.4byte	0x4bc
 1336 0216 13       		.byte	0x13
 1337 0217 09       		.uleb128 0x9
 1338 0218 B9010000 		.4byte	.LASF45
 1339 021c 06       		.byte	0x6
 1340 021d A8       		.byte	0xa8
 1341 021e BC040000 		.4byte	0x4bc
 1342 0222 14       		.byte	0x14
 1343 0223 09       		.uleb128 0x9
 1344 0224 4A030000 		.4byte	.LASF46
 1345 0228 06       		.byte	0x6
 1346 0229 AE       		.byte	0xae
ARM GAS  C:\Users\inspiron\AppData\Local\Temp\cc3AwUZg.s 			page 53


 1347 022a BC040000 		.4byte	0x4bc
 1348 022e 15       		.byte	0x15
 1349 022f 09       		.uleb128 0x9
 1350 0230 CF040000 		.4byte	.LASF47
 1351 0234 06       		.byte	0x6
 1352 0235 B4       		.byte	0xb4
 1353 0236 BC040000 		.4byte	0x4bc
 1354 023a 16       		.byte	0x16
 1355 023b 09       		.uleb128 0x9
 1356 023c 98050000 		.4byte	.LASF48
 1357 0240 06       		.byte	0x6
 1358 0241 BA       		.byte	0xba
 1359 0242 BC040000 		.4byte	0x4bc
 1360 0246 17       		.byte	0x17
 1361 0247 09       		.uleb128 0x9
 1362 0248 CD010000 		.4byte	.LASF49
 1363 024c 06       		.byte	0x6
 1364 024d C0       		.byte	0xc0
 1365 024e BC040000 		.4byte	0x4bc
 1366 0252 18       		.byte	0x18
 1367 0253 09       		.uleb128 0x9
 1368 0254 5E030000 		.4byte	.LASF50
 1369 0258 06       		.byte	0x6
 1370 0259 C6       		.byte	0xc6
 1371 025a BC040000 		.4byte	0x4bc
 1372 025e 19       		.byte	0x19
 1373 025f 09       		.uleb128 0x9
 1374 0260 E3040000 		.4byte	.LASF51
 1375 0264 06       		.byte	0x6
 1376 0265 CC       		.byte	0xcc
 1377 0266 BC040000 		.4byte	0x4bc
 1378 026a 1A       		.byte	0x1a
 1379 026b 09       		.uleb128 0x9
 1380 026c AC050000 		.4byte	.LASF52
 1381 0270 06       		.byte	0x6
 1382 0271 D2       		.byte	0xd2
 1383 0272 BC040000 		.4byte	0x4bc
 1384 0276 1B       		.byte	0x1b
 1385 0277 09       		.uleb128 0x9
 1386 0278 E10A0000 		.4byte	.LASF53
 1387 027c 06       		.byte	0x6
 1388 027d DA       		.byte	0xda
 1389 027e BC040000 		.4byte	0x4bc
 1390 0282 1C       		.byte	0x1c
 1391 0283 09       		.uleb128 0x9
 1392 0284 EF0A0000 		.4byte	.LASF54
 1393 0288 06       		.byte	0x6
 1394 0289 E2       		.byte	0xe2
 1395 028a BC040000 		.4byte	0x4bc
 1396 028e 1D       		.byte	0x1d
 1397 028f 09       		.uleb128 0x9
 1398 0290 FD0A0000 		.4byte	.LASF55
 1399 0294 06       		.byte	0x6
 1400 0295 EA       		.byte	0xea
 1401 0296 BC040000 		.4byte	0x4bc
 1402 029a 1E       		.byte	0x1e
 1403 029b 09       		.uleb128 0x9
ARM GAS  C:\Users\inspiron\AppData\Local\Temp\cc3AwUZg.s 			page 54


 1404 029c 0B0B0000 		.4byte	.LASF56
 1405 02a0 06       		.byte	0x6
 1406 02a1 F2       		.byte	0xf2
 1407 02a2 BC040000 		.4byte	0x4bc
 1408 02a6 1F       		.byte	0x1f
 1409 02a7 09       		.uleb128 0x9
 1410 02a8 0D030000 		.4byte	.LASF57
 1411 02ac 06       		.byte	0x6
 1412 02ad F9       		.byte	0xf9
 1413 02ae BC040000 		.4byte	0x4bc
 1414 02b2 20       		.byte	0x20
 1415 02b3 0A       		.uleb128 0xa
 1416 02b4 C7060000 		.4byte	.LASF58
 1417 02b8 06       		.byte	0x6
 1418 02b9 0001     		.2byte	0x100
 1419 02bb BC040000 		.4byte	0x4bc
 1420 02bf 21       		.byte	0x21
 1421 02c0 0A       		.uleb128 0xa
 1422 02c1 EA060000 		.4byte	.LASF59
 1423 02c5 06       		.byte	0x6
 1424 02c6 0701     		.2byte	0x107
 1425 02c8 BC040000 		.4byte	0x4bc
 1426 02cc 22       		.byte	0x22
 1427 02cd 0A       		.uleb128 0xa
 1428 02ce 01070000 		.4byte	.LASF60
 1429 02d2 06       		.byte	0x6
 1430 02d3 0E01     		.2byte	0x10e
 1431 02d5 BC040000 		.4byte	0x4bc
 1432 02d9 23       		.byte	0x23
 1433 02da 0A       		.uleb128 0xa
 1434 02db 95000000 		.4byte	.LASF61
 1435 02df 06       		.byte	0x6
 1436 02e0 1501     		.2byte	0x115
 1437 02e2 BC040000 		.4byte	0x4bc
 1438 02e6 24       		.byte	0x24
 1439 02e7 0A       		.uleb128 0xa
 1440 02e8 DE000000 		.4byte	.LASF62
 1441 02ec 06       		.byte	0x6
 1442 02ed 1C01     		.2byte	0x11c
 1443 02ef BC040000 		.4byte	0x4bc
 1444 02f3 25       		.byte	0x25
 1445 02f4 0A       		.uleb128 0xa
 1446 02f5 F5000000 		.4byte	.LASF63
 1447 02f9 06       		.byte	0x6
 1448 02fa 2301     		.2byte	0x123
 1449 02fc BC040000 		.4byte	0x4bc
 1450 0300 26       		.byte	0x26
 1451 0301 0A       		.uleb128 0xa
 1452 0302 1D050000 		.4byte	.LASF64
 1453 0306 06       		.byte	0x6
 1454 0307 2A01     		.2byte	0x12a
 1455 0309 BC040000 		.4byte	0x4bc
 1456 030d 27       		.byte	0x27
 1457 030e 0A       		.uleb128 0xa
 1458 030f 6A0E0000 		.4byte	.LASF65
 1459 0313 06       		.byte	0x6
 1460 0314 3101     		.2byte	0x131
ARM GAS  C:\Users\inspiron\AppData\Local\Temp\cc3AwUZg.s 			page 55


 1461 0316 BC040000 		.4byte	0x4bc
 1462 031a 28       		.byte	0x28
 1463 031b 0A       		.uleb128 0xa
 1464 031c 820E0000 		.4byte	.LASF66
 1465 0320 06       		.byte	0x6
 1466 0321 3701     		.2byte	0x137
 1467 0323 BC040000 		.4byte	0x4bc
 1468 0327 29       		.byte	0x29
 1469 0328 0A       		.uleb128 0xa
 1470 0329 D5070000 		.4byte	.LASF67
 1471 032d 06       		.byte	0x6
 1472 032e 3D01     		.2byte	0x13d
 1473 0330 BC040000 		.4byte	0x4bc
 1474 0334 2A       		.byte	0x2a
 1475 0335 0A       		.uleb128 0xa
 1476 0336 14080000 		.4byte	.LASF68
 1477 033a 06       		.byte	0x6
 1478 033b 4401     		.2byte	0x144
 1479 033d BC040000 		.4byte	0x4bc
 1480 0341 2B       		.byte	0x2b
 1481 0342 0A       		.uleb128 0xa
 1482 0343 87000000 		.4byte	.LASF69
 1483 0347 06       		.byte	0x6
 1484 0348 4A01     		.2byte	0x14a
 1485 034a BC040000 		.4byte	0x4bc
 1486 034e 2C       		.byte	0x2c
 1487 034f 0A       		.uleb128 0xa
 1488 0350 C2090000 		.4byte	.LASF70
 1489 0354 06       		.byte	0x6
 1490 0355 5001     		.2byte	0x150
 1491 0357 BC040000 		.4byte	0x4bc
 1492 035b 2D       		.byte	0x2d
 1493 035c 0A       		.uleb128 0xa
 1494 035d B20E0000 		.4byte	.LASF71
 1495 0361 06       		.byte	0x6
 1496 0362 5701     		.2byte	0x157
 1497 0364 BC040000 		.4byte	0x4bc
 1498 0368 2E       		.byte	0x2e
 1499 0369 0A       		.uleb128 0xa
 1500 036a 1D040000 		.4byte	.LASF72
 1501 036e 06       		.byte	0x6
 1502 036f 5F01     		.2byte	0x15f
 1503 0371 BC040000 		.4byte	0x4bc
 1504 0375 2F       		.byte	0x2f
 1505 0376 0A       		.uleb128 0xa
 1506 0377 0D0F0000 		.4byte	.LASF73
 1507 037b 06       		.byte	0x6
 1508 037c 6801     		.2byte	0x168
 1509 037e BC040000 		.4byte	0x4bc
 1510 0382 30       		.byte	0x30
 1511 0383 0A       		.uleb128 0xa
 1512 0384 A7060000 		.4byte	.LASF74
 1513 0388 06       		.byte	0x6
 1514 0389 6E01     		.2byte	0x16e
 1515 038b BC040000 		.4byte	0x4bc
 1516 038f 31       		.byte	0x31
 1517 0390 0A       		.uleb128 0xa
ARM GAS  C:\Users\inspiron\AppData\Local\Temp\cc3AwUZg.s 			page 56


 1518 0391 AE030000 		.4byte	.LASF75
 1519 0395 06       		.byte	0x6
 1520 0396 7401     		.2byte	0x174
 1521 0398 BC040000 		.4byte	0x4bc
 1522 039c 32       		.byte	0x32
 1523 039d 0A       		.uleb128 0xa
 1524 039e E9080000 		.4byte	.LASF76
 1525 03a2 06       		.byte	0x6
 1526 03a3 7A01     		.2byte	0x17a
 1527 03a5 BC040000 		.4byte	0x4bc
 1528 03a9 33       		.byte	0x33
 1529 03aa 0A       		.uleb128 0xa
 1530 03ab F6080000 		.4byte	.LASF77
 1531 03af 06       		.byte	0x6
 1532 03b0 8001     		.2byte	0x180
 1533 03b2 BC040000 		.4byte	0x4bc
 1534 03b6 34       		.byte	0x34
 1535 03b7 0A       		.uleb128 0xa
 1536 03b8 49010000 		.4byte	.LASF78
 1537 03bc 06       		.byte	0x6
 1538 03bd 8601     		.2byte	0x186
 1539 03bf C1040000 		.4byte	0x4c1
 1540 03c3 36       		.byte	0x36
 1541 03c4 0A       		.uleb128 0xa
 1542 03c5 030D0000 		.4byte	.LASF79
 1543 03c9 06       		.byte	0x6
 1544 03ca 8B01     		.2byte	0x18b
 1545 03cc C1040000 		.4byte	0x4c1
 1546 03d0 38       		.byte	0x38
 1547 03d1 0A       		.uleb128 0xa
 1548 03d2 0F0D0000 		.4byte	.LASF80
 1549 03d6 06       		.byte	0x6
 1550 03d7 9001     		.2byte	0x190
 1551 03d9 C1040000 		.4byte	0x4c1
 1552 03dd 3A       		.byte	0x3a
 1553 03de 0A       		.uleb128 0xa
 1554 03df 0D040000 		.4byte	.LASF81
 1555 03e3 06       		.byte	0x6
 1556 03e4 9501     		.2byte	0x195
 1557 03e6 C1040000 		.4byte	0x4c1
 1558 03ea 3C       		.byte	0x3c
 1559 03eb 0A       		.uleb128 0xa
 1560 03ec 00000000 		.4byte	.LASF82
 1561 03f0 06       		.byte	0x6
 1562 03f1 9A01     		.2byte	0x19a
 1563 03f3 C1040000 		.4byte	0x4c1
 1564 03f7 3E       		.byte	0x3e
 1565 03f8 0A       		.uleb128 0xa
 1566 03f9 40020000 		.4byte	.LASF83
 1567 03fd 06       		.byte	0x6
 1568 03fe A001     		.2byte	0x1a0
 1569 0400 C1040000 		.4byte	0x4c1
 1570 0404 40       		.byte	0x40
 1571 0405 0A       		.uleb128 0xa
 1572 0406 6E0A0000 		.4byte	.LASF84
 1573 040a 06       		.byte	0x6
 1574 040b A801     		.2byte	0x1a8
ARM GAS  C:\Users\inspiron\AppData\Local\Temp\cc3AwUZg.s 			page 57


 1575 040d C1040000 		.4byte	0x4c1
 1576 0411 42       		.byte	0x42
 1577 0412 0A       		.uleb128 0xa
 1578 0413 540D0000 		.4byte	.LASF85
 1579 0417 06       		.byte	0x6
 1580 0418 AF01     		.2byte	0x1af
 1581 041a C1040000 		.4byte	0x4c1
 1582 041e 44       		.byte	0x44
 1583 041f 0A       		.uleb128 0xa
 1584 0420 32060000 		.4byte	.LASF86
 1585 0424 06       		.byte	0x6
 1586 0425 B701     		.2byte	0x1b7
 1587 0427 C1040000 		.4byte	0x4c1
 1588 042b 46       		.byte	0x46
 1589 042c 0A       		.uleb128 0xa
 1590 042d CC0D0000 		.4byte	.LASF87
 1591 0431 06       		.byte	0x6
 1592 0432 BD01     		.2byte	0x1bd
 1593 0434 C1040000 		.4byte	0x4c1
 1594 0438 48       		.byte	0x48
 1595 0439 0A       		.uleb128 0xa
 1596 043a 84060000 		.4byte	.LASF88
 1597 043e 06       		.byte	0x6
 1598 043f C301     		.2byte	0x1c3
 1599 0441 C1040000 		.4byte	0x4c1
 1600 0445 4A       		.byte	0x4a
 1601 0446 0A       		.uleb128 0xa
 1602 0447 C9030000 		.4byte	.LASF89
 1603 044b 06       		.byte	0x6
 1604 044c CC01     		.2byte	0x1cc
 1605 044e BC040000 		.4byte	0x4bc
 1606 0452 4C       		.byte	0x4c
 1607 0453 0A       		.uleb128 0xa
 1608 0454 96090000 		.4byte	.LASF90
 1609 0458 06       		.byte	0x6
 1610 0459 D101     		.2byte	0x1d1
 1611 045b BC040000 		.4byte	0x4bc
 1612 045f 4D       		.byte	0x4d
 1613 0460 0A       		.uleb128 0xa
 1614 0461 A2090000 		.4byte	.LASF91
 1615 0465 06       		.byte	0x6
 1616 0466 D601     		.2byte	0x1d6
 1617 0468 BC040000 		.4byte	0x4bc
 1618 046c 4E       		.byte	0x4e
 1619 046d 0A       		.uleb128 0xa
 1620 046e E1010000 		.4byte	.LASF92
 1621 0472 06       		.byte	0x6
 1622 0473 DB01     		.2byte	0x1db
 1623 0475 BC040000 		.4byte	0x4bc
 1624 0479 4F       		.byte	0x4f
 1625 047a 0A       		.uleb128 0xa
 1626 047b 72030000 		.4byte	.LASF93
 1627 047f 06       		.byte	0x6
 1628 0480 E001     		.2byte	0x1e0
 1629 0482 BC040000 		.4byte	0x4bc
 1630 0486 50       		.byte	0x50
 1631 0487 0A       		.uleb128 0xa
ARM GAS  C:\Users\inspiron\AppData\Local\Temp\cc3AwUZg.s 			page 58


 1632 0488 360C0000 		.4byte	.LASF94
 1633 048c 06       		.byte	0x6
 1634 048d E501     		.2byte	0x1e5
 1635 048f BC040000 		.4byte	0x4bc
 1636 0493 51       		.byte	0x51
 1637 0494 0A       		.uleb128 0xa
 1638 0495 220C0000 		.4byte	.LASF95
 1639 0499 06       		.byte	0x6
 1640 049a EA01     		.2byte	0x1ea
 1641 049c BC040000 		.4byte	0x4bc
 1642 04a0 52       		.byte	0x52
 1643 04a1 0A       		.uleb128 0xa
 1644 04a2 4E070000 		.4byte	.LASF96
 1645 04a6 06       		.byte	0x6
 1646 04a7 EF01     		.2byte	0x1ef
 1647 04a9 BC040000 		.4byte	0x4bc
 1648 04ad 53       		.byte	0x53
 1649 04ae 0A       		.uleb128 0xa
 1650 04af 15060000 		.4byte	.LASF97
 1651 04b3 06       		.byte	0x6
 1652 04b4 F401     		.2byte	0x1f4
 1653 04b6 BC040000 		.4byte	0x4bc
 1654 04ba 54       		.byte	0x54
 1655 04bb 00       		.byte	0
 1656 04bc 06       		.uleb128 0x6
 1657 04bd 81000000 		.4byte	0x81
 1658 04c1 06       		.uleb128 0x6
 1659 04c2 8C000000 		.4byte	0x8c
 1660 04c6 05       		.uleb128 0x5
 1661 04c7 9E0C0000 		.4byte	.LASF98
 1662 04cb 06       		.byte	0x6
 1663 04cc F501     		.2byte	0x1f5
 1664 04ce 1F010000 		.4byte	0x11f
 1665 04d2 0B       		.uleb128 0xb
 1666 04d3 01       		.byte	0x1
 1667 04d4 37000000 		.4byte	0x37
 1668 04d8 07       		.byte	0x7
 1669 04d9 61       		.byte	0x61
 1670 04da 09050000 		.4byte	0x509
 1671 04de 0C       		.uleb128 0xc
 1672 04df DE0B0000 		.4byte	.LASF99
 1673 04e3 01       		.byte	0x1
 1674 04e4 0C       		.uleb128 0xc
 1675 04e5 7A090000 		.4byte	.LASF100
 1676 04e9 02       		.byte	0x2
 1677 04ea 0C       		.uleb128 0xc
 1678 04eb 4F060000 		.4byte	.LASF101
 1679 04ef 03       		.byte	0x3
 1680 04f0 0C       		.uleb128 0xc
 1681 04f1 2F050000 		.4byte	.LASF102
 1682 04f5 04       		.byte	0x4
 1683 04f6 0C       		.uleb128 0xc
 1684 04f7 DC0C0000 		.4byte	.LASF103
 1685 04fb 05       		.byte	0x5
 1686 04fc 0C       		.uleb128 0xc
 1687 04fd 1F000000 		.4byte	.LASF104
 1688 0501 06       		.byte	0x6
ARM GAS  C:\Users\inspiron\AppData\Local\Temp\cc3AwUZg.s 			page 59


 1689 0502 0C       		.uleb128 0xc
 1690 0503 9A0A0000 		.4byte	.LASF105
 1691 0507 07       		.byte	0x7
 1692 0508 00       		.byte	0
 1693 0509 03       		.uleb128 0x3
 1694 050a 2B090000 		.4byte	.LASF106
 1695 050e 07       		.byte	0x7
 1696 050f 69       		.byte	0x69
 1697 0510 D2040000 		.4byte	0x4d2
 1698 0514 0B       		.uleb128 0xb
 1699 0515 01       		.byte	0x1
 1700 0516 37000000 		.4byte	0x37
 1701 051a 07       		.byte	0x7
 1702 051b 70       		.byte	0x70
 1703 051c 3F050000 		.4byte	0x53f
 1704 0520 0C       		.uleb128 0xc
 1705 0521 0C010000 		.4byte	.LASF107
 1706 0525 00       		.byte	0
 1707 0526 0C       		.uleb128 0xc
 1708 0527 820C0000 		.4byte	.LASF108
 1709 052b 01       		.byte	0x1
 1710 052c 0C       		.uleb128 0xc
 1711 052d 880B0000 		.4byte	.LASF109
 1712 0531 02       		.byte	0x2
 1713 0532 0C       		.uleb128 0xc
 1714 0533 170E0000 		.4byte	.LASF110
 1715 0537 03       		.byte	0x3
 1716 0538 0C       		.uleb128 0xc
 1717 0539 D0090000 		.4byte	.LASF111
 1718 053d 04       		.byte	0x4
 1719 053e 00       		.byte	0
 1720 053f 08       		.uleb128 0x8
 1721 0540 06       		.byte	0x6
 1722 0541 07       		.byte	0x7
 1723 0542 EA       		.byte	0xea
 1724 0543 71050000 		.4byte	0x571
 1725 0547 0D       		.uleb128 0xd
 1726 0548 7800     		.ascii	"x\000"
 1727 054a 07       		.byte	0x7
 1728 054b EF       		.byte	0xef
 1729 054c A3000000 		.4byte	0xa3
 1730 0550 00       		.byte	0
 1731 0551 0D       		.uleb128 0xd
 1732 0552 7900     		.ascii	"y\000"
 1733 0554 07       		.byte	0x7
 1734 0555 F4       		.byte	0xf4
 1735 0556 A3000000 		.4byte	0xa3
 1736 055a 02       		.byte	0x2
 1737 055b 0D       		.uleb128 0xd
 1738 055c 7A00     		.ascii	"z\000"
 1739 055e 07       		.byte	0x7
 1740 055f F9       		.byte	0xf9
 1741 0560 97000000 		.4byte	0x97
 1742 0564 04       		.byte	0x4
 1743 0565 0D       		.uleb128 0xd
 1744 0566 696400   		.ascii	"id\000"
 1745 0569 07       		.byte	0x7
ARM GAS  C:\Users\inspiron\AppData\Local\Temp\cc3AwUZg.s 			page 60


 1746 056a FE       		.byte	0xfe
 1747 056b 97000000 		.4byte	0x97
 1748 056f 05       		.byte	0x5
 1749 0570 00       		.byte	0
 1750 0571 03       		.uleb128 0x3
 1751 0572 DA050000 		.4byte	.LASF112
 1752 0576 07       		.byte	0x7
 1753 0577 FF       		.byte	0xff
 1754 0578 3F050000 		.4byte	0x53f
 1755 057c 0E       		.uleb128 0xe
 1756 057d 18       		.byte	0x18
 1757 057e 07       		.byte	0x7
 1758 057f 0401     		.2byte	0x104
 1759 0581 22060000 		.4byte	0x622
 1760 0585 0A       		.uleb128 0xa
 1761 0586 8D070000 		.4byte	.LASF113
 1762 058a 07       		.byte	0x7
 1763 058b 0901     		.2byte	0x109
 1764 058d A3000000 		.4byte	0xa3
 1765 0591 00       		.byte	0
 1766 0592 0A       		.uleb128 0xa
 1767 0593 2F0D0000 		.4byte	.LASF114
 1768 0597 07       		.byte	0x7
 1769 0598 0E01     		.2byte	0x10e
 1770 059a 07010000 		.4byte	0x107
 1771 059e 02       		.byte	0x2
 1772 059f 0A       		.uleb128 0xa
 1773 05a0 1D070000 		.4byte	.LASF115
 1774 05a4 07       		.byte	0x7
 1775 05a5 1301     		.2byte	0x113
 1776 05a7 97000000 		.4byte	0x97
 1777 05ab 04       		.byte	0x4
 1778 05ac 0A       		.uleb128 0xa
 1779 05ad CB080000 		.4byte	.LASF116
 1780 05b1 07       		.byte	0x7
 1781 05b2 1801     		.2byte	0x118
 1782 05b4 97000000 		.4byte	0x97
 1783 05b8 05       		.byte	0x5
 1784 05b9 0A       		.uleb128 0xa
 1785 05ba 44060000 		.4byte	.LASF117
 1786 05be 07       		.byte	0x7
 1787 05bf 1E01     		.2byte	0x11e
 1788 05c1 97000000 		.4byte	0x97
 1789 05c5 06       		.byte	0x6
 1790 05c6 0A       		.uleb128 0xa
 1791 05c7 40080000 		.4byte	.LASF118
 1792 05cb 07       		.byte	0x7
 1793 05cc 2401     		.2byte	0x124
 1794 05ce 97000000 		.4byte	0x97
 1795 05d2 07       		.byte	0x7
 1796 05d3 0A       		.uleb128 0xa
 1797 05d4 9C060000 		.4byte	.LASF119
 1798 05d8 07       		.byte	0x7
 1799 05d9 2B01     		.2byte	0x12b
 1800 05db 13010000 		.4byte	0x113
 1801 05df 08       		.byte	0x8
 1802 05e0 0A       		.uleb128 0xa
ARM GAS  C:\Users\inspiron\AppData\Local\Temp\cc3AwUZg.s 			page 61


 1803 05e1 B9060000 		.4byte	.LASF120
 1804 05e5 07       		.byte	0x7
 1805 05e6 3001     		.2byte	0x130
 1806 05e8 97000000 		.4byte	0x97
 1807 05ec 09       		.byte	0x9
 1808 05ed 0A       		.uleb128 0xa
 1809 05ee B40A0000 		.4byte	.LASF121
 1810 05f2 07       		.byte	0x7
 1811 05f3 3501     		.2byte	0x135
 1812 05f5 97000000 		.4byte	0x97
 1813 05f9 0A       		.byte	0xa
 1814 05fa 0A       		.uleb128 0xa
 1815 05fb 4B090000 		.4byte	.LASF122
 1816 05ff 07       		.byte	0x7
 1817 0600 3B01     		.2byte	0x13b
 1818 0602 97000000 		.4byte	0x97
 1819 0606 0B       		.byte	0xb
 1820 0607 0A       		.uleb128 0xa
 1821 0608 90080000 		.4byte	.LASF123
 1822 060c 07       		.byte	0x7
 1823 060d 4401     		.2byte	0x144
 1824 060f AF000000 		.4byte	0xaf
 1825 0613 0C       		.byte	0xc
 1826 0614 0A       		.uleb128 0xa
 1827 0615 03090000 		.4byte	.LASF124
 1828 0619 07       		.byte	0x7
 1829 061a 4901     		.2byte	0x149
 1830 061c 22060000 		.4byte	0x622
 1831 0620 10       		.byte	0x10
 1832 0621 00       		.byte	0
 1833 0622 0F       		.uleb128 0xf
 1834 0623 71050000 		.4byte	0x571
 1835 0627 32060000 		.4byte	0x632
 1836 062b 10       		.uleb128 0x10
 1837 062c FE000000 		.4byte	0xfe
 1838 0630 00       		.byte	0
 1839 0631 00       		.byte	0
 1840 0632 05       		.uleb128 0x5
 1841 0633 5E0C0000 		.4byte	.LASF125
 1842 0637 07       		.byte	0x7
 1843 0638 4A01     		.2byte	0x14a
 1844 063a 7C050000 		.4byte	0x57c
 1845 063e 0E       		.uleb128 0xe
 1846 063f 18       		.byte	0x18
 1847 0640 07       		.byte	0x7
 1848 0641 5001     		.2byte	0x150
 1849 0643 55060000 		.4byte	0x655
 1850 0647 0A       		.uleb128 0xa
 1851 0648 4B050000 		.4byte	.LASF126
 1852 064c 07       		.byte	0x7
 1853 064d 5501     		.2byte	0x155
 1854 064f 32060000 		.4byte	0x632
 1855 0653 00       		.byte	0
 1856 0654 00       		.byte	0
 1857 0655 05       		.uleb128 0x5
 1858 0656 AA0B0000 		.4byte	.LASF127
 1859 065a 07       		.byte	0x7
ARM GAS  C:\Users\inspiron\AppData\Local\Temp\cc3AwUZg.s 			page 62


 1860 065b 5601     		.2byte	0x156
 1861 065d 3E060000 		.4byte	0x63e
 1862 0661 0E       		.uleb128 0xe
 1863 0662 0A       		.byte	0xa
 1864 0663 07       		.byte	0x7
 1865 0664 5C01     		.2byte	0x15c
 1866 0666 B9060000 		.4byte	0x6b9
 1867 066a 11       		.uleb128 0x11
 1868 066b 72617700 		.ascii	"raw\000"
 1869 066f 07       		.byte	0x7
 1870 0670 6101     		.2byte	0x161
 1871 0672 B9060000 		.4byte	0x6b9
 1872 0676 00       		.byte	0
 1873 0677 0A       		.uleb128 0xa
 1874 0678 41090000 		.4byte	.LASF128
 1875 067c 07       		.byte	0x7
 1876 067d 6601     		.2byte	0x166
 1877 067f B9060000 		.4byte	0x6b9
 1878 0683 02       		.byte	0x2
 1879 0684 0A       		.uleb128 0xa
 1880 0685 380D0000 		.4byte	.LASF129
 1881 0689 07       		.byte	0x7
 1882 068a 6C01     		.2byte	0x16c
 1883 068c C9060000 		.4byte	0x6c9
 1884 0690 04       		.byte	0x4
 1885 0691 0A       		.uleb128 0xa
 1886 0692 7A0B0000 		.4byte	.LASF130
 1887 0696 07       		.byte	0x7
 1888 0697 7101     		.2byte	0x171
 1889 0699 07010000 		.4byte	0x107
 1890 069d 06       		.byte	0x6
 1891 069e 0A       		.uleb128 0xa
 1892 069f 1C0F0000 		.4byte	.LASF131
 1893 06a3 07       		.byte	0x7
 1894 06a4 7601     		.2byte	0x176
 1895 06a6 D9060000 		.4byte	0x6d9
 1896 06aa 08       		.byte	0x8
 1897 06ab 0A       		.uleb128 0xa
 1898 06ac FB070000 		.4byte	.LASF132
 1899 06b0 07       		.byte	0x7
 1900 06b1 7B01     		.2byte	0x17b
 1901 06b3 C9060000 		.4byte	0x6c9
 1902 06b7 09       		.byte	0x9
 1903 06b8 00       		.byte	0
 1904 06b9 0F       		.uleb128 0xf
 1905 06ba A3000000 		.4byte	0xa3
 1906 06be C9060000 		.4byte	0x6c9
 1907 06c2 10       		.uleb128 0x10
 1908 06c3 FE000000 		.4byte	0xfe
 1909 06c7 00       		.byte	0
 1910 06c8 00       		.byte	0
 1911 06c9 0F       		.uleb128 0xf
 1912 06ca 97000000 		.4byte	0x97
 1913 06ce D9060000 		.4byte	0x6d9
 1914 06d2 10       		.uleb128 0x10
 1915 06d3 FE000000 		.4byte	0xfe
 1916 06d7 00       		.byte	0
ARM GAS  C:\Users\inspiron\AppData\Local\Temp\cc3AwUZg.s 			page 63


 1917 06d8 00       		.byte	0
 1918 06d9 0F       		.uleb128 0xf
 1919 06da 13010000 		.4byte	0x113
 1920 06de E9060000 		.4byte	0x6e9
 1921 06e2 10       		.uleb128 0x10
 1922 06e3 FE000000 		.4byte	0xfe
 1923 06e7 00       		.byte	0
 1924 06e8 00       		.byte	0
 1925 06e9 05       		.uleb128 0x5
 1926 06ea FD050000 		.4byte	.LASF133
 1927 06ee 07       		.byte	0x7
 1928 06ef 7C01     		.2byte	0x17c
 1929 06f1 61060000 		.4byte	0x661
 1930 06f5 12       		.uleb128 0x12
 1931 06f6 EA01     		.2byte	0x1ea
 1932 06f8 07       		.byte	0x7
 1933 06f9 8201     		.2byte	0x182
 1934 06fb 0D070000 		.4byte	0x70d
 1935 06ff 0A       		.uleb128 0xa
 1936 0700 4B050000 		.4byte	.LASF126
 1937 0704 07       		.byte	0x7
 1938 0705 8701     		.2byte	0x187
 1939 0707 0D070000 		.4byte	0x70d
 1940 070b 00       		.byte	0
 1941 070c 00       		.byte	0
 1942 070d 0F       		.uleb128 0xf
 1943 070e E9060000 		.4byte	0x6e9
 1944 0712 1D070000 		.4byte	0x71d
 1945 0716 10       		.uleb128 0x10
 1946 0717 FE000000 		.4byte	0xfe
 1947 071b 30       		.byte	0x30
 1948 071c 00       		.byte	0
 1949 071d 05       		.uleb128 0x5
 1950 071e 580F0000 		.4byte	.LASF134
 1951 0722 07       		.byte	0x7
 1952 0723 8801     		.2byte	0x188
 1953 0725 F5060000 		.4byte	0x6f5
 1954 0729 12       		.uleb128 0x12
 1955 072a 8802     		.2byte	0x288
 1956 072c 07       		.byte	0x7
 1957 072d 8E01     		.2byte	0x18e
 1958 072f 68080000 		.4byte	0x868
 1959 0733 0A       		.uleb128 0xa
 1960 0734 5A0A0000 		.4byte	.LASF135
 1961 0738 07       		.byte	0x7
 1962 0739 9501     		.2byte	0x195
 1963 073b A3000000 		.4byte	0xa3
 1964 073f 00       		.byte	0
 1965 0740 0A       		.uleb128 0xa
 1966 0741 3A0F0000 		.4byte	.LASF136
 1967 0745 07       		.byte	0x7
 1968 0746 9A01     		.2byte	0x19a
 1969 0748 A3000000 		.4byte	0xa3
 1970 074c 02       		.byte	0x2
 1971 074d 0A       		.uleb128 0xa
 1972 074e 72010000 		.4byte	.LASF137
 1973 0752 07       		.byte	0x7
ARM GAS  C:\Users\inspiron\AppData\Local\Temp\cc3AwUZg.s 			page 64


 1974 0753 9F01     		.2byte	0x19f
 1975 0755 A3000000 		.4byte	0xa3
 1976 0759 04       		.byte	0x4
 1977 075a 0A       		.uleb128 0xa
 1978 075b 7F0B0000 		.4byte	.LASF138
 1979 075f 07       		.byte	0x7
 1980 0760 A501     		.2byte	0x1a5
 1981 0762 A3000000 		.4byte	0xa3
 1982 0766 06       		.byte	0x6
 1983 0767 0A       		.uleb128 0xa
 1984 0768 66010000 		.4byte	.LASF139
 1985 076c 07       		.byte	0x7
 1986 076d AA01     		.2byte	0x1aa
 1987 076f A3000000 		.4byte	0xa3
 1988 0773 08       		.byte	0x8
 1989 0774 0A       		.uleb128 0xa
 1990 0775 A0070000 		.4byte	.LASF140
 1991 0779 07       		.byte	0x7
 1992 077a AF01     		.2byte	0x1af
 1993 077c F2000000 		.4byte	0xf2
 1994 0780 0C       		.byte	0xc
 1995 0781 0A       		.uleb128 0xa
 1996 0782 400B0000 		.4byte	.LASF141
 1997 0786 07       		.byte	0x7
 1998 0787 B501     		.2byte	0x1b5
 1999 0789 68080000 		.4byte	0x868
 2000 078d 10       		.byte	0x10
 2001 078e 0A       		.uleb128 0xa
 2002 078f 530C0000 		.4byte	.LASF142
 2003 0793 07       		.byte	0x7
 2004 0794 BC01     		.2byte	0x1bc
 2005 0796 68080000 		.4byte	0x868
 2006 079a 14       		.byte	0x14
 2007 079b 0A       		.uleb128 0xa
 2008 079c 900A0000 		.4byte	.LASF143
 2009 07a0 07       		.byte	0x7
 2010 07a1 CC01     		.2byte	0x1cc
 2011 07a3 C9060000 		.4byte	0x6c9
 2012 07a7 18       		.byte	0x18
 2013 07a8 0A       		.uleb128 0xa
 2014 07a9 DE080000 		.4byte	.LASF144
 2015 07ad 07       		.byte	0x7
 2016 07ae D201     		.2byte	0x1d2
 2017 07b0 A3000000 		.4byte	0xa3
 2018 07b4 1A       		.byte	0x1a
 2019 07b5 0A       		.uleb128 0xa
 2020 07b6 C20D0000 		.4byte	.LASF145
 2021 07ba 07       		.byte	0x7
 2022 07bb D701     		.2byte	0x1d7
 2023 07bd 97000000 		.4byte	0x97
 2024 07c1 1C       		.byte	0x1c
 2025 07c2 0A       		.uleb128 0xa
 2026 07c3 D4080000 		.4byte	.LASF146
 2027 07c7 07       		.byte	0x7
 2028 07c8 DC01     		.2byte	0x1dc
 2029 07ca A3000000 		.4byte	0xa3
 2030 07ce 1E       		.byte	0x1e
ARM GAS  C:\Users\inspiron\AppData\Local\Temp\cc3AwUZg.s 			page 65


 2031 07cf 0A       		.uleb128 0xa
 2032 07d0 64080000 		.4byte	.LASF147
 2033 07d4 07       		.byte	0x7
 2034 07d5 E101     		.2byte	0x1e1
 2035 07d7 55060000 		.4byte	0x655
 2036 07db 20       		.byte	0x20
 2037 07dc 0A       		.uleb128 0xa
 2038 07dd F7040000 		.4byte	.LASF148
 2039 07e1 07       		.byte	0x7
 2040 07e2 E601     		.2byte	0x1e6
 2041 07e4 1D070000 		.4byte	0x71d
 2042 07e8 38       		.byte	0x38
 2043 07e9 13       		.uleb128 0x13
 2044 07ea 950D0000 		.4byte	.LASF149
 2045 07ee 07       		.byte	0x7
 2046 07ef EB01     		.2byte	0x1eb
 2047 07f1 C6040000 		.4byte	0x4c6
 2048 07f5 2202     		.2byte	0x222
 2049 07f7 13       		.uleb128 0x13
 2050 07f8 FB030000 		.4byte	.LASF150
 2051 07fc 07       		.byte	0x7
 2052 07fd F001     		.2byte	0x1f0
 2053 07ff AF000000 		.4byte	0xaf
 2054 0803 7802     		.2byte	0x278
 2055 0805 13       		.uleb128 0x13
 2056 0806 540E0000 		.4byte	.LASF151
 2057 080a 07       		.byte	0x7
 2058 080b F501     		.2byte	0x1f5
 2059 080d AF000000 		.4byte	0xaf
 2060 0811 7C02     		.2byte	0x27c
 2061 0813 13       		.uleb128 0x13
 2062 0814 CE000000 		.4byte	.LASF152
 2063 0818 07       		.byte	0x7
 2064 0819 FA01     		.2byte	0x1fa
 2065 081b 97000000 		.4byte	0x97
 2066 081f 8002     		.2byte	0x280
 2067 0821 13       		.uleb128 0x13
 2068 0822 6E050000 		.4byte	.LASF153
 2069 0826 07       		.byte	0x7
 2070 0827 FF01     		.2byte	0x1ff
 2071 0829 97000000 		.4byte	0x97
 2072 082d 8102     		.2byte	0x281
 2073 082f 13       		.uleb128 0x13
 2074 0830 470A0000 		.4byte	.LASF154
 2075 0834 07       		.byte	0x7
 2076 0835 0402     		.2byte	0x204
 2077 0837 A3000000 		.4byte	0xa3
 2078 083b 8202     		.2byte	0x282
 2079 083d 13       		.uleb128 0x13
 2080 083e 99080000 		.4byte	.LASF155
 2081 0842 07       		.byte	0x7
 2082 0843 0902     		.2byte	0x209
 2083 0845 B9060000 		.4byte	0x6b9
 2084 0849 8402     		.2byte	0x284
 2085 084b 13       		.uleb128 0x13
 2086 084c F8090000 		.4byte	.LASF156
 2087 0850 07       		.byte	0x7
ARM GAS  C:\Users\inspiron\AppData\Local\Temp\cc3AwUZg.s 			page 66


 2088 0851 0E02     		.2byte	0x20e
 2089 0853 97000000 		.4byte	0x97
 2090 0857 8602     		.2byte	0x286
 2091 0859 13       		.uleb128 0x13
 2092 085a E40D0000 		.4byte	.LASF157
 2093 085e 07       		.byte	0x7
 2094 085f 1302     		.2byte	0x213
 2095 0861 97000000 		.4byte	0x97
 2096 0865 8702     		.2byte	0x287
 2097 0867 00       		.byte	0
 2098 0868 0F       		.uleb128 0xf
 2099 0869 AF000000 		.4byte	0xaf
 2100 086d 78080000 		.4byte	0x878
 2101 0871 10       		.uleb128 0x10
 2102 0872 FE000000 		.4byte	0xfe
 2103 0876 00       		.byte	0
 2104 0877 00       		.byte	0
 2105 0878 05       		.uleb128 0x5
 2106 0879 230B0000 		.4byte	.LASF158
 2107 087d 07       		.byte	0x7
 2108 087e 1402     		.2byte	0x214
 2109 0880 29070000 		.4byte	0x729
 2110 0884 0E       		.uleb128 0xe
 2111 0885 1C       		.byte	0x1c
 2112 0886 07       		.byte	0x7
 2113 0887 1A02     		.2byte	0x21a
 2114 0889 03090000 		.4byte	0x903
 2115 088d 0A       		.uleb128 0xa
 2116 088e 55090000 		.4byte	.LASF159
 2117 0892 07       		.byte	0x7
 2118 0893 1F02     		.2byte	0x21f
 2119 0895 03090000 		.4byte	0x903
 2120 0899 00       		.byte	0
 2121 089a 0A       		.uleb128 0xa
 2122 089b 0E080000 		.4byte	.LASF160
 2123 089f 07       		.byte	0x7
 2124 08a0 2402     		.2byte	0x224
 2125 08a2 03090000 		.4byte	0x903
 2126 08a6 04       		.byte	0x4
 2127 08a7 0A       		.uleb128 0xa
 2128 08a8 1F060000 		.4byte	.LASF161
 2129 08ac 07       		.byte	0x7
 2130 08ad 2902     		.2byte	0x229
 2131 08af 03090000 		.4byte	0x903
 2132 08b3 08       		.byte	0x8
 2133 08b4 0A       		.uleb128 0xa
 2134 08b5 A40B0000 		.4byte	.LASF162
 2135 08b9 07       		.byte	0x7
 2136 08ba 2E02     		.2byte	0x22e
 2137 08bc 03090000 		.4byte	0x903
 2138 08c0 0C       		.byte	0xc
 2139 08c1 0A       		.uleb128 0xa
 2140 08c2 4A0E0000 		.4byte	.LASF163
 2141 08c6 07       		.byte	0x7
 2142 08c7 3302     		.2byte	0x233
 2143 08c9 AF000000 		.4byte	0xaf
 2144 08cd 10       		.byte	0x10
ARM GAS  C:\Users\inspiron\AppData\Local\Temp\cc3AwUZg.s 			page 67


 2145 08ce 0A       		.uleb128 0xa
 2146 08cf 75090000 		.4byte	.LASF164
 2147 08d3 07       		.byte	0x7
 2148 08d4 3802     		.2byte	0x238
 2149 08d6 AF000000 		.4byte	0xaf
 2150 08da 14       		.byte	0x14
 2151 08db 0A       		.uleb128 0xa
 2152 08dc 6C070000 		.4byte	.LASF165
 2153 08e0 07       		.byte	0x7
 2154 08e1 3D02     		.2byte	0x23d
 2155 08e3 97000000 		.4byte	0x97
 2156 08e7 18       		.byte	0x18
 2157 08e8 0A       		.uleb128 0xa
 2158 08e9 C20C0000 		.4byte	.LASF166
 2159 08ed 07       		.byte	0x7
 2160 08ee 4202     		.2byte	0x242
 2161 08f0 97000000 		.4byte	0x97
 2162 08f4 19       		.byte	0x19
 2163 08f5 0A       		.uleb128 0xa
 2164 08f6 37040000 		.4byte	.LASF167
 2165 08fa 07       		.byte	0x7
 2166 08fb 4702     		.2byte	0x247
 2167 08fd 97000000 		.4byte	0x97
 2168 0901 1A       		.byte	0x1a
 2169 0902 00       		.byte	0
 2170 0903 14       		.uleb128 0x14
 2171 0904 04       		.byte	0x4
 2172 0905 E6000000 		.4byte	0xe6
 2173 0909 05       		.uleb128 0x5
 2174 090a 55050000 		.4byte	.LASF168
 2175 090e 07       		.byte	0x7
 2176 090f 4802     		.2byte	0x248
 2177 0911 84080000 		.4byte	0x884
 2178 0915 0E       		.uleb128 0xe
 2179 0916 0C       		.byte	0xc
 2180 0917 07       		.byte	0x7
 2181 0918 7A02     		.2byte	0x27a
 2182 091a 73090000 		.4byte	0x973
 2183 091e 11       		.uleb128 0x11
 2184 091f 7800     		.ascii	"x\000"
 2185 0921 07       		.byte	0x7
 2186 0922 8002     		.2byte	0x280
 2187 0924 A3000000 		.4byte	0xa3
 2188 0928 00       		.byte	0
 2189 0929 11       		.uleb128 0x11
 2190 092a 7900     		.ascii	"y\000"
 2191 092c 07       		.byte	0x7
 2192 092d 8602     		.2byte	0x286
 2193 092f A3000000 		.4byte	0xa3
 2194 0933 02       		.byte	0x2
 2195 0934 0A       		.uleb128 0xa
 2196 0935 A7070000 		.4byte	.LASF169
 2197 0939 07       		.byte	0x7
 2198 093a 8B02     		.2byte	0x28b
 2199 093c A3000000 		.4byte	0xa3
 2200 0940 04       		.byte	0x4
 2201 0941 11       		.uleb128 0x11
ARM GAS  C:\Users\inspiron\AppData\Local\Temp\cc3AwUZg.s 			page 68


 2202 0942 61676500 		.ascii	"age\000"
 2203 0946 07       		.byte	0x7
 2204 0947 9102     		.2byte	0x291
 2205 0949 A3000000 		.4byte	0xa3
 2206 094d 06       		.byte	0x6
 2207 094e 11       		.uleb128 0x11
 2208 094f 7A00     		.ascii	"z\000"
 2209 0951 07       		.byte	0x7
 2210 0952 9602     		.2byte	0x296
 2211 0954 97000000 		.4byte	0x97
 2212 0958 08       		.byte	0x8
 2213 0959 11       		.uleb128 0x11
 2214 095a 696400   		.ascii	"id\000"
 2215 095d 07       		.byte	0x7
 2216 095e 9C02     		.2byte	0x29c
 2217 0960 97000000 		.4byte	0x97
 2218 0964 09       		.byte	0x9
 2219 0965 0A       		.uleb128 0xa
 2220 0966 4B080000 		.4byte	.LASF170
 2221 096a 07       		.byte	0x7
 2222 096b A402     		.2byte	0x2a4
 2223 096d 97000000 		.4byte	0x97
 2224 0971 0A       		.byte	0xa
 2225 0972 00       		.byte	0
 2226 0973 05       		.uleb128 0x5
 2227 0974 A9080000 		.4byte	.LASF171
 2228 0978 07       		.byte	0x7
 2229 0979 A502     		.2byte	0x2a5
 2230 097b 15090000 		.4byte	0x915
 2231 097f 0E       		.uleb128 0xe
 2232 0980 3E       		.byte	0x3e
 2233 0981 07       		.byte	0x7
 2234 0982 AA02     		.2byte	0x2aa
 2235 0984 A3090000 		.4byte	0x9a3
 2236 0988 0A       		.uleb128 0xa
 2237 0989 03090000 		.4byte	.LASF124
 2238 098d 07       		.byte	0x7
 2239 098e B002     		.2byte	0x2b0
 2240 0990 A3090000 		.4byte	0x9a3
 2241 0994 00       		.byte	0
 2242 0995 0A       		.uleb128 0xa
 2243 0996 54080000 		.4byte	.LASF172
 2244 099a 07       		.byte	0x7
 2245 099b B502     		.2byte	0x2b5
 2246 099d 97000000 		.4byte	0x97
 2247 09a1 3C       		.byte	0x3c
 2248 09a2 00       		.byte	0
 2249 09a3 0F       		.uleb128 0xf
 2250 09a4 73090000 		.4byte	0x973
 2251 09a8 B3090000 		.4byte	0x9b3
 2252 09ac 10       		.uleb128 0x10
 2253 09ad FE000000 		.4byte	0xfe
 2254 09b1 04       		.byte	0x4
 2255 09b2 00       		.byte	0
 2256 09b3 05       		.uleb128 0x5
 2257 09b4 09090000 		.4byte	.LASF173
 2258 09b8 07       		.byte	0x7
ARM GAS  C:\Users\inspiron\AppData\Local\Temp\cc3AwUZg.s 			page 69


 2259 09b9 B602     		.2byte	0x2b6
 2260 09bb 7F090000 		.4byte	0x97f
 2261 09bf 0E       		.uleb128 0xe
 2262 09c0 38       		.byte	0x38
 2263 09c1 07       		.byte	0x7
 2264 09c2 BC02     		.2byte	0x2bc
 2265 09c4 A60A0000 		.4byte	0xaa6
 2266 09c8 0A       		.uleb128 0xa
 2267 09c9 6D080000 		.4byte	.LASF174
 2268 09cd 07       		.byte	0x7
 2269 09ce C502     		.2byte	0x2c5
 2270 09d0 A60A0000 		.4byte	0xaa6
 2271 09d4 00       		.byte	0
 2272 09d5 0A       		.uleb128 0xa
 2273 09d6 F30D0000 		.4byte	.LASF175
 2274 09da 07       		.byte	0x7
 2275 09db CC02     		.2byte	0x2cc
 2276 09dd 05010000 		.4byte	0x105
 2277 09e1 04       		.byte	0x4
 2278 09e2 0A       		.uleb128 0xa
 2279 09e3 630A0000 		.4byte	.LASF176
 2280 09e7 07       		.byte	0x7
 2281 09e8 D202     		.2byte	0x2d2
 2282 09ea AD0A0000 		.4byte	0xaad
 2283 09ee 08       		.byte	0x8
 2284 09ef 0A       		.uleb128 0xa
 2285 09f0 65090000 		.4byte	.LASF177
 2286 09f4 07       		.byte	0x7
 2287 09f5 D802     		.2byte	0x2d8
 2288 09f7 05010000 		.4byte	0x105
 2289 09fb 0C       		.byte	0xc
 2290 09fc 0A       		.uleb128 0xa
 2291 09fd F30C0000 		.4byte	.LASF178
 2292 0a01 07       		.byte	0x7
 2293 0a02 DF02     		.2byte	0x2df
 2294 0a04 B30A0000 		.4byte	0xab3
 2295 0a08 10       		.byte	0x10
 2296 0a09 0A       		.uleb128 0xa
 2297 0a0a 9E0D0000 		.4byte	.LASF179
 2298 0a0e 07       		.byte	0x7
 2299 0a0f E402     		.2byte	0x2e4
 2300 0a11 AF000000 		.4byte	0xaf
 2301 0a15 14       		.byte	0x14
 2302 0a16 0A       		.uleb128 0xa
 2303 0a17 DE060000 		.4byte	.LASF180
 2304 0a1b 07       		.byte	0x7
 2305 0a1c EB02     		.2byte	0x2eb
 2306 0a1e A3000000 		.4byte	0xa3
 2307 0a22 18       		.byte	0x18
 2308 0a23 0A       		.uleb128 0xa
 2309 0a24 89050000 		.4byte	.LASF181
 2310 0a28 07       		.byte	0x7
 2311 0a29 F202     		.2byte	0x2f2
 2312 0a2b 97000000 		.4byte	0x97
 2313 0a2f 1A       		.byte	0x1a
 2314 0a30 0A       		.uleb128 0xa
 2315 0a31 38080000 		.4byte	.LASF182
ARM GAS  C:\Users\inspiron\AppData\Local\Temp\cc3AwUZg.s 			page 70


 2316 0a35 07       		.byte	0x7
 2317 0a36 FC02     		.2byte	0x2fc
 2318 0a38 97000000 		.4byte	0x97
 2319 0a3c 1B       		.byte	0x1b
 2320 0a3d 0A       		.uleb128 0xa
 2321 0a3e 340E0000 		.4byte	.LASF183
 2322 0a42 07       		.byte	0x7
 2323 0a43 0403     		.2byte	0x304
 2324 0a45 97000000 		.4byte	0x97
 2325 0a49 1C       		.byte	0x1c
 2326 0a4a 0A       		.uleb128 0xa
 2327 0a4b D50A0000 		.4byte	.LASF184
 2328 0a4f 07       		.byte	0x7
 2329 0a50 0903     		.2byte	0x309
 2330 0a52 A3000000 		.4byte	0xa3
 2331 0a56 1E       		.byte	0x1e
 2332 0a57 0A       		.uleb128 0xa
 2333 0a58 430F0000 		.4byte	.LASF185
 2334 0a5c 07       		.byte	0x7
 2335 0a5d 0E03     		.2byte	0x30e
 2336 0a5f A3000000 		.4byte	0xa3
 2337 0a63 20       		.byte	0x20
 2338 0a64 0A       		.uleb128 0xa
 2339 0a65 1B0D0000 		.4byte	.LASF186
 2340 0a69 07       		.byte	0x7
 2341 0a6a 1703     		.2byte	0x317
 2342 0a6c AF000000 		.4byte	0xaf
 2343 0a70 24       		.byte	0x24
 2344 0a71 0A       		.uleb128 0xa
 2345 0a72 C10A0000 		.4byte	.LASF187
 2346 0a76 07       		.byte	0x7
 2347 0a77 2003     		.2byte	0x320
 2348 0a79 AF000000 		.4byte	0xaf
 2349 0a7d 28       		.byte	0x28
 2350 0a7e 0A       		.uleb128 0xa
 2351 0a7f 2A0F0000 		.4byte	.LASF188
 2352 0a83 07       		.byte	0x7
 2353 0a84 2503     		.2byte	0x325
 2354 0a86 B90A0000 		.4byte	0xab9
 2355 0a8a 2C       		.byte	0x2c
 2356 0a8b 0A       		.uleb128 0xa
 2357 0a8c 400D0000 		.4byte	.LASF189
 2358 0a90 07       		.byte	0x7
 2359 0a91 2C03     		.2byte	0x32c
 2360 0a93 05010000 		.4byte	0x105
 2361 0a97 30       		.byte	0x30
 2362 0a98 0A       		.uleb128 0xa
 2363 0a99 7C030000 		.4byte	.LASF190
 2364 0a9d 07       		.byte	0x7
 2365 0a9e 3103     		.2byte	0x331
 2366 0aa0 97000000 		.4byte	0x97
 2367 0aa4 34       		.byte	0x34
 2368 0aa5 00       		.byte	0
 2369 0aa6 14       		.uleb128 0x14
 2370 0aa7 04       		.byte	0x4
 2371 0aa8 AC0A0000 		.4byte	0xaac
 2372 0aac 15       		.uleb128 0x15
ARM GAS  C:\Users\inspiron\AppData\Local\Temp\cc3AwUZg.s 			page 71


 2373 0aad 14       		.uleb128 0x14
 2374 0aae 04       		.byte	0x4
 2375 0aaf E9060000 		.4byte	0x6e9
 2376 0ab3 14       		.uleb128 0x14
 2377 0ab4 04       		.byte	0x4
 2378 0ab5 97000000 		.4byte	0x97
 2379 0ab9 14       		.uleb128 0x14
 2380 0aba 04       		.byte	0x4
 2381 0abb B3090000 		.4byte	0x9b3
 2382 0abf 05       		.uleb128 0x5
 2383 0ac0 6B060000 		.4byte	.LASF191
 2384 0ac4 07       		.byte	0x7
 2385 0ac5 3203     		.2byte	0x332
 2386 0ac7 BF090000 		.4byte	0x9bf
 2387 0acb 0E       		.uleb128 0xe
 2388 0acc 38       		.byte	0x38
 2389 0acd 07       		.byte	0x7
 2390 0ace 3803     		.2byte	0x338
 2391 0ad0 E20A0000 		.4byte	0xae2
 2392 0ad4 0A       		.uleb128 0xa
 2393 0ad5 9D0F0000 		.4byte	.LASF192
 2394 0ad9 07       		.byte	0x7
 2395 0ada 3D03     		.2byte	0x33d
 2396 0adc E20A0000 		.4byte	0xae2
 2397 0ae0 00       		.byte	0
 2398 0ae1 00       		.byte	0
 2399 0ae2 0F       		.uleb128 0xf
 2400 0ae3 BF0A0000 		.4byte	0xabf
 2401 0ae7 F20A0000 		.4byte	0xaf2
 2402 0aeb 10       		.uleb128 0x10
 2403 0aec FE000000 		.4byte	0xfe
 2404 0af0 00       		.byte	0
 2405 0af1 00       		.byte	0
 2406 0af2 05       		.uleb128 0x5
 2407 0af3 7A080000 		.4byte	.LASF193
 2408 0af7 07       		.byte	0x7
 2409 0af8 3E03     		.2byte	0x33e
 2410 0afa CB0A0000 		.4byte	0xacb
 2411 0afe 0E       		.uleb128 0xe
 2412 0aff 02       		.byte	0x2
 2413 0b00 07       		.byte	0x7
 2414 0b01 9503     		.2byte	0x395
 2415 0b03 150B0000 		.4byte	0xb15
 2416 0b07 0A       		.uleb128 0xa
 2417 0b08 04080000 		.4byte	.LASF194
 2418 0b0c 07       		.byte	0x7
 2419 0b0d A903     		.2byte	0x3a9
 2420 0b0f A3000000 		.4byte	0xa3
 2421 0b13 00       		.byte	0
 2422 0b14 00       		.byte	0
 2423 0b15 05       		.uleb128 0x5
 2424 0b16 52020000 		.4byte	.LASF195
 2425 0b1a 07       		.byte	0x7
 2426 0b1b AF03     		.2byte	0x3af
 2427 0b1d FE0A0000 		.4byte	0xafe
 2428 0b21 0E       		.uleb128 0xe
 2429 0b22 04       		.byte	0x4
ARM GAS  C:\Users\inspiron\AppData\Local\Temp\cc3AwUZg.s 			page 72


 2430 0b23 07       		.byte	0x7
 2431 0b24 B103     		.2byte	0x3b1
 2432 0b26 450B0000 		.4byte	0xb45
 2433 0b2a 0A       		.uleb128 0xa
 2434 0b2b 4F0D0000 		.4byte	.LASF196
 2435 0b2f 07       		.byte	0x7
 2436 0b30 B303     		.2byte	0x3b3
 2437 0b32 150B0000 		.4byte	0xb15
 2438 0b36 00       		.byte	0
 2439 0b37 0A       		.uleb128 0xa
 2440 0b38 18070000 		.4byte	.LASF197
 2441 0b3c 07       		.byte	0x7
 2442 0b3d B403     		.2byte	0x3b4
 2443 0b3f 150B0000 		.4byte	0xb15
 2444 0b43 02       		.byte	0x2
 2445 0b44 00       		.byte	0
 2446 0b45 05       		.uleb128 0x5
 2447 0b46 F30B0000 		.4byte	.LASF198
 2448 0b4a 07       		.byte	0x7
 2449 0b4b B503     		.2byte	0x3b5
 2450 0b4d 210B0000 		.4byte	0xb21
 2451 0b51 0E       		.uleb128 0xe
 2452 0b52 08       		.byte	0x8
 2453 0b53 01       		.byte	0x1
 2454 0b54 EB01     		.2byte	0x1eb
 2455 0b56 B50B0000 		.4byte	0xbb5
 2456 0b5a 0A       		.uleb128 0xa
 2457 0b5b 25060000 		.4byte	.LASF199
 2458 0b5f 01       		.byte	0x1
 2459 0b60 ED01     		.2byte	0x1ed
 2460 0b62 A3000000 		.4byte	0xa3
 2461 0b66 00       		.byte	0
 2462 0b67 0A       		.uleb128 0xa
 2463 0b68 4F0F0000 		.4byte	.LASF200
 2464 0b6c 01       		.byte	0x1
 2465 0b6d EE01     		.2byte	0x1ee
 2466 0b6f 97000000 		.4byte	0x97
 2467 0b73 02       		.byte	0x2
 2468 0b74 0A       		.uleb128 0xa
 2469 0b75 A70E0000 		.4byte	.LASF201
 2470 0b79 01       		.byte	0x1
 2471 0b7a EF01     		.2byte	0x1ef
 2472 0b7c 97000000 		.4byte	0x97
 2473 0b80 03       		.byte	0x3
 2474 0b81 11       		.uleb128 0x11
 2475 0b82 63726300 		.ascii	"crc\000"
 2476 0b86 01       		.byte	0x1
 2477 0b87 F001     		.2byte	0x1f0
 2478 0b89 97000000 		.4byte	0x97
 2479 0b8d 04       		.byte	0x4
 2480 0b8e 0A       		.uleb128 0xa
 2481 0b8f 820D0000 		.4byte	.LASF202
 2482 0b93 01       		.byte	0x1
 2483 0b94 F101     		.2byte	0x1f1
 2484 0b96 97000000 		.4byte	0x97
 2485 0b9a 05       		.byte	0x5
 2486 0b9b 11       		.uleb128 0x11
ARM GAS  C:\Users\inspiron\AppData\Local\Temp\cc3AwUZg.s 			page 73


 2487 0b9c 727700   		.ascii	"rw\000"
 2488 0b9f 01       		.byte	0x1
 2489 0ba0 F201     		.2byte	0x1f2
 2490 0ba2 97000000 		.4byte	0x97
 2491 0ba6 06       		.byte	0x6
 2492 0ba7 0A       		.uleb128 0xa
 2493 0ba8 6F0D0000 		.4byte	.LASF203
 2494 0bac 01       		.byte	0x1
 2495 0bad F301     		.2byte	0x1f3
 2496 0baf 97000000 		.4byte	0x97
 2497 0bb3 07       		.byte	0x7
 2498 0bb4 00       		.byte	0
 2499 0bb5 05       		.uleb128 0x5
 2500 0bb6 800A0000 		.4byte	.LASF204
 2501 0bba 01       		.byte	0x1
 2502 0bbb F401     		.2byte	0x1f4
 2503 0bbd 510B0000 		.4byte	0xb51
 2504 0bc1 16       		.uleb128 0x16
 2505 0bc2 09020000 		.4byte	.LASF241
 2506 0bc6 01       		.byte	0x1
 2507 0bc7 ED02     		.2byte	0x2ed
 2508 0bc9 D0000000 		.4byte	0xd0
 2509 0bcd 00000000 		.4byte	.LFB2
 2510 0bd1 80000000 		.4byte	.LFE2-.LFB2
 2511 0bd5 01       		.uleb128 0x1
 2512 0bd6 9C       		.byte	0x9c
 2513 0bd7 0A0C0000 		.4byte	0xc0a
 2514 0bdb 17       		.uleb128 0x17
 2515 0bdc C6000000 		.4byte	.LASF205
 2516 0be0 01       		.byte	0x1
 2517 0be1 ED02     		.2byte	0x2ed
 2518 0be3 AF000000 		.4byte	0xaf
 2519 0be7 00000000 		.4byte	.LLST0
 2520 0beb 18       		.uleb128 0x18
 2521 0bec 2C060000 		.4byte	.LASF206
 2522 0bf0 01       		.byte	0x1
 2523 0bf1 ED02     		.2byte	0x2ed
 2524 0bf3 0A0C0000 		.4byte	0xc0a
 2525 0bf7 01       		.uleb128 0x1
 2526 0bf8 51       		.byte	0x51
 2527 0bf9 19       		.uleb128 0x19
 2528 0bfa FF040000 		.4byte	.LASF207
 2529 0bfe 01       		.byte	0x1
 2530 0bff EF02     		.2byte	0x2ef
 2531 0c01 D0000000 		.4byte	0xd0
 2532 0c05 21000000 		.4byte	.LLST1
 2533 0c09 00       		.byte	0
 2534 0c0a 14       		.uleb128 0x14
 2535 0c0b 04       		.byte	0x4
 2536 0c0c B50B0000 		.4byte	0xbb5
 2537 0c10 1A       		.uleb128 0x1a
 2538 0c11 640B0000 		.4byte	.LASF242
 2539 0c15 01       		.byte	0x1
 2540 0c16 1402     		.2byte	0x214
 2541 0c18 00000000 		.4byte	.LFB1
 2542 0c1c A0000000 		.4byte	.LFE1-.LFB1
 2543 0c20 01       		.uleb128 0x1
ARM GAS  C:\Users\inspiron\AppData\Local\Temp\cc3AwUZg.s 			page 74


 2544 0c21 9C       		.byte	0x9c
 2545 0c22 B70C0000 		.4byte	0xcb7
 2546 0c26 19       		.uleb128 0x19
 2547 0c27 D80B0000 		.4byte	.LASF208
 2548 0c2b 01       		.byte	0x1
 2549 0c2c 1A02     		.2byte	0x21a
 2550 0c2e AF000000 		.4byte	0xaf
 2551 0c32 6D000000 		.4byte	.LLST2
 2552 0c36 19       		.uleb128 0x19
 2553 0c37 A7000000 		.4byte	.LASF209
 2554 0c3b 01       		.byte	0x1
 2555 0c3c 1B02     		.2byte	0x21b
 2556 0c3e AF000000 		.4byte	0xaf
 2557 0c42 A1000000 		.4byte	.LLST3
 2558 0c46 19       		.uleb128 0x19
 2559 0c47 180C0000 		.4byte	.LASF210
 2560 0c4b 01       		.byte	0x1
 2561 0c4c 1C02     		.2byte	0x21c
 2562 0c4e AD0A0000 		.4byte	0xaad
 2563 0c52 E3000000 		.4byte	.LLST4
 2564 0c56 19       		.uleb128 0x19
 2565 0c57 880D0000 		.4byte	.LASF211
 2566 0c5b 01       		.byte	0x1
 2567 0c5c 1D02     		.2byte	0x21d
 2568 0c5e B70C0000 		.4byte	0xcb7
 2569 0c62 F6000000 		.4byte	.LLST5
 2570 0c66 19       		.uleb128 0x19
 2571 0c67 B6090000 		.4byte	.LASF212
 2572 0c6b 01       		.byte	0x1
 2573 0c6c 2602     		.2byte	0x226
 2574 0c6e C20C0000 		.4byte	0xcc2
 2575 0c72 19010000 		.4byte	.LLST6
 2576 0c76 1B       		.uleb128 0x1b
 2577 0c77 10000000 		.4byte	.LVL13
 2578 0c7b BE100000 		.4byte	0x10be
 2579 0c7f 960C0000 		.4byte	0xc96
 2580 0c83 1C       		.uleb128 0x1c
 2581 0c84 01       		.uleb128 0x1
 2582 0c85 50       		.byte	0x50
 2583 0c86 02       		.uleb128 0x2
 2584 0c87 74       		.byte	0x74
 2585 0c88 00       		.sleb128 0
 2586 0c89 1C       		.uleb128 0x1c
 2587 0c8a 01       		.uleb128 0x1
 2588 0c8b 51       		.byte	0x51
 2589 0c8c 01       		.uleb128 0x1
 2590 0c8d 30       		.byte	0x30
 2591 0c8e 1C       		.uleb128 0x1c
 2592 0c8f 01       		.uleb128 0x1
 2593 0c90 52       		.byte	0x52
 2594 0c91 03       		.uleb128 0x3
 2595 0c92 0A       		.byte	0xa
 2596 0c93 8802     		.2byte	0x288
 2597 0c95 00       		.byte	0
 2598 0c96 1D       		.uleb128 0x1d
 2599 0c97 58000000 		.4byte	.LVL14
 2600 0c9b C7100000 		.4byte	0x10c7
ARM GAS  C:\Users\inspiron\AppData\Local\Temp\cc3AwUZg.s 			page 75


 2601 0c9f 1C       		.uleb128 0x1c
 2602 0ca0 01       		.uleb128 0x1
 2603 0ca1 50       		.byte	0x50
 2604 0ca2 03       		.uleb128 0x3
 2605 0ca3 74       		.byte	0x74
 2606 0ca4 A204     		.sleb128 546
 2607 0ca6 1C       		.uleb128 0x1c
 2608 0ca7 01       		.uleb128 0x1
 2609 0ca8 51       		.byte	0x51
 2610 0ca9 05       		.uleb128 0x5
 2611 0caa 03       		.byte	0x3
 2612 0cab 84000000 		.4byte	.LANCHOR1+4
 2613 0caf 1C       		.uleb128 0x1c
 2614 0cb0 01       		.uleb128 0x1
 2615 0cb1 52       		.byte	0x52
 2616 0cb2 02       		.uleb128 0x2
 2617 0cb3 08       		.byte	0x8
 2618 0cb4 56       		.byte	0x56
 2619 0cb5 00       		.byte	0
 2620 0cb6 00       		.byte	0
 2621 0cb7 14       		.uleb128 0x14
 2622 0cb8 04       		.byte	0x4
 2623 0cb9 BD0C0000 		.4byte	0xcbd
 2624 0cbd 1E       		.uleb128 0x1e
 2625 0cbe BF0A0000 		.4byte	0xabf
 2626 0cc2 14       		.uleb128 0x14
 2627 0cc3 04       		.byte	0x4
 2628 0cc4 C80C0000 		.4byte	0xcc8
 2629 0cc8 1E       		.uleb128 0x1e
 2630 0cc9 97000000 		.4byte	0x97
 2631 0ccd 1F       		.uleb128 0x1f
 2632 0cce 5A070000 		.4byte	.LASF218
 2633 0cd2 01       		.byte	0x1
 2634 0cd3 AB03     		.2byte	0x3ab
 2635 0cd5 D0000000 		.4byte	0xd0
 2636 0cd9 00000000 		.4byte	.LFB3
 2637 0cdd 60000000 		.4byte	.LFE3-.LFB3
 2638 0ce1 01       		.uleb128 0x1
 2639 0ce2 9C       		.byte	0x9c
 2640 0ce3 9B0D0000 		.4byte	0xd9b
 2641 0ce7 17       		.uleb128 0x17
 2642 0ce8 C6000000 		.4byte	.LASF205
 2643 0cec 01       		.byte	0x1
 2644 0ced AB03     		.2byte	0x3ab
 2645 0cef AF000000 		.4byte	0xaf
 2646 0cf3 3C010000 		.4byte	.LLST7
 2647 0cf7 17       		.uleb128 0x17
 2648 0cf8 92050000 		.4byte	.LASF213
 2649 0cfc 01       		.byte	0x1
 2650 0cfd AB03     		.2byte	0x3ab
 2651 0cff 9B0D0000 		.4byte	0xd9b
 2652 0d03 5D010000 		.4byte	.LLST8
 2653 0d07 20       		.uleb128 0x20
 2654 0d08 2C060000 		.4byte	.LASF206
 2655 0d0c 01       		.byte	0x1
 2656 0d0d AD03     		.2byte	0x3ad
 2657 0d0f B50B0000 		.4byte	0xbb5
ARM GAS  C:\Users\inspiron\AppData\Local\Temp\cc3AwUZg.s 			page 76


 2658 0d13 02       		.uleb128 0x2
 2659 0d14 91       		.byte	0x91
 2660 0d15 68       		.sleb128 -24
 2661 0d16 19       		.uleb128 0x19
 2662 0d17 FF040000 		.4byte	.LASF207
 2663 0d1b 01       		.byte	0x1
 2664 0d1c AE03     		.2byte	0x3ae
 2665 0d1e D0000000 		.4byte	0xd0
 2666 0d22 89010000 		.4byte	.LLST9
 2667 0d26 21       		.uleb128 0x21
 2668 0d27 04       		.byte	0x4
 2669 0d28 01       		.byte	0x1
 2670 0d29 B003     		.2byte	0x3b0
 2671 0d2b 600D0000 		.4byte	0xd60
 2672 0d2f 22       		.uleb128 0x22
 2673 0d30 70747200 		.ascii	"ptr\000"
 2674 0d34 01       		.byte	0x1
 2675 0d35 B203     		.2byte	0x3b2
 2676 0d37 A10D0000 		.4byte	0xda1
 2677 0d3b 23       		.uleb128 0x23
 2678 0d3c 45070000 		.4byte	.LASF214
 2679 0d40 01       		.byte	0x1
 2680 0d41 B303     		.2byte	0x3b3
 2681 0d43 AD0D0000 		.4byte	0xdad
 2682 0d47 23       		.uleb128 0x23
 2683 0d48 CB070000 		.4byte	.LASF215
 2684 0d4c 01       		.byte	0x1
 2685 0d4d B403     		.2byte	0x3b4
 2686 0d4f B80D0000 		.4byte	0xdb8
 2687 0d53 23       		.uleb128 0x23
 2688 0d54 AC090000 		.4byte	.LASF216
 2689 0d58 01       		.byte	0x1
 2690 0d59 B503     		.2byte	0x3b5
 2691 0d5b C80D0000 		.4byte	0xdc8
 2692 0d5f 00       		.byte	0
 2693 0d60 19       		.uleb128 0x19
 2694 0d61 420E0000 		.4byte	.LASF217
 2695 0d65 01       		.byte	0x1
 2696 0d66 B603     		.2byte	0x3b6
 2697 0d68 260D0000 		.4byte	0xd26
 2698 0d6c B2010000 		.4byte	.LLST10
 2699 0d70 1B       		.uleb128 0x1b
 2700 0d71 0C000000 		.4byte	.LVL30
 2701 0d75 C10B0000 		.4byte	0xbc1
 2702 0d79 8B0D0000 		.4byte	0xd8b
 2703 0d7d 1C       		.uleb128 0x1c
 2704 0d7e 01       		.uleb128 0x1
 2705 0d7f 50       		.byte	0x50
 2706 0d80 03       		.uleb128 0x3
 2707 0d81 F3       		.byte	0xf3
 2708 0d82 01       		.uleb128 0x1
 2709 0d83 50       		.byte	0x50
 2710 0d84 1C       		.uleb128 0x1c
 2711 0d85 01       		.uleb128 0x1
 2712 0d86 51       		.byte	0x51
 2713 0d87 02       		.uleb128 0x2
 2714 0d88 7D       		.byte	0x7d
ARM GAS  C:\Users\inspiron\AppData\Local\Temp\cc3AwUZg.s 			page 77


 2715 0d89 00       		.sleb128 0
 2716 0d8a 00       		.byte	0
 2717 0d8b 1D       		.uleb128 0x1d
 2718 0d8c 50000000 		.4byte	.LVL36
 2719 0d90 D0100000 		.4byte	0x10d0
 2720 0d94 1C       		.uleb128 0x1c
 2721 0d95 01       		.uleb128 0x1
 2722 0d96 50       		.byte	0x50
 2723 0d97 01       		.uleb128 0x1
 2724 0d98 30       		.byte	0x30
 2725 0d99 00       		.byte	0
 2726 0d9a 00       		.byte	0
 2727 0d9b 14       		.uleb128 0x14
 2728 0d9c 04       		.byte	0x4
 2729 0d9d AF000000 		.4byte	0xaf
 2730 0da1 14       		.uleb128 0x14
 2731 0da2 04       		.byte	0x4
 2732 0da3 A80D0000 		.4byte	0xda8
 2733 0da7 24       		.uleb128 0x24
 2734 0da8 1E       		.uleb128 0x1e
 2735 0da9 A70D0000 		.4byte	0xda7
 2736 0dad 14       		.uleb128 0x14
 2737 0dae 04       		.byte	0x4
 2738 0daf B30D0000 		.4byte	0xdb3
 2739 0db3 06       		.uleb128 0x6
 2740 0db4 C80C0000 		.4byte	0xcc8
 2741 0db8 14       		.uleb128 0x14
 2742 0db9 04       		.byte	0x4
 2743 0dba C30D0000 		.4byte	0xdc3
 2744 0dbe 1E       		.uleb128 0x1e
 2745 0dbf A3000000 		.4byte	0xa3
 2746 0dc3 06       		.uleb128 0x6
 2747 0dc4 BE0D0000 		.4byte	0xdbe
 2748 0dc8 14       		.uleb128 0x14
 2749 0dc9 04       		.byte	0x4
 2750 0dca CE0D0000 		.4byte	0xdce
 2751 0dce 1E       		.uleb128 0x1e
 2752 0dcf F2000000 		.4byte	0xf2
 2753 0dd3 1F       		.uleb128 0x1f
 2754 0dd4 C60B0000 		.4byte	.LASF219
 2755 0dd8 01       		.byte	0x1
 2756 0dd9 1704     		.2byte	0x417
 2757 0ddb D0000000 		.4byte	0xd0
 2758 0ddf 00000000 		.4byte	.LFB4
 2759 0de3 58000000 		.4byte	.LFE4-.LFB4
 2760 0de7 01       		.uleb128 0x1
 2761 0de8 9C       		.byte	0x9c
 2762 0de9 9D0E0000 		.4byte	0xe9d
 2763 0ded 17       		.uleb128 0x17
 2764 0dee C6000000 		.4byte	.LASF205
 2765 0df2 01       		.byte	0x1
 2766 0df3 1704     		.2byte	0x417
 2767 0df5 AF000000 		.4byte	0xaf
 2768 0df9 C5010000 		.4byte	.LLST11
 2769 0dfd 17       		.uleb128 0x17
 2770 0dfe 92050000 		.4byte	.LASF213
 2771 0e02 01       		.byte	0x1
ARM GAS  C:\Users\inspiron\AppData\Local\Temp\cc3AwUZg.s 			page 78


 2772 0e03 1704     		.2byte	0x417
 2773 0e05 AF000000 		.4byte	0xaf
 2774 0e09 E6010000 		.4byte	.LLST12
 2775 0e0d 19       		.uleb128 0x19
 2776 0e0e FF040000 		.4byte	.LASF207
 2777 0e12 01       		.byte	0x1
 2778 0e13 1904     		.2byte	0x419
 2779 0e15 D0000000 		.4byte	0xd0
 2780 0e19 44020000 		.4byte	.LLST13
 2781 0e1d 20       		.uleb128 0x20
 2782 0e1e 2C060000 		.4byte	.LASF206
 2783 0e22 01       		.byte	0x1
 2784 0e23 1A04     		.2byte	0x41a
 2785 0e25 B50B0000 		.4byte	0xbb5
 2786 0e29 02       		.uleb128 0x2
 2787 0e2a 91       		.byte	0x91
 2788 0e2b 68       		.sleb128 -24
 2789 0e2c 21       		.uleb128 0x21
 2790 0e2d 04       		.byte	0x4
 2791 0e2e 01       		.byte	0x1
 2792 0e2f 1C04     		.2byte	0x41c
 2793 0e31 660E0000 		.4byte	0xe66
 2794 0e35 22       		.uleb128 0x22
 2795 0e36 70747200 		.ascii	"ptr\000"
 2796 0e3a 01       		.byte	0x1
 2797 0e3b 1E04     		.2byte	0x41e
 2798 0e3d 9D0E0000 		.4byte	0xe9d
 2799 0e41 23       		.uleb128 0x23
 2800 0e42 45070000 		.4byte	.LASF214
 2801 0e46 01       		.byte	0x1
 2802 0e47 1F04     		.2byte	0x41f
 2803 0e49 A30E0000 		.4byte	0xea3
 2804 0e4d 23       		.uleb128 0x23
 2805 0e4e CB070000 		.4byte	.LASF215
 2806 0e52 01       		.byte	0x1
 2807 0e53 2004     		.2byte	0x420
 2808 0e55 A90E0000 		.4byte	0xea9
 2809 0e59 23       		.uleb128 0x23
 2810 0e5a AC090000 		.4byte	.LASF216
 2811 0e5e 01       		.byte	0x1
 2812 0e5f 2104     		.2byte	0x421
 2813 0e61 AF0E0000 		.4byte	0xeaf
 2814 0e65 00       		.byte	0
 2815 0e66 25       		.uleb128 0x25
 2816 0e67 420E0000 		.4byte	.LASF217
 2817 0e6b 01       		.byte	0x1
 2818 0e6c 2204     		.2byte	0x422
 2819 0e6e 2C0E0000 		.4byte	0xe2c
 2820 0e72 1B       		.uleb128 0x1b
 2821 0e73 0C000000 		.4byte	.LVL41
 2822 0e77 C10B0000 		.4byte	0xbc1
 2823 0e7b 8D0E0000 		.4byte	0xe8d
 2824 0e7f 1C       		.uleb128 0x1c
 2825 0e80 01       		.uleb128 0x1
 2826 0e81 50       		.byte	0x50
 2827 0e82 03       		.uleb128 0x3
 2828 0e83 F3       		.byte	0xf3
ARM GAS  C:\Users\inspiron\AppData\Local\Temp\cc3AwUZg.s 			page 79


 2829 0e84 01       		.uleb128 0x1
 2830 0e85 50       		.byte	0x50
 2831 0e86 1C       		.uleb128 0x1c
 2832 0e87 01       		.uleb128 0x1
 2833 0e88 51       		.byte	0x51
 2834 0e89 02       		.uleb128 0x2
 2835 0e8a 7D       		.byte	0x7d
 2836 0e8b 00       		.sleb128 0
 2837 0e8c 00       		.byte	0
 2838 0e8d 1D       		.uleb128 0x1d
 2839 0e8e 4C000000 		.4byte	.LVL48
 2840 0e92 D0100000 		.4byte	0x10d0
 2841 0e96 1C       		.uleb128 0x1c
 2842 0e97 01       		.uleb128 0x1
 2843 0e98 50       		.byte	0x50
 2844 0e99 01       		.uleb128 0x1
 2845 0e9a 30       		.byte	0x30
 2846 0e9b 00       		.byte	0
 2847 0e9c 00       		.byte	0
 2848 0e9d 14       		.uleb128 0x14
 2849 0e9e 04       		.byte	0x4
 2850 0e9f A70D0000 		.4byte	0xda7
 2851 0ea3 14       		.uleb128 0x14
 2852 0ea4 04       		.byte	0x4
 2853 0ea5 DC000000 		.4byte	0xdc
 2854 0ea9 14       		.uleb128 0x14
 2855 0eaa 04       		.byte	0x4
 2856 0eab E1000000 		.4byte	0xe1
 2857 0eaf 14       		.uleb128 0x14
 2858 0eb0 04       		.byte	0x4
 2859 0eb1 F2000000 		.4byte	0xf2
 2860 0eb5 1F       		.uleb128 0x1f
 2861 0eb6 2A070000 		.4byte	.LASF220
 2862 0eba 01       		.byte	0x1
 2863 0ebb 7804     		.2byte	0x478
 2864 0ebd AF000000 		.4byte	0xaf
 2865 0ec1 00000000 		.4byte	.LFB5
 2866 0ec5 20000000 		.4byte	.LFE5-.LFB5
 2867 0ec9 01       		.uleb128 0x1
 2868 0eca 9C       		.byte	0x9c
 2869 0ecb F00E0000 		.4byte	0xef0
 2870 0ecf 19       		.uleb128 0x19
 2871 0ed0 FF040000 		.4byte	.LASF207
 2872 0ed4 01       		.byte	0x1
 2873 0ed5 7A04     		.2byte	0x47a
 2874 0ed7 AF000000 		.4byte	0xaf
 2875 0edb 6D020000 		.4byte	.LLST14
 2876 0edf 19       		.uleb128 0x19
 2877 0ee0 5D080000 		.4byte	.LASF221
 2878 0ee4 01       		.byte	0x1
 2879 0ee5 7B04     		.2byte	0x47b
 2880 0ee7 AF000000 		.4byte	0xaf
 2881 0eeb 8C020000 		.4byte	.LLST15
 2882 0eef 00       		.byte	0
 2883 0ef0 1F       		.uleb128 0x1f
 2884 0ef1 AE000000 		.4byte	.LASF222
 2885 0ef5 01       		.byte	0x1
ARM GAS  C:\Users\inspiron\AppData\Local\Temp\cc3AwUZg.s 			page 80


 2886 0ef6 A004     		.2byte	0x4a0
 2887 0ef8 AF000000 		.4byte	0xaf
 2888 0efc 00000000 		.4byte	.LFB6
 2889 0f00 24000000 		.4byte	.LFE6-.LFB6
 2890 0f04 01       		.uleb128 0x1
 2891 0f05 9C       		.byte	0x9c
 2892 0f06 2B0F0000 		.4byte	0xf2b
 2893 0f0a 17       		.uleb128 0x17
 2894 0f0b 4F0F0000 		.4byte	.LASF200
 2895 0f0f 01       		.byte	0x1
 2896 0f10 A004     		.2byte	0x4a0
 2897 0f12 AF000000 		.4byte	0xaf
 2898 0f16 C1020000 		.4byte	.LLST16
 2899 0f1a 19       		.uleb128 0x19
 2900 0f1b FF040000 		.4byte	.LASF207
 2901 0f1f 01       		.byte	0x1
 2902 0f20 A204     		.2byte	0x4a2
 2903 0f22 AF000000 		.4byte	0xaf
 2904 0f26 FB020000 		.4byte	.LLST17
 2905 0f2a 00       		.byte	0
 2906 0f2b 1F       		.uleb128 0x1f
 2907 0f2c 290A0000 		.4byte	.LASF223
 2908 0f30 01       		.byte	0x1
 2909 0f31 D204     		.2byte	0x4d2
 2910 0f33 AF000000 		.4byte	0xaf
 2911 0f37 00000000 		.4byte	.LFB7
 2912 0f3b 34000000 		.4byte	.LFE7-.LFB7
 2913 0f3f 01       		.uleb128 0x1
 2914 0f40 9C       		.byte	0x9c
 2915 0f41 740F0000 		.4byte	0xf74
 2916 0f45 17       		.uleb128 0x17
 2917 0f46 4F0F0000 		.4byte	.LASF200
 2918 0f4a 01       		.byte	0x1
 2919 0f4b D204     		.2byte	0x4d2
 2920 0f4d AF000000 		.4byte	0xaf
 2921 0f51 31030000 		.4byte	.LLST18
 2922 0f55 18       		.uleb128 0x18
 2923 0f56 C0030000 		.4byte	.LASF224
 2924 0f5a 01       		.byte	0x1
 2925 0f5b D204     		.2byte	0x4d2
 2926 0f5d AF000000 		.4byte	0xaf
 2927 0f61 01       		.uleb128 0x1
 2928 0f62 51       		.byte	0x51
 2929 0f63 19       		.uleb128 0x19
 2930 0f64 FF040000 		.4byte	.LASF207
 2931 0f68 01       		.byte	0x1
 2932 0f69 D404     		.2byte	0x4d4
 2933 0f6b AF000000 		.4byte	0xaf
 2934 0f6f 84030000 		.4byte	.LLST19
 2935 0f73 00       		.byte	0
 2936 0f74 1F       		.uleb128 0x1f
 2937 0f75 C0050000 		.4byte	.LASF225
 2938 0f79 01       		.byte	0x1
 2939 0f7a D505     		.2byte	0x5d5
 2940 0f7c AF000000 		.4byte	0xaf
 2941 0f80 00000000 		.4byte	.LFB8
 2942 0f84 40000000 		.4byte	.LFE8-.LFB8
ARM GAS  C:\Users\inspiron\AppData\Local\Temp\cc3AwUZg.s 			page 81


 2943 0f88 01       		.uleb128 0x1
 2944 0f89 9C       		.byte	0x9c
 2945 0f8a DF0F0000 		.4byte	0xfdf
 2946 0f8e 17       		.uleb128 0x17
 2947 0f8f 4F0F0000 		.4byte	.LASF200
 2948 0f93 01       		.byte	0x1
 2949 0f94 D505     		.2byte	0x5d5
 2950 0f96 AF000000 		.4byte	0xaf
 2951 0f9a BA030000 		.4byte	.LLST20
 2952 0f9e 19       		.uleb128 0x19
 2953 0f9f 880D0000 		.4byte	.LASF211
 2954 0fa3 01       		.byte	0x1
 2955 0fa4 D705     		.2byte	0x5d7
 2956 0fa6 B70C0000 		.4byte	0xcb7
 2957 0faa F4030000 		.4byte	.LLST21
 2958 0fae 19       		.uleb128 0x19
 2959 0faf 11000000 		.4byte	.LASF226
 2960 0fb3 01       		.byte	0x1
 2961 0fb4 DE05     		.2byte	0x5de
 2962 0fb6 DF0F0000 		.4byte	0xfdf
 2963 0fba 35040000 		.4byte	.LLST22
 2964 0fbe 19       		.uleb128 0x19
 2965 0fbf 3C0E0000 		.4byte	.LASF227
 2966 0fc3 01       		.byte	0x1
 2967 0fc4 E105     		.2byte	0x5e1
 2968 0fc6 D0000000 		.4byte	0xd0
 2969 0fca 48040000 		.4byte	.LLST23
 2970 0fce 19       		.uleb128 0x19
 2971 0fcf FF040000 		.4byte	.LASF207
 2972 0fd3 01       		.byte	0x1
 2973 0fd4 E205     		.2byte	0x5e2
 2974 0fd6 AF000000 		.4byte	0xaf
 2975 0fda 72040000 		.4byte	.LLST24
 2976 0fde 00       		.byte	0
 2977 0fdf 14       		.uleb128 0x14
 2978 0fe0 04       		.byte	0x4
 2979 0fe1 32060000 		.4byte	0x632
 2980 0fe5 26       		.uleb128 0x26
 2981 0fe6 8B030000 		.4byte	.LASF228
 2982 0fea 01       		.byte	0x1
 2983 0feb 56       		.byte	0x56
 2984 0fec B3090000 		.4byte	0x9b3
 2985 0ff0 05       		.uleb128 0x5
 2986 0ff1 03       		.byte	0x3
 2987 0ff2 04000000 		.4byte	CapSense_csxTouchpadData_Touchpad0
 2988 0ff6 0F       		.uleb128 0xf
 2989 0ff7 450B0000 		.4byte	0xb45
 2990 0ffb 06100000 		.4byte	0x1006
 2991 0fff 10       		.uleb128 0x10
 2992 1000 FE000000 		.4byte	0xfe
 2993 1004 00       		.byte	0
 2994 1005 00       		.byte	0
 2995 1006 26       		.uleb128 0x26
 2996 1007 0C0A0000 		.4byte	.LASF229
 2997 100b 01       		.byte	0x1
 2998 100c 5C       		.byte	0x5c
 2999 100d F60F0000 		.4byte	0xff6
ARM GAS  C:\Users\inspiron\AppData\Local\Temp\cc3AwUZg.s 			page 82


 3000 1011 05       		.uleb128 0x5
 3001 1012 03       		.byte	0x3
 3002 1013 00000000 		.4byte	CapSense_posHistoryTouchpad0
 3003 1017 27       		.uleb128 0x27
 3004 1018 7E070000 		.4byte	.LASF230
 3005 101c 01       		.byte	0x1
 3006 101d 4A       		.byte	0x4a
 3007 101e 78080000 		.4byte	0x878
 3008 1022 05       		.uleb128 0x5
 3009 1023 03       		.byte	0x3
 3010 1024 00000000 		.4byte	CapSense_dsRam
 3011 1028 27       		.uleb128 0x27
 3012 1029 420C0000 		.4byte	.LASF231
 3013 102d 01       		.byte	0x1
 3014 102e 6C       		.byte	0x6c
 3015 102f 39100000 		.4byte	0x1039
 3016 1033 05       		.uleb128 0x5
 3017 1034 03       		.byte	0x3
 3018 1035 00000000 		.4byte	CapSense_dsFlash
 3019 1039 1E       		.uleb128 0x1e
 3020 103a F20A0000 		.4byte	0xaf2
 3021 103e 0F       		.uleb128 0xf
 3022 103f 4E100000 		.4byte	0x104e
 3023 1043 4E100000 		.4byte	0x104e
 3024 1047 10       		.uleb128 0x10
 3025 1048 FE000000 		.4byte	0xfe
 3026 104c 0D       		.byte	0xd
 3027 104d 00       		.byte	0
 3028 104e 1E       		.uleb128 0x1e
 3029 104f 09090000 		.4byte	0x909
 3030 1053 27       		.uleb128 0x27
 3031 1054 C10E0000 		.4byte	.LASF232
 3032 1058 01       		.byte	0x1
 3033 1059 89       		.byte	0x89
 3034 105a 64100000 		.4byte	0x1064
 3035 105e 05       		.uleb128 0x5
 3036 105f 03       		.byte	0x3
 3037 1060 00000000 		.4byte	CapSense_ioList
 3038 1064 1E       		.uleb128 0x1e
 3039 1065 3E100000 		.4byte	0x103e
 3040 1069 28       		.uleb128 0x28
 3041 106a AB0D0000 		.4byte	.LASF233
 3042 106e 01       		.byte	0x1
 3043 106f 2D01     		.2byte	0x12d
 3044 1071 7B100000 		.4byte	0x107b
 3045 1075 05       		.uleb128 0x5
 3046 1076 03       		.byte	0x3
 3047 1077 00000000 		.4byte	CapSense_ramWidgetInit
 3048 107b 1E       		.uleb128 0x1e
 3049 107c 55060000 		.4byte	0x655
 3050 1080 0F       		.uleb128 0xf
 3051 1081 C80C0000 		.4byte	0xcc8
 3052 1085 90100000 		.4byte	0x1090
 3053 1089 10       		.uleb128 0x10
 3054 108a FE000000 		.4byte	0xfe
 3055 108e 30       		.byte	0x30
 3056 108f 00       		.byte	0
ARM GAS  C:\Users\inspiron\AppData\Local\Temp\cc3AwUZg.s 			page 83


 3057 1090 28       		.uleb128 0x28
 3058 1091 F4010000 		.4byte	.LASF234
 3059 1095 01       		.byte	0x1
 3060 1096 4801     		.2byte	0x148
 3061 1098 A2100000 		.4byte	0x10a2
 3062 109c 05       		.uleb128 0x5
 3063 109d 03       		.byte	0x3
 3064 109e 00000000 		.4byte	CapSense_ramIdacInit
 3065 10a2 1E       		.uleb128 0x1e
 3066 10a3 80100000 		.4byte	0x1080
 3067 10a7 28       		.uleb128 0x28
 3068 10a8 4B0B0000 		.4byte	.LASF235
 3069 10ac 01       		.byte	0x1
 3070 10ad 8101     		.2byte	0x181
 3071 10af B9100000 		.4byte	0x10b9
 3072 10b3 05       		.uleb128 0x5
 3073 10b4 03       		.byte	0x3
 3074 10b5 00000000 		.4byte	CapSense_ramGesturesInit
 3075 10b9 1E       		.uleb128 0x1e
 3076 10ba C6040000 		.4byte	0x4c6
 3077 10be 29       		.uleb128 0x29
 3078 10bf ED010000 		.4byte	.LASF236
 3079 10c3 ED010000 		.4byte	.LASF236
 3080 10c7 29       		.uleb128 0x29
 3081 10c8 D10E0000 		.4byte	.LASF237
 3082 10cc D10E0000 		.4byte	.LASF237
 3083 10d0 2A       		.uleb128 0x2a
 3084 10d1 B2010000 		.4byte	.LASF243
 3085 10d5 B2010000 		.4byte	.LASF243
 3086 10d9 08       		.byte	0x8
 3087 10da FA       		.byte	0xfa
 3088 10db 00       		.byte	0
 3089              		.section	.debug_abbrev,"",%progbits
 3090              	.Ldebug_abbrev0:
 3091 0000 01       		.uleb128 0x1
 3092 0001 11       		.uleb128 0x11
 3093 0002 01       		.byte	0x1
 3094 0003 25       		.uleb128 0x25
 3095 0004 0E       		.uleb128 0xe
 3096 0005 13       		.uleb128 0x13
 3097 0006 0B       		.uleb128 0xb
 3098 0007 03       		.uleb128 0x3
 3099 0008 0E       		.uleb128 0xe
 3100 0009 1B       		.uleb128 0x1b
 3101 000a 0E       		.uleb128 0xe
 3102 000b 55       		.uleb128 0x55
 3103 000c 17       		.uleb128 0x17
 3104 000d 11       		.uleb128 0x11
 3105 000e 01       		.uleb128 0x1
 3106 000f 10       		.uleb128 0x10
 3107 0010 17       		.uleb128 0x17
 3108 0011 00       		.byte	0
 3109 0012 00       		.byte	0
 3110 0013 02       		.uleb128 0x2
 3111 0014 24       		.uleb128 0x24
 3112 0015 00       		.byte	0
 3113 0016 0B       		.uleb128 0xb
ARM GAS  C:\Users\inspiron\AppData\Local\Temp\cc3AwUZg.s 			page 84


 3114 0017 0B       		.uleb128 0xb
 3115 0018 3E       		.uleb128 0x3e
 3116 0019 0B       		.uleb128 0xb
 3117 001a 03       		.uleb128 0x3
 3118 001b 0E       		.uleb128 0xe
 3119 001c 00       		.byte	0
 3120 001d 00       		.byte	0
 3121 001e 03       		.uleb128 0x3
 3122 001f 16       		.uleb128 0x16
 3123 0020 00       		.byte	0
 3124 0021 03       		.uleb128 0x3
 3125 0022 0E       		.uleb128 0xe
 3126 0023 3A       		.uleb128 0x3a
 3127 0024 0B       		.uleb128 0xb
 3128 0025 3B       		.uleb128 0x3b
 3129 0026 0B       		.uleb128 0xb
 3130 0027 49       		.uleb128 0x49
 3131 0028 13       		.uleb128 0x13
 3132 0029 00       		.byte	0
 3133 002a 00       		.byte	0
 3134 002b 04       		.uleb128 0x4
 3135 002c 24       		.uleb128 0x24
 3136 002d 00       		.byte	0
 3137 002e 0B       		.uleb128 0xb
 3138 002f 0B       		.uleb128 0xb
 3139 0030 3E       		.uleb128 0x3e
 3140 0031 0B       		.uleb128 0xb
 3141 0032 03       		.uleb128 0x3
 3142 0033 08       		.uleb128 0x8
 3143 0034 00       		.byte	0
 3144 0035 00       		.byte	0
 3145 0036 05       		.uleb128 0x5
 3146 0037 16       		.uleb128 0x16
 3147 0038 00       		.byte	0
 3148 0039 03       		.uleb128 0x3
 3149 003a 0E       		.uleb128 0xe
 3150 003b 3A       		.uleb128 0x3a
 3151 003c 0B       		.uleb128 0xb
 3152 003d 3B       		.uleb128 0x3b
 3153 003e 05       		.uleb128 0x5
 3154 003f 49       		.uleb128 0x49
 3155 0040 13       		.uleb128 0x13
 3156 0041 00       		.byte	0
 3157 0042 00       		.byte	0
 3158 0043 06       		.uleb128 0x6
 3159 0044 35       		.uleb128 0x35
 3160 0045 00       		.byte	0
 3161 0046 49       		.uleb128 0x49
 3162 0047 13       		.uleb128 0x13
 3163 0048 00       		.byte	0
 3164 0049 00       		.byte	0
 3165 004a 07       		.uleb128 0x7
 3166 004b 0F       		.uleb128 0xf
 3167 004c 00       		.byte	0
 3168 004d 0B       		.uleb128 0xb
 3169 004e 0B       		.uleb128 0xb
 3170 004f 00       		.byte	0
ARM GAS  C:\Users\inspiron\AppData\Local\Temp\cc3AwUZg.s 			page 85


 3171 0050 00       		.byte	0
 3172 0051 08       		.uleb128 0x8
 3173 0052 13       		.uleb128 0x13
 3174 0053 01       		.byte	0x1
 3175 0054 0B       		.uleb128 0xb
 3176 0055 0B       		.uleb128 0xb
 3177 0056 3A       		.uleb128 0x3a
 3178 0057 0B       		.uleb128 0xb
 3179 0058 3B       		.uleb128 0x3b
 3180 0059 0B       		.uleb128 0xb
 3181 005a 01       		.uleb128 0x1
 3182 005b 13       		.uleb128 0x13
 3183 005c 00       		.byte	0
 3184 005d 00       		.byte	0
 3185 005e 09       		.uleb128 0x9
 3186 005f 0D       		.uleb128 0xd
 3187 0060 00       		.byte	0
 3188 0061 03       		.uleb128 0x3
 3189 0062 0E       		.uleb128 0xe
 3190 0063 3A       		.uleb128 0x3a
 3191 0064 0B       		.uleb128 0xb
 3192 0065 3B       		.uleb128 0x3b
 3193 0066 0B       		.uleb128 0xb
 3194 0067 49       		.uleb128 0x49
 3195 0068 13       		.uleb128 0x13
 3196 0069 38       		.uleb128 0x38
 3197 006a 0B       		.uleb128 0xb
 3198 006b 00       		.byte	0
 3199 006c 00       		.byte	0
 3200 006d 0A       		.uleb128 0xa
 3201 006e 0D       		.uleb128 0xd
 3202 006f 00       		.byte	0
 3203 0070 03       		.uleb128 0x3
 3204 0071 0E       		.uleb128 0xe
 3205 0072 3A       		.uleb128 0x3a
 3206 0073 0B       		.uleb128 0xb
 3207 0074 3B       		.uleb128 0x3b
 3208 0075 05       		.uleb128 0x5
 3209 0076 49       		.uleb128 0x49
 3210 0077 13       		.uleb128 0x13
 3211 0078 38       		.uleb128 0x38
 3212 0079 0B       		.uleb128 0xb
 3213 007a 00       		.byte	0
 3214 007b 00       		.byte	0
 3215 007c 0B       		.uleb128 0xb
 3216 007d 04       		.uleb128 0x4
 3217 007e 01       		.byte	0x1
 3218 007f 0B       		.uleb128 0xb
 3219 0080 0B       		.uleb128 0xb
 3220 0081 49       		.uleb128 0x49
 3221 0082 13       		.uleb128 0x13
 3222 0083 3A       		.uleb128 0x3a
 3223 0084 0B       		.uleb128 0xb
 3224 0085 3B       		.uleb128 0x3b
 3225 0086 0B       		.uleb128 0xb
 3226 0087 01       		.uleb128 0x1
 3227 0088 13       		.uleb128 0x13
ARM GAS  C:\Users\inspiron\AppData\Local\Temp\cc3AwUZg.s 			page 86


 3228 0089 00       		.byte	0
 3229 008a 00       		.byte	0
 3230 008b 0C       		.uleb128 0xc
 3231 008c 28       		.uleb128 0x28
 3232 008d 00       		.byte	0
 3233 008e 03       		.uleb128 0x3
 3234 008f 0E       		.uleb128 0xe
 3235 0090 1C       		.uleb128 0x1c
 3236 0091 0B       		.uleb128 0xb
 3237 0092 00       		.byte	0
 3238 0093 00       		.byte	0
 3239 0094 0D       		.uleb128 0xd
 3240 0095 0D       		.uleb128 0xd
 3241 0096 00       		.byte	0
 3242 0097 03       		.uleb128 0x3
 3243 0098 08       		.uleb128 0x8
 3244 0099 3A       		.uleb128 0x3a
 3245 009a 0B       		.uleb128 0xb
 3246 009b 3B       		.uleb128 0x3b
 3247 009c 0B       		.uleb128 0xb
 3248 009d 49       		.uleb128 0x49
 3249 009e 13       		.uleb128 0x13
 3250 009f 38       		.uleb128 0x38
 3251 00a0 0B       		.uleb128 0xb
 3252 00a1 00       		.byte	0
 3253 00a2 00       		.byte	0
 3254 00a3 0E       		.uleb128 0xe
 3255 00a4 13       		.uleb128 0x13
 3256 00a5 01       		.byte	0x1
 3257 00a6 0B       		.uleb128 0xb
 3258 00a7 0B       		.uleb128 0xb
 3259 00a8 3A       		.uleb128 0x3a
 3260 00a9 0B       		.uleb128 0xb
 3261 00aa 3B       		.uleb128 0x3b
 3262 00ab 05       		.uleb128 0x5
 3263 00ac 01       		.uleb128 0x1
 3264 00ad 13       		.uleb128 0x13
 3265 00ae 00       		.byte	0
 3266 00af 00       		.byte	0
 3267 00b0 0F       		.uleb128 0xf
 3268 00b1 01       		.uleb128 0x1
 3269 00b2 01       		.byte	0x1
 3270 00b3 49       		.uleb128 0x49
 3271 00b4 13       		.uleb128 0x13
 3272 00b5 01       		.uleb128 0x1
 3273 00b6 13       		.uleb128 0x13
 3274 00b7 00       		.byte	0
 3275 00b8 00       		.byte	0
 3276 00b9 10       		.uleb128 0x10
 3277 00ba 21       		.uleb128 0x21
 3278 00bb 00       		.byte	0
 3279 00bc 49       		.uleb128 0x49
 3280 00bd 13       		.uleb128 0x13
 3281 00be 2F       		.uleb128 0x2f
 3282 00bf 0B       		.uleb128 0xb
 3283 00c0 00       		.byte	0
 3284 00c1 00       		.byte	0
ARM GAS  C:\Users\inspiron\AppData\Local\Temp\cc3AwUZg.s 			page 87


 3285 00c2 11       		.uleb128 0x11
 3286 00c3 0D       		.uleb128 0xd
 3287 00c4 00       		.byte	0
 3288 00c5 03       		.uleb128 0x3
 3289 00c6 08       		.uleb128 0x8
 3290 00c7 3A       		.uleb128 0x3a
 3291 00c8 0B       		.uleb128 0xb
 3292 00c9 3B       		.uleb128 0x3b
 3293 00ca 05       		.uleb128 0x5
 3294 00cb 49       		.uleb128 0x49
 3295 00cc 13       		.uleb128 0x13
 3296 00cd 38       		.uleb128 0x38
 3297 00ce 0B       		.uleb128 0xb
 3298 00cf 00       		.byte	0
 3299 00d0 00       		.byte	0
 3300 00d1 12       		.uleb128 0x12
 3301 00d2 13       		.uleb128 0x13
 3302 00d3 01       		.byte	0x1
 3303 00d4 0B       		.uleb128 0xb
 3304 00d5 05       		.uleb128 0x5
 3305 00d6 3A       		.uleb128 0x3a
 3306 00d7 0B       		.uleb128 0xb
 3307 00d8 3B       		.uleb128 0x3b
 3308 00d9 05       		.uleb128 0x5
 3309 00da 01       		.uleb128 0x1
 3310 00db 13       		.uleb128 0x13
 3311 00dc 00       		.byte	0
 3312 00dd 00       		.byte	0
 3313 00de 13       		.uleb128 0x13
 3314 00df 0D       		.uleb128 0xd
 3315 00e0 00       		.byte	0
 3316 00e1 03       		.uleb128 0x3
 3317 00e2 0E       		.uleb128 0xe
 3318 00e3 3A       		.uleb128 0x3a
 3319 00e4 0B       		.uleb128 0xb
 3320 00e5 3B       		.uleb128 0x3b
 3321 00e6 05       		.uleb128 0x5
 3322 00e7 49       		.uleb128 0x49
 3323 00e8 13       		.uleb128 0x13
 3324 00e9 38       		.uleb128 0x38
 3325 00ea 05       		.uleb128 0x5
 3326 00eb 00       		.byte	0
 3327 00ec 00       		.byte	0
 3328 00ed 14       		.uleb128 0x14
 3329 00ee 0F       		.uleb128 0xf
 3330 00ef 00       		.byte	0
 3331 00f0 0B       		.uleb128 0xb
 3332 00f1 0B       		.uleb128 0xb
 3333 00f2 49       		.uleb128 0x49
 3334 00f3 13       		.uleb128 0x13
 3335 00f4 00       		.byte	0
 3336 00f5 00       		.byte	0
 3337 00f6 15       		.uleb128 0x15
 3338 00f7 26       		.uleb128 0x26
 3339 00f8 00       		.byte	0
 3340 00f9 00       		.byte	0
 3341 00fa 00       		.byte	0
ARM GAS  C:\Users\inspiron\AppData\Local\Temp\cc3AwUZg.s 			page 88


 3342 00fb 16       		.uleb128 0x16
 3343 00fc 2E       		.uleb128 0x2e
 3344 00fd 01       		.byte	0x1
 3345 00fe 03       		.uleb128 0x3
 3346 00ff 0E       		.uleb128 0xe
 3347 0100 3A       		.uleb128 0x3a
 3348 0101 0B       		.uleb128 0xb
 3349 0102 3B       		.uleb128 0x3b
 3350 0103 05       		.uleb128 0x5
 3351 0104 27       		.uleb128 0x27
 3352 0105 19       		.uleb128 0x19
 3353 0106 49       		.uleb128 0x49
 3354 0107 13       		.uleb128 0x13
 3355 0108 11       		.uleb128 0x11
 3356 0109 01       		.uleb128 0x1
 3357 010a 12       		.uleb128 0x12
 3358 010b 06       		.uleb128 0x6
 3359 010c 40       		.uleb128 0x40
 3360 010d 18       		.uleb128 0x18
 3361 010e 9742     		.uleb128 0x2117
 3362 0110 19       		.uleb128 0x19
 3363 0111 01       		.uleb128 0x1
 3364 0112 13       		.uleb128 0x13
 3365 0113 00       		.byte	0
 3366 0114 00       		.byte	0
 3367 0115 17       		.uleb128 0x17
 3368 0116 05       		.uleb128 0x5
 3369 0117 00       		.byte	0
 3370 0118 03       		.uleb128 0x3
 3371 0119 0E       		.uleb128 0xe
 3372 011a 3A       		.uleb128 0x3a
 3373 011b 0B       		.uleb128 0xb
 3374 011c 3B       		.uleb128 0x3b
 3375 011d 05       		.uleb128 0x5
 3376 011e 49       		.uleb128 0x49
 3377 011f 13       		.uleb128 0x13
 3378 0120 02       		.uleb128 0x2
 3379 0121 17       		.uleb128 0x17
 3380 0122 00       		.byte	0
 3381 0123 00       		.byte	0
 3382 0124 18       		.uleb128 0x18
 3383 0125 05       		.uleb128 0x5
 3384 0126 00       		.byte	0
 3385 0127 03       		.uleb128 0x3
 3386 0128 0E       		.uleb128 0xe
 3387 0129 3A       		.uleb128 0x3a
 3388 012a 0B       		.uleb128 0xb
 3389 012b 3B       		.uleb128 0x3b
 3390 012c 05       		.uleb128 0x5
 3391 012d 49       		.uleb128 0x49
 3392 012e 13       		.uleb128 0x13
 3393 012f 02       		.uleb128 0x2
 3394 0130 18       		.uleb128 0x18
 3395 0131 00       		.byte	0
 3396 0132 00       		.byte	0
 3397 0133 19       		.uleb128 0x19
 3398 0134 34       		.uleb128 0x34
ARM GAS  C:\Users\inspiron\AppData\Local\Temp\cc3AwUZg.s 			page 89


 3399 0135 00       		.byte	0
 3400 0136 03       		.uleb128 0x3
 3401 0137 0E       		.uleb128 0xe
 3402 0138 3A       		.uleb128 0x3a
 3403 0139 0B       		.uleb128 0xb
 3404 013a 3B       		.uleb128 0x3b
 3405 013b 05       		.uleb128 0x5
 3406 013c 49       		.uleb128 0x49
 3407 013d 13       		.uleb128 0x13
 3408 013e 02       		.uleb128 0x2
 3409 013f 17       		.uleb128 0x17
 3410 0140 00       		.byte	0
 3411 0141 00       		.byte	0
 3412 0142 1A       		.uleb128 0x1a
 3413 0143 2E       		.uleb128 0x2e
 3414 0144 01       		.byte	0x1
 3415 0145 3F       		.uleb128 0x3f
 3416 0146 19       		.uleb128 0x19
 3417 0147 03       		.uleb128 0x3
 3418 0148 0E       		.uleb128 0xe
 3419 0149 3A       		.uleb128 0x3a
 3420 014a 0B       		.uleb128 0xb
 3421 014b 3B       		.uleb128 0x3b
 3422 014c 05       		.uleb128 0x5
 3423 014d 27       		.uleb128 0x27
 3424 014e 19       		.uleb128 0x19
 3425 014f 11       		.uleb128 0x11
 3426 0150 01       		.uleb128 0x1
 3427 0151 12       		.uleb128 0x12
 3428 0152 06       		.uleb128 0x6
 3429 0153 40       		.uleb128 0x40
 3430 0154 18       		.uleb128 0x18
 3431 0155 9742     		.uleb128 0x2117
 3432 0157 19       		.uleb128 0x19
 3433 0158 01       		.uleb128 0x1
 3434 0159 13       		.uleb128 0x13
 3435 015a 00       		.byte	0
 3436 015b 00       		.byte	0
 3437 015c 1B       		.uleb128 0x1b
 3438 015d 898201   		.uleb128 0x4109
 3439 0160 01       		.byte	0x1
 3440 0161 11       		.uleb128 0x11
 3441 0162 01       		.uleb128 0x1
 3442 0163 31       		.uleb128 0x31
 3443 0164 13       		.uleb128 0x13
 3444 0165 01       		.uleb128 0x1
 3445 0166 13       		.uleb128 0x13
 3446 0167 00       		.byte	0
 3447 0168 00       		.byte	0
 3448 0169 1C       		.uleb128 0x1c
 3449 016a 8A8201   		.uleb128 0x410a
 3450 016d 00       		.byte	0
 3451 016e 02       		.uleb128 0x2
 3452 016f 18       		.uleb128 0x18
 3453 0170 9142     		.uleb128 0x2111
 3454 0172 18       		.uleb128 0x18
 3455 0173 00       		.byte	0
ARM GAS  C:\Users\inspiron\AppData\Local\Temp\cc3AwUZg.s 			page 90


 3456 0174 00       		.byte	0
 3457 0175 1D       		.uleb128 0x1d
 3458 0176 898201   		.uleb128 0x4109
 3459 0179 01       		.byte	0x1
 3460 017a 11       		.uleb128 0x11
 3461 017b 01       		.uleb128 0x1
 3462 017c 31       		.uleb128 0x31
 3463 017d 13       		.uleb128 0x13
 3464 017e 00       		.byte	0
 3465 017f 00       		.byte	0
 3466 0180 1E       		.uleb128 0x1e
 3467 0181 26       		.uleb128 0x26
 3468 0182 00       		.byte	0
 3469 0183 49       		.uleb128 0x49
 3470 0184 13       		.uleb128 0x13
 3471 0185 00       		.byte	0
 3472 0186 00       		.byte	0
 3473 0187 1F       		.uleb128 0x1f
 3474 0188 2E       		.uleb128 0x2e
 3475 0189 01       		.byte	0x1
 3476 018a 3F       		.uleb128 0x3f
 3477 018b 19       		.uleb128 0x19
 3478 018c 03       		.uleb128 0x3
 3479 018d 0E       		.uleb128 0xe
 3480 018e 3A       		.uleb128 0x3a
 3481 018f 0B       		.uleb128 0xb
 3482 0190 3B       		.uleb128 0x3b
 3483 0191 05       		.uleb128 0x5
 3484 0192 27       		.uleb128 0x27
 3485 0193 19       		.uleb128 0x19
 3486 0194 49       		.uleb128 0x49
 3487 0195 13       		.uleb128 0x13
 3488 0196 11       		.uleb128 0x11
 3489 0197 01       		.uleb128 0x1
 3490 0198 12       		.uleb128 0x12
 3491 0199 06       		.uleb128 0x6
 3492 019a 40       		.uleb128 0x40
 3493 019b 18       		.uleb128 0x18
 3494 019c 9742     		.uleb128 0x2117
 3495 019e 19       		.uleb128 0x19
 3496 019f 01       		.uleb128 0x1
 3497 01a0 13       		.uleb128 0x13
 3498 01a1 00       		.byte	0
 3499 01a2 00       		.byte	0
 3500 01a3 20       		.uleb128 0x20
 3501 01a4 34       		.uleb128 0x34
 3502 01a5 00       		.byte	0
 3503 01a6 03       		.uleb128 0x3
 3504 01a7 0E       		.uleb128 0xe
 3505 01a8 3A       		.uleb128 0x3a
 3506 01a9 0B       		.uleb128 0xb
 3507 01aa 3B       		.uleb128 0x3b
 3508 01ab 05       		.uleb128 0x5
 3509 01ac 49       		.uleb128 0x49
 3510 01ad 13       		.uleb128 0x13
 3511 01ae 02       		.uleb128 0x2
 3512 01af 18       		.uleb128 0x18
ARM GAS  C:\Users\inspiron\AppData\Local\Temp\cc3AwUZg.s 			page 91


 3513 01b0 00       		.byte	0
 3514 01b1 00       		.byte	0
 3515 01b2 21       		.uleb128 0x21
 3516 01b3 17       		.uleb128 0x17
 3517 01b4 01       		.byte	0x1
 3518 01b5 0B       		.uleb128 0xb
 3519 01b6 0B       		.uleb128 0xb
 3520 01b7 3A       		.uleb128 0x3a
 3521 01b8 0B       		.uleb128 0xb
 3522 01b9 3B       		.uleb128 0x3b
 3523 01ba 05       		.uleb128 0x5
 3524 01bb 01       		.uleb128 0x1
 3525 01bc 13       		.uleb128 0x13
 3526 01bd 00       		.byte	0
 3527 01be 00       		.byte	0
 3528 01bf 22       		.uleb128 0x22
 3529 01c0 0D       		.uleb128 0xd
 3530 01c1 00       		.byte	0
 3531 01c2 03       		.uleb128 0x3
 3532 01c3 08       		.uleb128 0x8
 3533 01c4 3A       		.uleb128 0x3a
 3534 01c5 0B       		.uleb128 0xb
 3535 01c6 3B       		.uleb128 0x3b
 3536 01c7 05       		.uleb128 0x5
 3537 01c8 49       		.uleb128 0x49
 3538 01c9 13       		.uleb128 0x13
 3539 01ca 00       		.byte	0
 3540 01cb 00       		.byte	0
 3541 01cc 23       		.uleb128 0x23
 3542 01cd 0D       		.uleb128 0xd
 3543 01ce 00       		.byte	0
 3544 01cf 03       		.uleb128 0x3
 3545 01d0 0E       		.uleb128 0xe
 3546 01d1 3A       		.uleb128 0x3a
 3547 01d2 0B       		.uleb128 0xb
 3548 01d3 3B       		.uleb128 0x3b
 3549 01d4 05       		.uleb128 0x5
 3550 01d5 49       		.uleb128 0x49
 3551 01d6 13       		.uleb128 0x13
 3552 01d7 00       		.byte	0
 3553 01d8 00       		.byte	0
 3554 01d9 24       		.uleb128 0x24
 3555 01da 35       		.uleb128 0x35
 3556 01db 00       		.byte	0
 3557 01dc 00       		.byte	0
 3558 01dd 00       		.byte	0
 3559 01de 25       		.uleb128 0x25
 3560 01df 34       		.uleb128 0x34
 3561 01e0 00       		.byte	0
 3562 01e1 03       		.uleb128 0x3
 3563 01e2 0E       		.uleb128 0xe
 3564 01e3 3A       		.uleb128 0x3a
 3565 01e4 0B       		.uleb128 0xb
 3566 01e5 3B       		.uleb128 0x3b
 3567 01e6 05       		.uleb128 0x5
 3568 01e7 49       		.uleb128 0x49
 3569 01e8 13       		.uleb128 0x13
ARM GAS  C:\Users\inspiron\AppData\Local\Temp\cc3AwUZg.s 			page 92


 3570 01e9 00       		.byte	0
 3571 01ea 00       		.byte	0
 3572 01eb 26       		.uleb128 0x26
 3573 01ec 34       		.uleb128 0x34
 3574 01ed 00       		.byte	0
 3575 01ee 03       		.uleb128 0x3
 3576 01ef 0E       		.uleb128 0xe
 3577 01f0 3A       		.uleb128 0x3a
 3578 01f1 0B       		.uleb128 0xb
 3579 01f2 3B       		.uleb128 0x3b
 3580 01f3 0B       		.uleb128 0xb
 3581 01f4 49       		.uleb128 0x49
 3582 01f5 13       		.uleb128 0x13
 3583 01f6 02       		.uleb128 0x2
 3584 01f7 18       		.uleb128 0x18
 3585 01f8 00       		.byte	0
 3586 01f9 00       		.byte	0
 3587 01fa 27       		.uleb128 0x27
 3588 01fb 34       		.uleb128 0x34
 3589 01fc 00       		.byte	0
 3590 01fd 03       		.uleb128 0x3
 3591 01fe 0E       		.uleb128 0xe
 3592 01ff 3A       		.uleb128 0x3a
 3593 0200 0B       		.uleb128 0xb
 3594 0201 3B       		.uleb128 0x3b
 3595 0202 0B       		.uleb128 0xb
 3596 0203 49       		.uleb128 0x49
 3597 0204 13       		.uleb128 0x13
 3598 0205 3F       		.uleb128 0x3f
 3599 0206 19       		.uleb128 0x19
 3600 0207 02       		.uleb128 0x2
 3601 0208 18       		.uleb128 0x18
 3602 0209 00       		.byte	0
 3603 020a 00       		.byte	0
 3604 020b 28       		.uleb128 0x28
 3605 020c 34       		.uleb128 0x34
 3606 020d 00       		.byte	0
 3607 020e 03       		.uleb128 0x3
 3608 020f 0E       		.uleb128 0xe
 3609 0210 3A       		.uleb128 0x3a
 3610 0211 0B       		.uleb128 0xb
 3611 0212 3B       		.uleb128 0x3b
 3612 0213 05       		.uleb128 0x5
 3613 0214 49       		.uleb128 0x49
 3614 0215 13       		.uleb128 0x13
 3615 0216 3F       		.uleb128 0x3f
 3616 0217 19       		.uleb128 0x19
 3617 0218 02       		.uleb128 0x2
 3618 0219 18       		.uleb128 0x18
 3619 021a 00       		.byte	0
 3620 021b 00       		.byte	0
 3621 021c 29       		.uleb128 0x29
 3622 021d 2E       		.uleb128 0x2e
 3623 021e 00       		.byte	0
 3624 021f 3F       		.uleb128 0x3f
 3625 0220 19       		.uleb128 0x19
 3626 0221 3C       		.uleb128 0x3c
ARM GAS  C:\Users\inspiron\AppData\Local\Temp\cc3AwUZg.s 			page 93


 3627 0222 19       		.uleb128 0x19
 3628 0223 6E       		.uleb128 0x6e
 3629 0224 0E       		.uleb128 0xe
 3630 0225 03       		.uleb128 0x3
 3631 0226 0E       		.uleb128 0xe
 3632 0227 00       		.byte	0
 3633 0228 00       		.byte	0
 3634 0229 2A       		.uleb128 0x2a
 3635 022a 2E       		.uleb128 0x2e
 3636 022b 00       		.byte	0
 3637 022c 3F       		.uleb128 0x3f
 3638 022d 19       		.uleb128 0x19
 3639 022e 3C       		.uleb128 0x3c
 3640 022f 19       		.uleb128 0x19
 3641 0230 6E       		.uleb128 0x6e
 3642 0231 0E       		.uleb128 0xe
 3643 0232 03       		.uleb128 0x3
 3644 0233 0E       		.uleb128 0xe
 3645 0234 3A       		.uleb128 0x3a
 3646 0235 0B       		.uleb128 0xb
 3647 0236 3B       		.uleb128 0x3b
 3648 0237 0B       		.uleb128 0xb
 3649 0238 00       		.byte	0
 3650 0239 00       		.byte	0
 3651 023a 00       		.byte	0
 3652              		.section	.debug_loc,"",%progbits
 3653              	.Ldebug_loc0:
 3654              	.LLST0:
 3655 0000 00000000 		.4byte	.LVL0
 3656 0004 28000000 		.4byte	.LVL2
 3657 0008 0100     		.2byte	0x1
 3658 000a 50       		.byte	0x50
 3659 000b 28000000 		.4byte	.LVL2
 3660 000f 80000000 		.4byte	.LFE2
 3661 0013 0400     		.2byte	0x4
 3662 0015 F3       		.byte	0xf3
 3663 0016 01       		.uleb128 0x1
 3664 0017 50       		.byte	0x50
 3665 0018 9F       		.byte	0x9f
 3666 0019 00000000 		.4byte	0
 3667 001d 00000000 		.4byte	0
 3668              	.LLST1:
 3669 0021 02000000 		.4byte	.LVL1
 3670 0025 46000000 		.4byte	.LVL3
 3671 0029 0200     		.2byte	0x2
 3672 002b 30       		.byte	0x30
 3673 002c 9F       		.byte	0x9f
 3674 002d 46000000 		.4byte	.LVL3
 3675 0031 4C000000 		.4byte	.LVL4
 3676 0035 0100     		.2byte	0x1
 3677 0037 50       		.byte	0x50
 3678 0038 4C000000 		.4byte	.LVL4
 3679 003c 50000000 		.4byte	.LVL5
 3680 0040 0200     		.2byte	0x2
 3681 0042 30       		.byte	0x30
 3682 0043 9F       		.byte	0x9f
 3683 0044 50000000 		.4byte	.LVL5
ARM GAS  C:\Users\inspiron\AppData\Local\Temp\cc3AwUZg.s 			page 94


 3684 0048 72000000 		.4byte	.LVL7
 3685 004c 0100     		.2byte	0x1
 3686 004e 50       		.byte	0x50
 3687 004f 74000000 		.4byte	.LVL8
 3688 0053 76000000 		.4byte	.LVL9
 3689 0057 0100     		.2byte	0x1
 3690 0059 50       		.byte	0x50
 3691 005a 78000000 		.4byte	.LVL10
 3692 005e 80000000 		.4byte	.LFE2
 3693 0062 0100     		.2byte	0x1
 3694 0064 50       		.byte	0x50
 3695 0065 00000000 		.4byte	0
 3696 0069 00000000 		.4byte	0
 3697              	.LLST2:
 3698 006d 66000000 		.4byte	.LVL17
 3699 0071 68000000 		.4byte	.LVL18
 3700 0075 0100     		.2byte	0x1
 3701 0077 53       		.byte	0x53
 3702 0078 68000000 		.4byte	.LVL18
 3703 007c 72000000 		.4byte	.LVL21
 3704 0080 0100     		.2byte	0x1
 3705 0082 50       		.byte	0x50
 3706 0083 72000000 		.4byte	.LVL21
 3707 0087 74000000 		.4byte	.LVL22
 3708 008b 0100     		.2byte	0x1
 3709 008d 53       		.byte	0x53
 3710 008e 74000000 		.4byte	.LVL22
 3711 0092 7C000000 		.4byte	.LVL24
 3712 0096 0100     		.2byte	0x1
 3713 0098 50       		.byte	0x50
 3714 0099 00000000 		.4byte	0
 3715 009d 00000000 		.4byte	0
 3716              	.LLST3:
 3717 00a1 58000000 		.4byte	.LVL14
 3718 00a5 62000000 		.4byte	.LVL15
 3719 00a9 0200     		.2byte	0x2
 3720 00ab 31       		.byte	0x31
 3721 00ac 9F       		.byte	0x9f
 3722 00ad 62000000 		.4byte	.LVL15
 3723 00b1 7C000000 		.4byte	.LVL24
 3724 00b5 0100     		.2byte	0x1
 3725 00b7 55       		.byte	0x55
 3726 00b8 7C000000 		.4byte	.LVL24
 3727 00bc 7E000000 		.4byte	.LVL25
 3728 00c0 0100     		.2byte	0x1
 3729 00c2 53       		.byte	0x53
 3730 00c3 7E000000 		.4byte	.LVL25
 3731 00c7 82000000 		.4byte	.LVL27
 3732 00cb 0100     		.2byte	0x1
 3733 00cd 55       		.byte	0x55
 3734 00ce 82000000 		.4byte	.LVL27
 3735 00d2 A0000000 		.4byte	.LFE1
 3736 00d6 0300     		.2byte	0x3
 3737 00d8 73       		.byte	0x73
 3738 00d9 7F       		.sleb128 -1
 3739 00da 9F       		.byte	0x9f
 3740 00db 00000000 		.4byte	0
ARM GAS  C:\Users\inspiron\AppData\Local\Temp\cc3AwUZg.s 			page 95


 3741 00df 00000000 		.4byte	0
 3742              	.LLST4:
 3743 00e3 64000000 		.4byte	.LVL16
 3744 00e7 7C000000 		.4byte	.LVL24
 3745 00eb 0100     		.2byte	0x1
 3746 00ed 51       		.byte	0x51
 3747 00ee 00000000 		.4byte	0
 3748 00f2 00000000 		.4byte	0
 3749              	.LLST5:
 3750 00f6 58000000 		.4byte	.LVL14
 3751 00fa 62000000 		.4byte	.LVL15
 3752 00fe 0600     		.2byte	0x6
 3753 0100 03       		.byte	0x3
 3754 0101 00000000 		.4byte	CapSense_dsFlash
 3755 0105 9F       		.byte	0x9f
 3756 0106 62000000 		.4byte	.LVL15
 3757 010a 82000000 		.4byte	.LVL26
 3758 010e 0100     		.2byte	0x1
 3759 0110 54       		.byte	0x54
 3760 0111 00000000 		.4byte	0
 3761 0115 00000000 		.4byte	0
 3762              	.LLST6:
 3763 0119 02000000 		.4byte	.LVL12
 3764 011d 62000000 		.4byte	.LVL15
 3765 0121 0600     		.2byte	0x6
 3766 0123 03       		.byte	0x3
 3767 0124 00000000 		.4byte	CapSense_ramIdacInit
 3768 0128 9F       		.byte	0x9f
 3769 0129 62000000 		.4byte	.LVL15
 3770 012d A0000000 		.4byte	.LFE1
 3771 0131 0100     		.2byte	0x1
 3772 0133 52       		.byte	0x52
 3773 0134 00000000 		.4byte	0
 3774 0138 00000000 		.4byte	0
 3775              	.LLST7:
 3776 013c 00000000 		.4byte	.LVL28
 3777 0140 0B000000 		.4byte	.LVL30-1
 3778 0144 0100     		.2byte	0x1
 3779 0146 50       		.byte	0x50
 3780 0147 0B000000 		.4byte	.LVL30-1
 3781 014b 60000000 		.4byte	.LFE3
 3782 014f 0400     		.2byte	0x4
 3783 0151 F3       		.byte	0xf3
 3784 0152 01       		.uleb128 0x1
 3785 0153 50       		.byte	0x50
 3786 0154 9F       		.byte	0x9f
 3787 0155 00000000 		.4byte	0
 3788 0159 00000000 		.4byte	0
 3789              	.LLST8:
 3790 015d 00000000 		.4byte	.LVL28
 3791 0161 08000000 		.4byte	.LVL29
 3792 0165 0100     		.2byte	0x1
 3793 0167 51       		.byte	0x51
 3794 0168 08000000 		.4byte	.LVL29
 3795 016c 54000000 		.4byte	.LVL38
 3796 0170 0100     		.2byte	0x1
 3797 0172 55       		.byte	0x55
ARM GAS  C:\Users\inspiron\AppData\Local\Temp\cc3AwUZg.s 			page 96


 3798 0173 54000000 		.4byte	.LVL38
 3799 0177 60000000 		.4byte	.LFE3
 3800 017b 0400     		.2byte	0x4
 3801 017d F3       		.byte	0xf3
 3802 017e 01       		.uleb128 0x1
 3803 017f 51       		.byte	0x51
 3804 0180 9F       		.byte	0x9f
 3805 0181 00000000 		.4byte	0
 3806 0185 00000000 		.4byte	0
 3807              	.LLST9:
 3808 0189 0E000000 		.4byte	.LVL31
 3809 018d 4C000000 		.4byte	.LVL35
 3810 0191 0100     		.2byte	0x1
 3811 0193 50       		.byte	0x50
 3812 0194 4C000000 		.4byte	.LVL35
 3813 0198 54000000 		.4byte	.LVL37
 3814 019c 0100     		.2byte	0x1
 3815 019e 54       		.byte	0x54
 3816 019f 54000000 		.4byte	.LVL37
 3817 01a3 60000000 		.4byte	.LFE3
 3818 01a7 0100     		.2byte	0x1
 3819 01a9 50       		.byte	0x50
 3820 01aa 00000000 		.4byte	0
 3821 01ae 00000000 		.4byte	0
 3822              	.LLST10:
 3823 01b2 26000000 		.4byte	.LVL33
 3824 01b6 2A000000 		.4byte	.LVL34
 3825 01ba 0100     		.2byte	0x1
 3826 01bc 52       		.byte	0x52
 3827 01bd 00000000 		.4byte	0
 3828 01c1 00000000 		.4byte	0
 3829              	.LLST11:
 3830 01c5 00000000 		.4byte	.LVL39
 3831 01c9 0B000000 		.4byte	.LVL41-1
 3832 01cd 0100     		.2byte	0x1
 3833 01cf 50       		.byte	0x50
 3834 01d0 0B000000 		.4byte	.LVL41-1
 3835 01d4 58000000 		.4byte	.LFE4
 3836 01d8 0400     		.2byte	0x4
 3837 01da F3       		.byte	0xf3
 3838 01db 01       		.uleb128 0x1
 3839 01dc 50       		.byte	0x50
 3840 01dd 9F       		.byte	0x9f
 3841 01de 00000000 		.4byte	0
 3842 01e2 00000000 		.4byte	0
 3843              	.LLST12:
 3844 01e6 00000000 		.4byte	.LVL39
 3845 01ea 08000000 		.4byte	.LVL40
 3846 01ee 0100     		.2byte	0x1
 3847 01f0 51       		.byte	0x51
 3848 01f1 08000000 		.4byte	.LVL40
 3849 01f5 30000000 		.4byte	.LVL44
 3850 01f9 0100     		.2byte	0x1
 3851 01fb 55       		.byte	0x55
 3852 01fc 30000000 		.4byte	.LVL44
 3853 0200 34000000 		.4byte	.LVL45
 3854 0204 0400     		.2byte	0x4
ARM GAS  C:\Users\inspiron\AppData\Local\Temp\cc3AwUZg.s 			page 97


 3855 0206 F3       		.byte	0xf3
 3856 0207 01       		.uleb128 0x1
 3857 0208 51       		.byte	0x51
 3858 0209 9F       		.byte	0x9f
 3859 020a 34000000 		.4byte	.LVL45
 3860 020e 3A000000 		.4byte	.LVL46
 3861 0212 0100     		.2byte	0x1
 3862 0214 55       		.byte	0x55
 3863 0215 3A000000 		.4byte	.LVL46
 3864 0219 3E000000 		.4byte	.LVL47
 3865 021d 0400     		.2byte	0x4
 3866 021f F3       		.byte	0xf3
 3867 0220 01       		.uleb128 0x1
 3868 0221 51       		.byte	0x51
 3869 0222 9F       		.byte	0x9f
 3870 0223 3E000000 		.4byte	.LVL47
 3871 0227 4C000000 		.4byte	.LVL48
 3872 022b 0100     		.2byte	0x1
 3873 022d 55       		.byte	0x55
 3874 022e 4C000000 		.4byte	.LVL48
 3875 0232 58000000 		.4byte	.LFE4
 3876 0236 0400     		.2byte	0x4
 3877 0238 F3       		.byte	0xf3
 3878 0239 01       		.uleb128 0x1
 3879 023a 51       		.byte	0x51
 3880 023b 9F       		.byte	0x9f
 3881 023c 00000000 		.4byte	0
 3882 0240 00000000 		.4byte	0
 3883              	.LLST13:
 3884 0244 0E000000 		.4byte	.LVL42
 3885 0248 1A000000 		.4byte	.LVL43
 3886 024c 0100     		.2byte	0x1
 3887 024e 50       		.byte	0x50
 3888 024f 1A000000 		.4byte	.LVL43
 3889 0253 50000000 		.4byte	.LVL49
 3890 0257 0100     		.2byte	0x1
 3891 0259 54       		.byte	0x54
 3892 025a 50000000 		.4byte	.LVL49
 3893 025e 58000000 		.4byte	.LFE4
 3894 0262 0100     		.2byte	0x1
 3895 0264 50       		.byte	0x50
 3896 0265 00000000 		.4byte	0
 3897 0269 00000000 		.4byte	0
 3898              	.LLST14:
 3899 026d 00000000 		.4byte	.LVL50
 3900 0271 06000000 		.4byte	.LVL51
 3901 0275 0200     		.2byte	0x2
 3902 0277 30       		.byte	0x30
 3903 0278 9F       		.byte	0x9f
 3904 0279 06000000 		.4byte	.LVL51
 3905 027d 20000000 		.4byte	.LFE5
 3906 0281 0100     		.2byte	0x1
 3907 0283 50       		.byte	0x50
 3908 0284 00000000 		.4byte	0
 3909 0288 00000000 		.4byte	0
 3910              	.LLST15:
 3911 028c 00000000 		.4byte	.LVL50
ARM GAS  C:\Users\inspiron\AppData\Local\Temp\cc3AwUZg.s 			page 98


 3912 0290 06000000 		.4byte	.LVL51
 3913 0294 0200     		.2byte	0x2
 3914 0296 31       		.byte	0x31
 3915 0297 9F       		.byte	0x9f
 3916 0298 06000000 		.4byte	.LVL51
 3917 029c 14000000 		.4byte	.LVL53
 3918 02a0 0100     		.2byte	0x1
 3919 02a2 52       		.byte	0x52
 3920 02a3 14000000 		.4byte	.LVL53
 3921 02a7 16000000 		.4byte	.LVL54
 3922 02ab 0100     		.2byte	0x1
 3923 02ad 53       		.byte	0x53
 3924 02ae 16000000 		.4byte	.LVL54
 3925 02b2 20000000 		.4byte	.LFE5
 3926 02b6 0100     		.2byte	0x1
 3927 02b8 52       		.byte	0x52
 3928 02b9 00000000 		.4byte	0
 3929 02bd 00000000 		.4byte	0
 3930              	.LLST16:
 3931 02c1 00000000 		.4byte	.LVL55
 3932 02c5 0E000000 		.4byte	.LVL56
 3933 02c9 0100     		.2byte	0x1
 3934 02cb 50       		.byte	0x50
 3935 02cc 0E000000 		.4byte	.LVL56
 3936 02d0 1C000000 		.4byte	.LVL58
 3937 02d4 0400     		.2byte	0x4
 3938 02d6 F3       		.byte	0xf3
 3939 02d7 01       		.uleb128 0x1
 3940 02d8 50       		.byte	0x50
 3941 02d9 9F       		.byte	0x9f
 3942 02da 1C000000 		.4byte	.LVL58
 3943 02de 1E000000 		.4byte	.LVL59
 3944 02e2 0100     		.2byte	0x1
 3945 02e4 50       		.byte	0x50
 3946 02e5 1E000000 		.4byte	.LVL59
 3947 02e9 24000000 		.4byte	.LFE6
 3948 02ed 0400     		.2byte	0x4
 3949 02ef F3       		.byte	0xf3
 3950 02f0 01       		.uleb128 0x1
 3951 02f1 50       		.byte	0x50
 3952 02f2 9F       		.byte	0x9f
 3953 02f3 00000000 		.4byte	0
 3954 02f7 00000000 		.4byte	0
 3955              	.LLST17:
 3956 02fb 00000000 		.4byte	.LVL55
 3957 02ff 1A000000 		.4byte	.LVL57
 3958 0303 0200     		.2byte	0x2
 3959 0305 30       		.byte	0x30
 3960 0306 9F       		.byte	0x9f
 3961 0307 1A000000 		.4byte	.LVL57
 3962 030b 1C000000 		.4byte	.LVL58
 3963 030f 0100     		.2byte	0x1
 3964 0311 50       		.byte	0x50
 3965 0312 1C000000 		.4byte	.LVL58
 3966 0316 1E000000 		.4byte	.LVL59
 3967 031a 0200     		.2byte	0x2
 3968 031c 30       		.byte	0x30
ARM GAS  C:\Users\inspiron\AppData\Local\Temp\cc3AwUZg.s 			page 99


 3969 031d 9F       		.byte	0x9f
 3970 031e 1E000000 		.4byte	.LVL59
 3971 0322 24000000 		.4byte	.LFE6
 3972 0326 0100     		.2byte	0x1
 3973 0328 50       		.byte	0x50
 3974 0329 00000000 		.4byte	0
 3975 032d 00000000 		.4byte	0
 3976              	.LLST18:
 3977 0331 00000000 		.4byte	.LVL60
 3978 0335 1A000000 		.4byte	.LVL61
 3979 0339 0100     		.2byte	0x1
 3980 033b 50       		.byte	0x50
 3981 033c 1A000000 		.4byte	.LVL61
 3982 0340 24000000 		.4byte	.LVL63
 3983 0344 0400     		.2byte	0x4
 3984 0346 F3       		.byte	0xf3
 3985 0347 01       		.uleb128 0x1
 3986 0348 50       		.byte	0x50
 3987 0349 9F       		.byte	0x9f
 3988 034a 24000000 		.4byte	.LVL63
 3989 034e 26000000 		.4byte	.LVL64
 3990 0352 0100     		.2byte	0x1
 3991 0354 50       		.byte	0x50
 3992 0355 26000000 		.4byte	.LVL64
 3993 0359 28000000 		.4byte	.LVL65
 3994 035d 0400     		.2byte	0x4
 3995 035f F3       		.byte	0xf3
 3996 0360 01       		.uleb128 0x1
 3997 0361 50       		.byte	0x50
 3998 0362 9F       		.byte	0x9f
 3999 0363 28000000 		.4byte	.LVL65
 4000 0367 2A000000 		.4byte	.LVL66
 4001 036b 0100     		.2byte	0x1
 4002 036d 50       		.byte	0x50
 4003 036e 2A000000 		.4byte	.LVL66
 4004 0372 34000000 		.4byte	.LFE7
 4005 0376 0400     		.2byte	0x4
 4006 0378 F3       		.byte	0xf3
 4007 0379 01       		.uleb128 0x1
 4008 037a 50       		.byte	0x50
 4009 037b 9F       		.byte	0x9f
 4010 037c 00000000 		.4byte	0
 4011 0380 00000000 		.4byte	0
 4012              	.LLST19:
 4013 0384 00000000 		.4byte	.LVL60
 4014 0388 22000000 		.4byte	.LVL62
 4015 038c 0200     		.2byte	0x2
 4016 038e 30       		.byte	0x30
 4017 038f 9F       		.byte	0x9f
 4018 0390 22000000 		.4byte	.LVL62
 4019 0394 24000000 		.4byte	.LVL63
 4020 0398 0100     		.2byte	0x1
 4021 039a 50       		.byte	0x50
 4022 039b 24000000 		.4byte	.LVL63
 4023 039f 2A000000 		.4byte	.LVL66
 4024 03a3 0200     		.2byte	0x2
 4025 03a5 30       		.byte	0x30
ARM GAS  C:\Users\inspiron\AppData\Local\Temp\cc3AwUZg.s 			page 100


 4026 03a6 9F       		.byte	0x9f
 4027 03a7 2A000000 		.4byte	.LVL66
 4028 03ab 34000000 		.4byte	.LFE7
 4029 03af 0100     		.2byte	0x1
 4030 03b1 50       		.byte	0x50
 4031 03b2 00000000 		.4byte	0
 4032 03b6 00000000 		.4byte	0
 4033              	.LLST20:
 4034 03ba 00000000 		.4byte	.LVL67
 4035 03be 30000000 		.4byte	.LVL75
 4036 03c2 0100     		.2byte	0x1
 4037 03c4 50       		.byte	0x50
 4038 03c5 30000000 		.4byte	.LVL75
 4039 03c9 36000000 		.4byte	.LVL77
 4040 03cd 0400     		.2byte	0x4
 4041 03cf F3       		.byte	0xf3
 4042 03d0 01       		.uleb128 0x1
 4043 03d1 50       		.byte	0x50
 4044 03d2 9F       		.byte	0x9f
 4045 03d3 36000000 		.4byte	.LVL77
 4046 03d7 38000000 		.4byte	.LVL78
 4047 03db 0100     		.2byte	0x1
 4048 03dd 50       		.byte	0x50
 4049 03de 38000000 		.4byte	.LVL78
 4050 03e2 40000000 		.4byte	.LFE8
 4051 03e6 0400     		.2byte	0x4
 4052 03e8 F3       		.byte	0xf3
 4053 03e9 01       		.uleb128 0x1
 4054 03ea 50       		.byte	0x50
 4055 03eb 9F       		.byte	0x9f
 4056 03ec 00000000 		.4byte	0
 4057 03f0 00000000 		.4byte	0
 4058              	.LLST21:
 4059 03f4 02000000 		.4byte	.LVL68
 4060 03f8 14000000 		.4byte	.LVL69
 4061 03fc 0200     		.2byte	0x2
 4062 03fe 30       		.byte	0x30
 4063 03ff 9F       		.byte	0x9f
 4064 0400 14000000 		.4byte	.LVL69
 4065 0404 1E000000 		.4byte	.LVL70
 4066 0408 0100     		.2byte	0x1
 4067 040a 52       		.byte	0x52
 4068 040b 1E000000 		.4byte	.LVL70
 4069 040f 24000000 		.4byte	.LVL71
 4070 0413 0200     		.2byte	0x2
 4071 0415 30       		.byte	0x30
 4072 0416 9F       		.byte	0x9f
 4073 0417 24000000 		.4byte	.LVL71
 4074 041b 2E000000 		.4byte	.LVL74
 4075 041f 0100     		.2byte	0x1
 4076 0421 52       		.byte	0x52
 4077 0422 36000000 		.4byte	.LVL77
 4078 0426 3A000000 		.4byte	.LVL79
 4079 042a 0100     		.2byte	0x1
 4080 042c 52       		.byte	0x52
 4081 042d 00000000 		.4byte	0
 4082 0431 00000000 		.4byte	0
ARM GAS  C:\Users\inspiron\AppData\Local\Temp\cc3AwUZg.s 			page 101


 4083              	.LLST22:
 4084 0435 2C000000 		.4byte	.LVL73
 4085 0439 36000000 		.4byte	.LVL77
 4086 043d 0100     		.2byte	0x1
 4087 043f 53       		.byte	0x53
 4088 0440 00000000 		.4byte	0
 4089 0444 00000000 		.4byte	0
 4090              	.LLST23:
 4091 0448 02000000 		.4byte	.LVL68
 4092 044c 26000000 		.4byte	.LVL72
 4093 0450 0200     		.2byte	0x2
 4094 0452 30       		.byte	0x30
 4095 0453 9F       		.byte	0x9f
 4096 0454 26000000 		.4byte	.LVL72
 4097 0458 2C000000 		.4byte	.LVL73
 4098 045c 0100     		.2byte	0x1
 4099 045e 53       		.byte	0x53
 4100 045f 36000000 		.4byte	.LVL77
 4101 0463 3A000000 		.4byte	.LVL79
 4102 0467 0100     		.2byte	0x1
 4103 0469 53       		.byte	0x53
 4104 046a 00000000 		.4byte	0
 4105 046e 00000000 		.4byte	0
 4106              	.LLST24:
 4107 0472 02000000 		.4byte	.LVL68
 4108 0476 34000000 		.4byte	.LVL76
 4109 047a 0300     		.2byte	0x3
 4110 047c 09       		.byte	0x9
 4111 047d FF       		.byte	0xff
 4112 047e 9F       		.byte	0x9f
 4113 047f 34000000 		.4byte	.LVL76
 4114 0483 36000000 		.4byte	.LVL77
 4115 0487 0100     		.2byte	0x1
 4116 0489 50       		.byte	0x50
 4117 048a 36000000 		.4byte	.LVL77
 4118 048e 3A000000 		.4byte	.LVL79
 4119 0492 0300     		.2byte	0x3
 4120 0494 09       		.byte	0x9
 4121 0495 FF       		.byte	0xff
 4122 0496 9F       		.byte	0x9f
 4123 0497 3A000000 		.4byte	.LVL79
 4124 049b 40000000 		.4byte	.LFE8
 4125 049f 0100     		.2byte	0x1
 4126 04a1 50       		.byte	0x50
 4127 04a2 00000000 		.4byte	0
 4128 04a6 00000000 		.4byte	0
 4129              		.section	.debug_aranges,"",%progbits
 4130 0000 54000000 		.4byte	0x54
 4131 0004 0200     		.2byte	0x2
 4132 0006 00000000 		.4byte	.Ldebug_info0
 4133 000a 04       		.byte	0x4
 4134 000b 00       		.byte	0
 4135 000c 0000     		.2byte	0
 4136 000e 0000     		.2byte	0
 4137 0010 00000000 		.4byte	.LFB2
 4138 0014 80000000 		.4byte	.LFE2-.LFB2
 4139 0018 00000000 		.4byte	.LFB1
ARM GAS  C:\Users\inspiron\AppData\Local\Temp\cc3AwUZg.s 			page 102


 4140 001c A0000000 		.4byte	.LFE1-.LFB1
 4141 0020 00000000 		.4byte	.LFB3
 4142 0024 60000000 		.4byte	.LFE3-.LFB3
 4143 0028 00000000 		.4byte	.LFB4
 4144 002c 58000000 		.4byte	.LFE4-.LFB4
 4145 0030 00000000 		.4byte	.LFB5
 4146 0034 20000000 		.4byte	.LFE5-.LFB5
 4147 0038 00000000 		.4byte	.LFB6
 4148 003c 24000000 		.4byte	.LFE6-.LFB6
 4149 0040 00000000 		.4byte	.LFB7
 4150 0044 34000000 		.4byte	.LFE7-.LFB7
 4151 0048 00000000 		.4byte	.LFB8
 4152 004c 40000000 		.4byte	.LFE8-.LFB8
 4153 0050 00000000 		.4byte	0
 4154 0054 00000000 		.4byte	0
 4155              		.section	.debug_ranges,"",%progbits
 4156              	.Ldebug_ranges0:
 4157 0000 00000000 		.4byte	.LFB2
 4158 0004 80000000 		.4byte	.LFE2
 4159 0008 00000000 		.4byte	.LFB1
 4160 000c A0000000 		.4byte	.LFE1
 4161 0010 00000000 		.4byte	.LFB3
 4162 0014 60000000 		.4byte	.LFE3
 4163 0018 00000000 		.4byte	.LFB4
 4164 001c 58000000 		.4byte	.LFE4
 4165 0020 00000000 		.4byte	.LFB5
 4166 0024 20000000 		.4byte	.LFE5
 4167 0028 00000000 		.4byte	.LFB6
 4168 002c 24000000 		.4byte	.LFE6
 4169 0030 00000000 		.4byte	.LFB7
 4170 0034 34000000 		.4byte	.LFE7
 4171 0038 00000000 		.4byte	.LFB8
 4172 003c 40000000 		.4byte	.LFE8
 4173 0040 00000000 		.4byte	0
 4174 0044 00000000 		.4byte	0
 4175              		.section	.debug_line,"",%progbits
 4176              	.Ldebug_line0:
 4177 0000 FE020000 		.section	.debug_str,"MS",%progbits,1
 4177      02009D01 
 4177      00000201 
 4177      FB0E0D00 
 4177      01010101 
 4178              	.LASF82:
 4179 0000 65646765 		.ascii	"edgeSwipeTimeout\000"
 4179      53776970 
 4179      6554696D 
 4179      656F7574 
 4179      00
 4180              	.LASF226:
 4181 0011 77644373 		.ascii	"wdCsxTouchpad\000"
 4181      78546F75 
 4181      63687061 
 4181      6400
 4182              	.LASF104:
 4183 001f 43617053 		.ascii	"CapSense_WD_PROXIMITY_E\000"
 4183      656E7365 
 4183      5F57445F 
ARM GAS  C:\Users\inspiron\AppData\Local\Temp\cc3AwUZg.s 			page 103


 4183      50524F58 
 4183      494D4954 
 4184              	.LASF30:
 4185 0037 666C6963 		.ascii	"flickActiveDistanceX\000"
 4185      6B416374 
 4185      69766544 
 4185      69737461 
 4185      6E636558 
 4186              	.LASF31:
 4187 004c 666C6963 		.ascii	"flickActiveDistanceY\000"
 4187      6B416374 
 4187      69766544 
 4187      69737461 
 4187      6E636559 
 4188              	.LASF26:
 4189 0061 70616E41 		.ascii	"panActiveDistanceX\000"
 4189      63746976 
 4189      65446973 
 4189      74616E63 
 4189      655800
 4190              	.LASF27:
 4191 0074 70616E41 		.ascii	"panActiveDistanceY\000"
 4191      63746976 
 4191      65446973 
 4191      74616E63 
 4191      655900
 4192              	.LASF69:
 4193 0087 53545061 		.ascii	"STPanDebounce\000"
 4193      6E446562 
 4193      6F756E63 
 4193      6500
 4194              	.LASF61:
 4195 0095 7374496E 		.ascii	"stInScrCountLevel\000"
 4195      53637243 
 4195      6F756E74 
 4195      4C657665 
 4195      6C00
 4196              	.LASF209:
 4197 00a7 77646774 		.ascii	"wdgtId\000"
 4197      496400
 4198              	.LASF222:
 4199 00ae 43617053 		.ascii	"CapSense_IsWidgetActive\000"
 4199      656E7365 
 4199      5F497357 
 4199      69646765 
 4199      74416374 
 4200              	.LASF205:
 4201 00c6 70617261 		.ascii	"paramId\000"
 4201      6D496400 
 4202              	.LASF152:
 4203 00ce 736E7254 		.ascii	"snrTestWidgetId\000"
 4203      65737457 
 4203      69646765 
 4203      74496400 
 4204              	.LASF62:
 4205 00de 6474496E 		.ascii	"dtInScrActiveDistanceX\000"
 4205      53637241 
ARM GAS  C:\Users\inspiron\AppData\Local\Temp\cc3AwUZg.s 			page 104


 4205      63746976 
 4205      65446973 
 4205      74616E63 
 4206              	.LASF63:
 4207 00f5 6474496E 		.ascii	"dtInScrActiveDistanceY\000"
 4207      53637241 
 4207      63746976 
 4207      65446973 
 4207      74616E63 
 4208              	.LASF107:
 4209 010c 43617053 		.ascii	"CapSense_UNDEFINED_E\000"
 4209      656E7365 
 4209      5F554E44 
 4209      4546494E 
 4209      45445F45 
 4210              	.LASF34:
 4211 0121 73745363 		.ascii	"stScrollThreshold3X\000"
 4211      726F6C6C 
 4211      54687265 
 4211      73686F6C 
 4211      64335800 
 4212              	.LASF38:
 4213 0135 73745363 		.ascii	"stScrollThreshold3Y\000"
 4213      726F6C6C 
 4213      54687265 
 4213      73686F6C 
 4213      64335900 
 4214              	.LASF78:
 4215 0149 73657474 		.ascii	"settlingTimeout\000"
 4215      6C696E67 
 4215      54696D65 
 4215      6F757400 
 4216              	.LASF10:
 4217 0159 756E7369 		.ascii	"unsigned int\000"
 4217      676E6564 
 4217      20696E74 
 4217      00
 4218              	.LASF139:
 4219 0166 7363616E 		.ascii	"scanCounter\000"
 4219      436F756E 
 4219      74657200 
 4220              	.LASF137:
 4221 0172 6877436C 		.ascii	"hwClock\000"
 4221      6F636B00 
 4222              	.LASF40:
 4223 017a 73745363 		.ascii	"stScrollStep1\000"
 4223      726F6C6C 
 4223      53746570 
 4223      3100
 4224              	.LASF41:
 4225 0188 73745363 		.ascii	"stScrollStep2\000"
 4225      726F6C6C 
 4225      53746570 
 4225      3200
 4226              	.LASF42:
 4227 0196 73745363 		.ascii	"stScrollStep3\000"
 4227      726F6C6C 
ARM GAS  C:\Users\inspiron\AppData\Local\Temp\cc3AwUZg.s 			page 105


 4227      53746570 
 4227      3300
 4228              	.LASF43:
 4229 01a4 73745363 		.ascii	"stScrollStep4\000"
 4229      726F6C6C 
 4229      53746570 
 4229      3400
 4230              	.LASF243:
 4231 01b2 43794861 		.ascii	"CyHalt\000"
 4231      6C7400
 4232              	.LASF45:
 4233 01b9 64745363 		.ascii	"dtScrollThreshold1X\000"
 4233      726F6C6C 
 4233      54687265 
 4233      73686F6C 
 4233      64315800 
 4234              	.LASF49:
 4235 01cd 64745363 		.ascii	"dtScrollThreshold1Y\000"
 4235      726F6C6C 
 4235      54687265 
 4235      73686F6C 
 4235      64315900 
 4236              	.LASF92:
 4237 01e1 67726F75 		.ascii	"group2Start\000"
 4237      70325374 
 4237      61727400 
 4238              	.LASF236:
 4239 01ed 6D656D73 		.ascii	"memset\000"
 4239      657400
 4240              	.LASF234:
 4241 01f4 43617053 		.ascii	"CapSense_ramIdacInit\000"
 4241      656E7365 
 4241      5F72616D 
 4241      49646163 
 4241      496E6974 
 4242              	.LASF241:
 4243 0209 44735061 		.ascii	"DsParseParamId\000"
 4243      72736550 
 4243      6172616D 
 4243      496400
 4244              	.LASF35:
 4245 0218 73745363 		.ascii	"stScrollThreshold4X\000"
 4245      726F6C6C 
 4245      54687265 
 4245      73686F6C 
 4245      64345800 
 4246              	.LASF39:
 4247 022c 73745363 		.ascii	"stScrollThreshold4Y\000"
 4247      726F6C6C 
 4247      54687265 
 4247      73686F6C 
 4247      64345900 
 4248              	.LASF83:
 4249 0240 4454436C 		.ascii	"DTClickTimeoutMax\000"
 4249      69636B54 
 4249      696D656F 
 4249      75744D61 
ARM GAS  C:\Users\inspiron\AppData\Local\Temp\cc3AwUZg.s 			page 106


 4249      7800
 4250              	.LASF195:
 4251 0252 43617053 		.ascii	"CapSense_SLIDER_POS_HISTORY_STRUCT\000"
 4251      656E7365 
 4251      5F534C49 
 4251      4445525F 
 4251      504F535F 
 4252              	.LASF240:
 4253 0275 433A5C55 		.ascii	"C:\\Users\\inspiron\\Documents\\PSoC Creator\\Proje"
 4253      73657273 
 4253      5C696E73 
 4253      7069726F 
 4253      6E5C446F 
 4254 02a3 6374735C 		.ascii	"cts\\CE224821_PSoC4_CapSense_Touchpad_Gestures_CSX0"
 4254      43453232 
 4254      34383231 
 4254      5F50536F 
 4254      43345F43 
 4255 02d5 315C4345 		.ascii	"1\\CE224821_PSoC4_CapSense_Touchpad_Gestures_CSX01."
 4255      32323438 
 4255      32315F50 
 4255      536F4334 
 4255      5F436170 
 4256 0307 63796473 		.ascii	"cydsn\000"
 4256      6E00
 4257              	.LASF57:
 4258 030d 64745363 		.ascii	"dtScrollDebounce\000"
 4258      726F6C6C 
 4258      4465626F 
 4258      756E6365 
 4258      00
 4259              	.LASF239:
 4260 031e 47656E65 		.ascii	"Generated_Source\\PSoC4\\CapSense_Structure.c\000"
 4260      72617465 
 4260      645F536F 
 4260      75726365 
 4260      5C50536F 
 4261              	.LASF46:
 4262 034a 64745363 		.ascii	"dtScrollThreshold2X\000"
 4262      726F6C6C 
 4262      54687265 
 4262      73686F6C 
 4262      64325800 
 4263              	.LASF50:
 4264 035e 64745363 		.ascii	"dtScrollThreshold2Y\000"
 4264      726F6C6C 
 4264      54687265 
 4264      73686F6C 
 4264      64325900 
 4265              	.LASF93:
 4266 0372 67726F75 		.ascii	"group2End\000"
 4266      7032456E 
 4266      6400
 4267              	.LASF190:
 4268 037c 69697246 		.ascii	"iirFilterCoeff\000"
 4268      696C7465 
 4268      72436F65 
ARM GAS  C:\Users\inspiron\AppData\Local\Temp\cc3AwUZg.s 			page 107


 4268      666600
 4269              	.LASF228:
 4270 038b 43617053 		.ascii	"CapSense_csxTouchpadData_Touchpad0\000"
 4270      656E7365 
 4270      5F637378 
 4270      546F7563 
 4270      68706164 
 4271              	.LASF75:
 4272 03ae 646F7562 		.ascii	"doubleClickRadius\000"
 4272      6C65436C 
 4272      69636B52 
 4272      61646975 
 4272      7300
 4273              	.LASF224:
 4274 03c0 73656E73 		.ascii	"sensorId\000"
 4274      6F724964 
 4274      00
 4275              	.LASF89:
 4276 03c9 67726F75 		.ascii	"groupMask\000"
 4276      704D6173 
 4276      6B00
 4277              	.LASF28:
 4278 03d3 7A6F6F6D 		.ascii	"zoomActiveDistanceX\000"
 4278      41637469 
 4278      76654469 
 4278      7374616E 
 4278      63655800 
 4279              	.LASF29:
 4280 03e7 7A6F6F6D 		.ascii	"zoomActiveDistanceY\000"
 4280      41637469 
 4280      76654469 
 4280      7374616E 
 4280      63655900 
 4281              	.LASF150:
 4282 03fb 74696D65 		.ascii	"timestampInterval\000"
 4282      7374616D 
 4282      70496E74 
 4282      65727661 
 4282      6C00
 4283              	.LASF81:
 4284 040d 666C6963 		.ascii	"flickSampleTime\000"
 4284      6B53616D 
 4284      706C6554 
 4284      696D6500 
 4285              	.LASF72:
 4286 041d 44545061 		.ascii	"DTPanToZoomDebounce\000"
 4286      6E546F5A 
 4286      6F6F6D44 
 4286      65626F75 
 4286      6E636500 
 4287              	.LASF16:
 4288 0431 666C6F61 		.ascii	"float\000"
 4288      7400
 4289              	.LASF167:
 4290 0437 73686966 		.ascii	"shift\000"
 4290      7400
 4291              	.LASF238:
ARM GAS  C:\Users\inspiron\AppData\Local\Temp\cc3AwUZg.s 			page 108


 4292 043d 474E5520 		.ascii	"GNU C11 5.4.1 20160609 (release) [ARM/embedded-5-br"
 4292      43313120 
 4292      352E342E 
 4292      31203230 
 4292      31363036 
 4293 0470 616E6368 		.ascii	"anch revision 237715] -mcpu=cortex-m0plus -mthumb -"
 4293      20726576 
 4293      6973696F 
 4293      6E203233 
 4293      37373135 
 4294 04a3 67202D4F 		.ascii	"g -Og -ffunction-sections -ffat-lto-objects\000"
 4294      67202D66 
 4294      66756E63 
 4294      74696F6E 
 4294      2D736563 
 4295              	.LASF47:
 4296 04cf 64745363 		.ascii	"dtScrollThreshold3X\000"
 4296      726F6C6C 
 4296      54687265 
 4296      73686F6C 
 4296      64335800 
 4297              	.LASF51:
 4298 04e3 64745363 		.ascii	"dtScrollThreshold3Y\000"
 4298      726F6C6C 
 4298      54687265 
 4298      73686F6C 
 4298      64335900 
 4299              	.LASF148:
 4300 04f7 736E734C 		.ascii	"snsList\000"
 4300      69737400 
 4301              	.LASF207:
 4302 04ff 72657375 		.ascii	"result\000"
 4302      6C7400
 4303              	.LASF9:
 4304 0506 6C6F6E67 		.ascii	"long long unsigned int\000"
 4304      206C6F6E 
 4304      6720756E 
 4304      7369676E 
 4304      65642069 
 4305              	.LASF64:
 4306 051d 6474496E 		.ascii	"dtInScrCountLevel\000"
 4306      53637243 
 4306      6F756E74 
 4306      4C657665 
 4306      6C00
 4307              	.LASF102:
 4308 052f 43617053 		.ascii	"CapSense_WD_MATRIX_BUTTON_E\000"
 4308      656E7365 
 4308      5F57445F 
 4308      4D415452 
 4308      49585F42 
 4309              	.LASF126:
 4310 054b 746F7563 		.ascii	"touchpad0\000"
 4310      68706164 
 4310      3000
 4311              	.LASF168:
 4312 0555 43617053 		.ascii	"CapSense_FLASH_IO_STRUCT\000"
ARM GAS  C:\Users\inspiron\AppData\Local\Temp\cc3AwUZg.s 			page 109


 4312      656E7365 
 4312      5F464C41 
 4312      53485F49 
 4312      4F5F5354 
 4313              	.LASF153:
 4314 056e 736E7254 		.ascii	"snrTestSensorId\000"
 4314      65737453 
 4314      656E736F 
 4314      72496400 
 4315              	.LASF4:
 4316 057e 5F5F7569 		.ascii	"__uint16_t\000"
 4316      6E743136 
 4316      5F7400
 4317              	.LASF181:
 4318 0589 77646774 		.ascii	"wdgtType\000"
 4318      54797065 
 4318      00
 4319              	.LASF213:
 4320 0592 76616C75 		.ascii	"value\000"
 4320      6500
 4321              	.LASF48:
 4322 0598 64745363 		.ascii	"dtScrollThreshold4X\000"
 4322      726F6C6C 
 4322      54687265 
 4322      73686F6C 
 4322      64345800 
 4323              	.LASF52:
 4324 05ac 64745363 		.ascii	"dtScrollThreshold4Y\000"
 4324      726F6C6C 
 4324      54687265 
 4324      73686F6C 
 4324      64345900 
 4325              	.LASF225:
 4326 05c0 43617053 		.ascii	"CapSense_GetXYCoordinates\000"
 4326      656E7365 
 4326      5F476574 
 4326      5859436F 
 4326      6F726469 
 4327              	.LASF112:
 4328 05da 43617053 		.ascii	"CapSense_CSX_TOUCHPAD_TOUCH_STRUCT\000"
 4328      656E7365 
 4328      5F435358 
 4328      5F544F55 
 4328      43485041 
 4329              	.LASF133:
 4330 05fd 43617053 		.ascii	"CapSense_RAM_SNS_STRUCT\000"
 4330      656E7365 
 4330      5F52414D 
 4330      5F534E53 
 4330      5F535452 
 4331              	.LASF97:
 4332 0615 67726F75 		.ascii	"group4End\000"
 4332      7034456E 
 4332      6400
 4333              	.LASF161:
 4334 061f 64725074 		.ascii	"drPtr\000"
 4334      7200
ARM GAS  C:\Users\inspiron\AppData\Local\Temp\cc3AwUZg.s 			page 110


 4335              	.LASF199:
 4336 0625 6F666673 		.ascii	"offset\000"
 4336      657400
 4337              	.LASF206:
 4338 062c 70446174 		.ascii	"pData\000"
 4338      6100
 4339              	.LASF86:
 4340 0632 5354436C 		.ascii	"STClickTimeoutMin\000"
 4340      69636B54 
 4340      696D656F 
 4340      75744D69 
 4340      6E00
 4341              	.LASF117:
 4342 0644 68797374 		.ascii	"hysteresis\000"
 4342      65726573 
 4342      697300
 4343              	.LASF101:
 4344 064f 43617053 		.ascii	"CapSense_WD_RADIAL_SLIDER_E\000"
 4344      656E7365 
 4344      5F57445F 
 4344      52414449 
 4344      414C5F53 
 4345              	.LASF191:
 4346 066b 43617053 		.ascii	"CapSense_FLASH_WD_STRUCT\000"
 4346      656E7365 
 4346      5F464C41 
 4346      53485F57 
 4346      445F5354 
 4347              	.LASF88:
 4348 0684 5354446F 		.ascii	"STDoubleClickTimeoutMin\000"
 4348      75626C65 
 4348      436C6963 
 4348      6B54696D 
 4348      656F7574 
 4349              	.LASF119:
 4350 069c 6C6F7742 		.ascii	"lowBslnRst\000"
 4350      736C6E52 
 4350      737400
 4351              	.LASF74:
 4352 06a7 636F6D70 		.ascii	"completedDebounce\000"
 4352      6C657465 
 4352      64446562 
 4352      6F756E63 
 4352      6500
 4353              	.LASF120:
 4354 06b9 69646163 		.ascii	"idacGainIndex\000"
 4354      4761696E 
 4354      496E6465 
 4354      7800
 4355              	.LASF58:
 4356 06c7 64745363 		.ascii	"dtScrollToZoomDebounce\000"
 4356      726F6C6C 
 4356      546F5A6F 
 4356      6F6D4465 
 4356      626F756E 
 4357              	.LASF180:
 4358 06de 746F7461 		.ascii	"totalNumSns\000"
ARM GAS  C:\Users\inspiron\AppData\Local\Temp\cc3AwUZg.s 			page 111


 4358      6C4E756D 
 4358      536E7300 
 4359              	.LASF59:
 4360 06ea 7374496E 		.ascii	"stInScrActiveDistanceX\000"
 4360      53637241 
 4360      63746976 
 4360      65446973 
 4360      74616E63 
 4361              	.LASF60:
 4362 0701 7374496E 		.ascii	"stInScrActiveDistanceY\000"
 4362      53637241 
 4362      63746976 
 4362      65446973 
 4362      74616E63 
 4363              	.LASF197:
 4364 0718 79506F73 		.ascii	"yPos\000"
 4364      00
 4365              	.LASF115:
 4366 071d 6E6F6973 		.ascii	"noiseTh\000"
 4366      65546800 
 4367              	.LASF18:
 4368 0725 63686172 		.ascii	"char\000"
 4368      00
 4369              	.LASF220:
 4370 072a 43617053 		.ascii	"CapSense_IsAnyWidgetActive\000"
 4370      656E7365 
 4370      5F497341 
 4370      6E795769 
 4370      64676574 
 4371              	.LASF214:
 4372 0745 70747255 		.ascii	"ptrUint8\000"
 4372      696E7438 
 4372      00
 4373              	.LASF96:
 4374 074e 67726F75 		.ascii	"group4Start\000"
 4374      70345374 
 4374      61727400 
 4375              	.LASF218:
 4376 075a 43617053 		.ascii	"CapSense_GetParam\000"
 4376      656E7365 
 4376      5F476574 
 4376      50617261 
 4376      6D00
 4377              	.LASF165:
 4378 076c 6873696F 		.ascii	"hsiomShift\000"
 4378      6D536869 
 4378      667400
 4379              	.LASF14:
 4380 0777 75696E74 		.ascii	"uint16\000"
 4380      313600
 4381              	.LASF230:
 4382 077e 43617053 		.ascii	"CapSense_dsRam\000"
 4382      656E7365 
 4382      5F647352 
 4382      616D00
 4383              	.LASF113:
 4384 078d 7265736F 		.ascii	"resolution\000"
ARM GAS  C:\Users\inspiron\AppData\Local\Temp\cc3AwUZg.s 			page 112


 4384      6C757469 
 4384      6F6E00
 4385              	.LASF11:
 4386 0798 75696E74 		.ascii	"uint8_t\000"
 4386      385F7400 
 4387              	.LASF140:
 4388 07a0 73746174 		.ascii	"status\000"
 4388      757300
 4389              	.LASF169:
 4390 07a7 72617743 		.ascii	"rawCount\000"
 4390      6F756E74 
 4390      00
 4391              	.LASF24:
 4392 07b0 43617053 		.ascii	"CapSense_LOW_BSLN_RST_TYPE\000"
 4392      656E7365 
 4392      5F4C4F57 
 4392      5F42534C 
 4392      4E5F5253 
 4393              	.LASF215:
 4394 07cb 70747255 		.ascii	"ptrUint16\000"
 4394      696E7431 
 4394      3600
 4395              	.LASF67:
 4396 07d5 626F7474 		.ascii	"bottomAngleThreshold\000"
 4396      6F6D416E 
 4396      676C6554 
 4396      68726573 
 4396      686F6C64 
 4397              	.LASF44:
 4398 07ea 73745363 		.ascii	"stScrollDebounce\000"
 4398      726F6C6C 
 4398      4465626F 
 4398      756E6365 
 4398      00
 4399              	.LASF132:
 4400 07fb 69646163 		.ascii	"idacComp\000"
 4400      436F6D70 
 4400      00
 4401              	.LASF194:
 4402 0804 706F734A 		.ascii	"posJitter\000"
 4402      69747465 
 4402      7200
 4403              	.LASF160:
 4404 080e 70635074 		.ascii	"pcPtr\000"
 4404      7200
 4405              	.LASF68:
 4406 0814 77696474 		.ascii	"widthOfDisambiguation\000"
 4406      684F6644 
 4406      6973616D 
 4406      62696775 
 4406      6174696F 
 4407              	.LASF8:
 4408 082a 6C6F6E67 		.ascii	"long long int\000"
 4408      206C6F6E 
 4408      6720696E 
 4408      7400
 4409              	.LASF182:
ARM GAS  C:\Users\inspiron\AppData\Local\Temp\cc3AwUZg.s 			page 113


 4410 0838 6E756D43 		.ascii	"numCols\000"
 4410      6F6C7300 
 4411              	.LASF118:
 4412 0840 6F6E4465 		.ascii	"onDebounce\000"
 4412      626F756E 
 4412      636500
 4413              	.LASF170:
 4414 084b 6465626F 		.ascii	"debounce\000"
 4414      756E6365 
 4414      00
 4415              	.LASF172:
 4416 0854 746F7563 		.ascii	"touchNum\000"
 4416      684E756D 
 4416      00
 4417              	.LASF221:
 4418 085d 7764576F 		.ascii	"wdWord\000"
 4418      726400
 4419              	.LASF147:
 4420 0864 77646774 		.ascii	"wdgtList\000"
 4420      4C697374 
 4420      00
 4421              	.LASF174:
 4422 086d 70747232 		.ascii	"ptr2SnsFlash\000"
 4422      536E7346 
 4422      6C617368 
 4422      00
 4423              	.LASF193:
 4424 087a 43617053 		.ascii	"CapSense_FLASH_STRUCT\000"
 4424      656E7365 
 4424      5F464C41 
 4424      53485F53 
 4424      54525543 
 4425              	.LASF123:
 4426 0890 76656C6F 		.ascii	"velocity\000"
 4426      63697479 
 4426      00
 4427              	.LASF155:
 4428 0899 736E7254 		.ascii	"snrTestRawCount\000"
 4428      65737452 
 4428      6177436F 
 4428      756E7400 
 4429              	.LASF171:
 4430 08a9 43617053 		.ascii	"CapSense_CSX_TOUCHPAD_PEAK_STRUCT\000"
 4430      656E7365 
 4430      5F435358 
 4430      5F544F55 
 4430      43485041 
 4431              	.LASF116:
 4432 08cb 6E4E6F69 		.ascii	"nNoiseTh\000"
 4432      73655468 
 4432      00
 4433              	.LASF146:
 4434 08d4 736E7343 		.ascii	"snsCsxClk\000"
 4434      7378436C 
 4434      6B00
 4435              	.LASF144:
 4436 08de 63736430 		.ascii	"csd0Config\000"
ARM GAS  C:\Users\inspiron\AppData\Local\Temp\cc3AwUZg.s 			page 114


 4436      436F6E66 
 4436      696700
 4437              	.LASF76:
 4438 08e9 636C6963 		.ascii	"clickRadiusX\000"
 4438      6B526164 
 4438      69757358 
 4438      00
 4439              	.LASF77:
 4440 08f6 636C6963 		.ascii	"clickRadiusY\000"
 4440      6B526164 
 4440      69757359 
 4440      00
 4441              	.LASF124:
 4442 0903 746F7563 		.ascii	"touch\000"
 4442      6800
 4443              	.LASF173:
 4444 0909 43617053 		.ascii	"CapSense_CSX_TOUCHPAD_DATA_STRUCT\000"
 4444      656E7365 
 4444      5F435358 
 4444      5F544F55 
 4444      43485041 
 4445              	.LASF106:
 4446 092b 43617053 		.ascii	"CapSense_WD_TYPE_ENUM\000"
 4446      656E7365 
 4446      5F57445F 
 4446      54595045 
 4446      5F454E55 
 4447              	.LASF128:
 4448 0941 62736C6E 		.ascii	"bsln\000"
 4448      00
 4449              	.LASF25:
 4450 0946 73697A65 		.ascii	"size\000"
 4450      00
 4451              	.LASF122:
 4452 094b 67657374 		.ascii	"gestureId\000"
 4452      75726549 
 4452      6400
 4453              	.LASF159:
 4454 0955 6873696F 		.ascii	"hsiomPtr\000"
 4454      6D507472 
 4454      00
 4455              	.LASF15:
 4456 095e 75696E74 		.ascii	"uint32\000"
 4456      333200
 4457              	.LASF177:
 4458 0965 70747232 		.ascii	"ptr2FltrHistory\000"
 4458      466C7472 
 4458      48697374 
 4458      6F727900 
 4459              	.LASF164:
 4460 0975 6D61736B 		.ascii	"mask\000"
 4460      00
 4461              	.LASF100:
 4462 097a 43617053 		.ascii	"CapSense_WD_LINEAR_SLIDER_E\000"
 4462      656E7365 
 4462      5F57445F 
 4462      4C494E45 
ARM GAS  C:\Users\inspiron\AppData\Local\Temp\cc3AwUZg.s 			page 115


 4462      41525F53 
 4463              	.LASF90:
 4464 0996 67726F75 		.ascii	"group1Start\000"
 4464      70315374 
 4464      61727400 
 4465              	.LASF91:
 4466 09a2 67726F75 		.ascii	"group1End\000"
 4466      7031456E 
 4466      6400
 4467              	.LASF216:
 4468 09ac 70747255 		.ascii	"ptrUint32\000"
 4468      696E7433 
 4468      3200
 4469              	.LASF212:
 4470 09b6 70747249 		.ascii	"ptrIdacInit\000"
 4470      64616349 
 4470      6E697400 
 4471              	.LASF70:
 4472 09c2 44545061 		.ascii	"DTPanDebounce\000"
 4472      6E446562 
 4472      6F756E63 
 4472      6500
 4473              	.LASF111:
 4474 09d0 43617053 		.ascii	"CapSense_SENSE_METHOD_ISX_E\000"
 4474      656E7365 
 4474      5F53454E 
 4474      53455F4D 
 4474      4554484F 
 4475              	.LASF21:
 4476 09ec 6C6F6E67 		.ascii	"long double\000"
 4476      20646F75 
 4476      626C6500 
 4477              	.LASF156:
 4478 09f8 7363616E 		.ascii	"scanCsxISC\000"
 4478      43737849 
 4478      534300
 4479              	.LASF12:
 4480 0a03 75696E74 		.ascii	"uint16_t\000"
 4480      31365F74 
 4480      00
 4481              	.LASF229:
 4482 0a0c 43617053 		.ascii	"CapSense_posHistoryTouchpad0\000"
 4482      656E7365 
 4482      5F706F73 
 4482      48697374 
 4482      6F727954 
 4483              	.LASF223:
 4484 0a29 43617053 		.ascii	"CapSense_IsSensorActive\000"
 4484      656E7365 
 4484      5F497353 
 4484      656E736F 
 4484      72416374 
 4485              	.LASF20:
 4486 0a41 72656733 		.ascii	"reg32\000"
 4486      3200
 4487              	.LASF154:
 4488 0a47 736E7254 		.ascii	"snrTestScanCounter\000"
ARM GAS  C:\Users\inspiron\AppData\Local\Temp\cc3AwUZg.s 			page 116


 4488      65737453 
 4488      63616E43 
 4488      6F756E74 
 4488      657200
 4489              	.LASF135:
 4490 0a5a 636F6E66 		.ascii	"configId\000"
 4490      69674964 
 4490      00
 4491              	.LASF176:
 4492 0a63 70747232 		.ascii	"ptr2SnsRam\000"
 4492      536E7352 
 4492      616D00
 4493              	.LASF84:
 4494 0a6e 4454436C 		.ascii	"DTClickTimeoutMin\000"
 4494      69636B54 
 4494      696D656F 
 4494      75744D69 
 4494      6E00
 4495              	.LASF204:
 4496 0a80 50415241 		.ascii	"PARAM_ID_STRUCT\000"
 4496      4D5F4944 
 4496      5F535452 
 4496      55435400 
 4497              	.LASF143:
 4498 0a90 736E7353 		.ascii	"snsStatus\000"
 4498      74617475 
 4498      7300
 4499              	.LASF105:
 4500 0a9a 43617053 		.ascii	"CapSense_WD_ENCODERDIAL_E\000"
 4500      656E7365 
 4500      5F57445F 
 4500      454E434F 
 4500      44455244 
 4501              	.LASF121:
 4502 0ab4 736E7343 		.ascii	"snsClkSource\000"
 4502      6C6B536F 
 4502      75726365 
 4502      00
 4503              	.LASF187:
 4504 0ac1 7943656E 		.ascii	"yCentroidMultiplier\000"
 4504      74726F69 
 4504      644D756C 
 4504      7469706C 
 4504      69657200 
 4505              	.LASF184:
 4506 0ad5 78526573 		.ascii	"xResolution\000"
 4506      6F6C7574 
 4506      696F6E00 
 4507              	.LASF53:
 4508 0ae1 64745363 		.ascii	"dtScrollStep1\000"
 4508      726F6C6C 
 4508      53746570 
 4508      3100
 4509              	.LASF54:
 4510 0aef 64745363 		.ascii	"dtScrollStep2\000"
 4510      726F6C6C 
 4510      53746570 
ARM GAS  C:\Users\inspiron\AppData\Local\Temp\cc3AwUZg.s 			page 117


 4510      3200
 4511              	.LASF55:
 4512 0afd 64745363 		.ascii	"dtScrollStep3\000"
 4512      726F6C6C 
 4512      53746570 
 4512      3300
 4513              	.LASF56:
 4514 0b0b 64745363 		.ascii	"dtScrollStep4\000"
 4514      726F6C6C 
 4514      53746570 
 4514      3400
 4515              	.LASF2:
 4516 0b19 73686F72 		.ascii	"short int\000"
 4516      7420696E 
 4516      7400
 4517              	.LASF158:
 4518 0b23 43617053 		.ascii	"CapSense_RAM_STRUCT\000"
 4518      656E7365 
 4518      5F52414D 
 4518      5F535452 
 4518      55435400 
 4519              	.LASF6:
 4520 0b37 6C6F6E67 		.ascii	"long int\000"
 4520      20696E74 
 4520      00
 4521              	.LASF141:
 4522 0b40 77646774 		.ascii	"wdgtEnable\000"
 4522      456E6162 
 4522      6C6500
 4523              	.LASF235:
 4524 0b4b 43617053 		.ascii	"CapSense_ramGesturesInit\000"
 4524      656E7365 
 4524      5F72616D 
 4524      47657374 
 4524      75726573 
 4525              	.LASF242:
 4526 0b64 43617053 		.ascii	"CapSense_DsInitialize\000"
 4526      656E7365 
 4526      5F447349 
 4526      6E697469 
 4526      616C697A 
 4527              	.LASF130:
 4528 0b7a 64696666 		.ascii	"diff\000"
 4528      00
 4529              	.LASF138:
 4530 0b7f 74756E65 		.ascii	"tunerCmd\000"
 4530      72436D64 
 4530      00
 4531              	.LASF109:
 4532 0b88 43617053 		.ascii	"CapSense_SENSE_METHOD_CSX_E\000"
 4532      656E7365 
 4532      5F53454E 
 4532      53455F4D 
 4532      4554484F 
 4533              	.LASF162:
 4534 0ba4 70735074 		.ascii	"psPtr\000"
 4534      7200
ARM GAS  C:\Users\inspiron\AppData\Local\Temp\cc3AwUZg.s 			page 118


 4535              	.LASF127:
 4536 0baa 43617053 		.ascii	"CapSense_RAM_WD_LIST_STRUCT\000"
 4536      656E7365 
 4536      5F52414D 
 4536      5F57445F 
 4536      4C495354 
 4537              	.LASF219:
 4538 0bc6 43617053 		.ascii	"CapSense_SetParam\000"
 4538      656E7365 
 4538      5F536574 
 4538      50617261 
 4538      6D00
 4539              	.LASF208:
 4540 0bd8 736E7349 		.ascii	"snsId\000"
 4540      6400
 4541              	.LASF99:
 4542 0bde 43617053 		.ascii	"CapSense_WD_BUTTON_E\000"
 4542      656E7365 
 4542      5F57445F 
 4542      42555454 
 4542      4F4E5F45 
 4543              	.LASF198:
 4544 0bf3 43617053 		.ascii	"CapSense_TOUCHPAD_POS_HISTORY_STRUCT\000"
 4544      656E7365 
 4544      5F544F55 
 4544      43485041 
 4544      445F504F 
 4545              	.LASF210:
 4546 0c18 70747253 		.ascii	"ptrSnsTmp\000"
 4546      6E73546D 
 4546      7000
 4547              	.LASF95:
 4548 0c22 67726F75 		.ascii	"group3End\000"
 4548      7033456E 
 4548      6400
 4549              	.LASF3:
 4550 0c2c 5F5F7569 		.ascii	"__uint8_t\000"
 4550      6E74385F 
 4550      7400
 4551              	.LASF94:
 4552 0c36 67726F75 		.ascii	"group3Start\000"
 4552      70335374 
 4552      61727400 
 4553              	.LASF231:
 4554 0c42 43617053 		.ascii	"CapSense_dsFlash\000"
 4554      656E7365 
 4554      5F647346 
 4554      6C617368 
 4554      00
 4555              	.LASF142:
 4556 0c53 77646774 		.ascii	"wdgtStatus\000"
 4556      53746174 
 4556      757300
 4557              	.LASF125:
 4558 0c5e 43617053 		.ascii	"CapSense_RAM_WD_CSX_TOUCHPAD_STRUCT\000"
 4558      656E7365 
 4558      5F52414D 
ARM GAS  C:\Users\inspiron\AppData\Local\Temp\cc3AwUZg.s 			page 119


 4558      5F57445F 
 4558      4353585F 
 4559              	.LASF108:
 4560 0c82 43617053 		.ascii	"CapSense_SENSE_METHOD_CSD_E\000"
 4560      656E7365 
 4560      5F53454E 
 4560      53455F4D 
 4560      4554484F 
 4561              	.LASF98:
 4562 0c9e 43617053 		.ascii	"CapSense_TMG_CONFIG_STRUCT\000"
 4562      656E7365 
 4562      5F544D47 
 4562      5F434F4E 
 4562      4649475F 
 4563              	.LASF22:
 4564 0cb9 73697A65 		.ascii	"sizetype\000"
 4564      74797065 
 4564      00
 4565              	.LASF166:
 4566 0cc2 64725368 		.ascii	"drShift\000"
 4566      69667400 
 4567              	.LASF7:
 4568 0cca 6C6F6E67 		.ascii	"long unsigned int\000"
 4568      20756E73 
 4568      69676E65 
 4568      6420696E 
 4568      7400
 4569              	.LASF103:
 4570 0cdc 43617053 		.ascii	"CapSense_WD_TOUCHPAD_E\000"
 4570      656E7365 
 4570      5F57445F 
 4570      544F5543 
 4570      48504144 
 4571              	.LASF178:
 4572 0cf3 70747232 		.ascii	"ptr2DebounceArr\000"
 4572      4465626F 
 4572      756E6365 
 4572      41727200 
 4573              	.LASF79:
 4574 0d03 7265736F 		.ascii	"resolutionX\000"
 4574      6C757469 
 4574      6F6E5800 
 4575              	.LASF80:
 4576 0d0f 7265736F 		.ascii	"resolutionY\000"
 4576      6C757469 
 4576      6F6E5900 
 4577              	.LASF186:
 4578 0d1b 7843656E 		.ascii	"xCentroidMultiplier\000"
 4578      74726F69 
 4578      644D756C 
 4578      7469706C 
 4578      69657200 
 4579              	.LASF114:
 4580 0d2f 66696E67 		.ascii	"fingerTh\000"
 4580      65725468 
 4580      00
 4581              	.LASF129:
ARM GAS  C:\Users\inspiron\AppData\Local\Temp\cc3AwUZg.s 			page 120


 4582 0d38 62736C6E 		.ascii	"bslnExt\000"
 4582      45787400 
 4583              	.LASF189:
 4584 0d40 70747232 		.ascii	"ptr2PosHistory\000"
 4584      506F7348 
 4584      6973746F 
 4584      727900
 4585              	.LASF196:
 4586 0d4f 78506F73 		.ascii	"xPos\000"
 4586      00
 4587              	.LASF85:
 4588 0d54 5354436C 		.ascii	"STClickTimeoutMax\000"
 4588      69636B54 
 4588      696D656F 
 4588      75744D61 
 4588      7800
 4589              	.LASF19:
 4590 0d66 63797374 		.ascii	"cystatus\000"
 4590      61747573 
 4590      00
 4591              	.LASF203:
 4592 0d6f 74797065 		.ascii	"type\000"
 4592      00
 4593              	.LASF1:
 4594 0d74 756E7369 		.ascii	"unsigned char\000"
 4594      676E6564 
 4594      20636861 
 4594      7200
 4595              	.LASF202:
 4596 0d82 666C6173 		.ascii	"flash\000"
 4596      6800
 4597              	.LASF211:
 4598 0d88 70747246 		.ascii	"ptrFlashWdgt\000"
 4598      6C617368 
 4598      57646774 
 4598      00
 4599              	.LASF149:
 4600 0d95 67657374 		.ascii	"gestures\000"
 4600      75726573 
 4600      00
 4601              	.LASF179:
 4602 0d9e 73746174 		.ascii	"staticConfig\000"
 4602      6963436F 
 4602      6E666967 
 4602      00
 4603              	.LASF233:
 4604 0dab 43617053 		.ascii	"CapSense_ramWidgetInit\000"
 4604      656E7365 
 4604      5F72616D 
 4604      57696467 
 4604      6574496E 
 4605              	.LASF145:
 4606 0dc2 6D6F6443 		.ascii	"modCsxClk\000"
 4606      7378436C 
 4606      6B00
 4607              	.LASF87:
 4608 0dcc 5354446F 		.ascii	"STDoubleClickTimeoutMax\000"
ARM GAS  C:\Users\inspiron\AppData\Local\Temp\cc3AwUZg.s 			page 121


 4608      75626C65 
 4608      436C6963 
 4608      6B54696D 
 4608      656F7574 
 4609              	.LASF157:
 4610 0de4 7363616E 		.ascii	"scanCurrentISC\000"
 4610      43757272 
 4610      656E7449 
 4610      534300
 4611              	.LASF175:
 4612 0df3 70747232 		.ascii	"ptr2WdgtRam\000"
 4612      57646774 
 4612      52616D00 
 4613              	.LASF23:
 4614 0dff 43617053 		.ascii	"CapSense_THRESHOLD_TYPE\000"
 4614      656E7365 
 4614      5F544852 
 4614      4553484F 
 4614      4C445F54 
 4615              	.LASF110:
 4616 0e17 43617053 		.ascii	"CapSense_SENSE_METHOD_BIST_E\000"
 4616      656E7365 
 4616      5F53454E 
 4616      53455F4D 
 4616      4554484F 
 4617              	.LASF183:
 4618 0e34 6E756D52 		.ascii	"numRows\000"
 4618      6F777300 
 4619              	.LASF227:
 4620 0e3c 73746174 		.ascii	"state\000"
 4620      6500
 4621              	.LASF217:
 4622 0e42 70747244 		.ascii	"ptrData\000"
 4622      61746100 
 4623              	.LASF163:
 4624 0e4a 6873696F 		.ascii	"hsiomMask\000"
 4624      6D4D6173 
 4624      6B00
 4625              	.LASF151:
 4626 0e54 74696D65 		.ascii	"timestamp\000"
 4626      7374616D 
 4626      7000
 4627              	.LASF0:
 4628 0e5e 7369676E 		.ascii	"signed char\000"
 4628      65642063 
 4628      68617200 
 4629              	.LASF65:
 4630 0e6a 65646765 		.ascii	"edgeSwipeActiveDistance\000"
 4630      53776970 
 4630      65416374 
 4630      69766544 
 4630      69737461 
 4631              	.LASF66:
 4632 0e82 746F7041 		.ascii	"topAngleThreshold\000"
 4632      6E676C65 
 4632      54687265 
 4632      73686F6C 
ARM GAS  C:\Users\inspiron\AppData\Local\Temp\cc3AwUZg.s 			page 122


 4632      6400
 4633              	.LASF5:
 4634 0e94 73686F72 		.ascii	"short unsigned int\000"
 4634      7420756E 
 4634      7369676E 
 4634      65642069 
 4634      6E7400
 4635              	.LASF201:
 4636 0ea7 61666665 		.ascii	"affectsCrc\000"
 4636      63747343 
 4636      726300
 4637              	.LASF71:
 4638 0eb2 44545A6F 		.ascii	"DTZoomDebounce\000"
 4638      6F6D4465 
 4638      626F756E 
 4638      636500
 4639              	.LASF232:
 4640 0ec1 43617053 		.ascii	"CapSense_ioList\000"
 4640      656E7365 
 4640      5F696F4C 
 4640      69737400 
 4641              	.LASF237:
 4642 0ed1 6D656D63 		.ascii	"memcpy\000"
 4642      707900
 4643              	.LASF32:
 4644 0ed8 73745363 		.ascii	"stScrollThreshold1X\000"
 4644      726F6C6C 
 4644      54687265 
 4644      73686F6C 
 4644      64315800 
 4645              	.LASF36:
 4646 0eec 73745363 		.ascii	"stScrollThreshold1Y\000"
 4646      726F6C6C 
 4646      54687265 
 4646      73686F6C 
 4646      64315900 
 4647              	.LASF13:
 4648 0f00 75696E74 		.ascii	"uint8\000"
 4648      3800
 4649              	.LASF17:
 4650 0f06 646F7562 		.ascii	"double\000"
 4650      6C6500
 4651              	.LASF73:
 4652 0f0d 726F7461 		.ascii	"rotateDebounce\000"
 4652      74654465 
 4652      626F756E 
 4652      636500
 4653              	.LASF131:
 4654 0f1c 6E656742 		.ascii	"negBslnRstCnt\000"
 4654      736C6E52 
 4654      7374436E 
 4654      7400
 4655              	.LASF188:
 4656 0f2a 70747232 		.ascii	"ptr2CsxTouchpad\000"
 4656      43737854 
 4656      6F756368 
 4656      70616400 
ARM GAS  C:\Users\inspiron\AppData\Local\Temp\cc3AwUZg.s 			page 123


 4657              	.LASF136:
 4658 0f3a 64657669 		.ascii	"deviceId\000"
 4658      63654964 
 4658      00
 4659              	.LASF185:
 4660 0f43 79526573 		.ascii	"yResolution\000"
 4660      6F6C7574 
 4660      696F6E00 
 4661              	.LASF200:
 4662 0f4f 77696467 		.ascii	"widgetId\000"
 4662      65744964 
 4662      00
 4663              	.LASF134:
 4664 0f58 43617053 		.ascii	"CapSense_RAM_SNS_LIST_STRUCT\000"
 4664      656E7365 
 4664      5F52414D 
 4664      5F534E53 
 4664      5F4C4953 
 4665              	.LASF33:
 4666 0f75 73745363 		.ascii	"stScrollThreshold2X\000"
 4666      726F6C6C 
 4666      54687265 
 4666      73686F6C 
 4666      64325800 
 4667              	.LASF37:
 4668 0f89 73745363 		.ascii	"stScrollThreshold2Y\000"
 4668      726F6C6C 
 4668      54687265 
 4668      73686F6C 
 4668      64325900 
 4669              	.LASF192:
 4670 0f9d 77646774 		.ascii	"wdgtArray\000"
 4670      41727261 
 4670      7900
 4671              		.ident	"GCC: (GNU Tools for ARM Embedded Processors) 5.4.1 20160609 (release) [ARM/embedded-5-bran
