ARM GAS  C:\Users\inspiron\AppData\Local\Temp\ccE3NmEm.s 			page 1


   1              		.syntax unified
   2              		.cpu cortex-m0plus
   3              		.fpu softvfp
   4              		.eabi_attribute 20, 1
   5              		.eabi_attribute 21, 1
   6              		.eabi_attribute 23, 3
   7              		.eabi_attribute 24, 1
   8              		.eabi_attribute 25, 1
   9              		.eabi_attribute 26, 1
  10              		.eabi_attribute 30, 1
  11              		.eabi_attribute 34, 0
  12              		.eabi_attribute 18, 4
  13              		.thumb
  14              		.syntax unified
  15              		.file	"CapSense_Gesture.c"
  16              		.text
  17              	.Ltext0:
  18              		.cfi_sections	.debug_frame
  19              		.section	.text.CapSense_GetTouchParams,"ax",%progbits
  20              		.align	2
  21              		.global	CapSense_GetTouchParams
  22              		.code	16
  23              		.thumb_func
  24              		.type	CapSense_GetTouchParams, %function
  25              	CapSense_GetTouchParams:
  26              	.LFB22:
  27              		.file 1 "Generated_Source\\PSoC4\\CapSense_Gesture.c"
   1:Generated_Source\PSoC4/CapSense_Gesture.c **** /***************************************************************************//**
   2:Generated_Source\PSoC4/CapSense_Gesture.c **** * \file CapSense_Gesture.c
   3:Generated_Source\PSoC4/CapSense_Gesture.c **** * \version 7.0
   4:Generated_Source\PSoC4/CapSense_Gesture.c **** *
   5:Generated_Source\PSoC4/CapSense_Gesture.c **** * \brief
   6:Generated_Source\PSoC4/CapSense_Gesture.c **** *   This file provides the source code for the centroid calculation methods
   7:Generated_Source\PSoC4/CapSense_Gesture.c **** *   of the Component.
   8:Generated_Source\PSoC4/CapSense_Gesture.c **** *
   9:Generated_Source\PSoC4/CapSense_Gesture.c **** * \see CapSense v7.0 Datasheet
  10:Generated_Source\PSoC4/CapSense_Gesture.c **** *
  11:Generated_Source\PSoC4/CapSense_Gesture.c **** *//*****************************************************************************
  12:Generated_Source\PSoC4/CapSense_Gesture.c **** * Copyright (2016-2019), Cypress Semiconductor Corporation.
  13:Generated_Source\PSoC4/CapSense_Gesture.c **** ********************************************************************************
  14:Generated_Source\PSoC4/CapSense_Gesture.c **** * This software is owned by Cypress Semiconductor Corporation (Cypress) and is
  15:Generated_Source\PSoC4/CapSense_Gesture.c **** * protected by and subject to worldwide patent protection (United States and
  16:Generated_Source\PSoC4/CapSense_Gesture.c **** * foreign), United States copyright laws and international treaty provisions.
  17:Generated_Source\PSoC4/CapSense_Gesture.c **** * Cypress hereby grants to licensee a personal, non-exclusive, non-transferable
  18:Generated_Source\PSoC4/CapSense_Gesture.c **** * license to copy, use, modify, create derivative works of, and compile the
  19:Generated_Source\PSoC4/CapSense_Gesture.c **** * Cypress Source Code and derivative works for the sole purpose of creating
  20:Generated_Source\PSoC4/CapSense_Gesture.c **** * custom software in support of licensee product to be used only in conjunction
  21:Generated_Source\PSoC4/CapSense_Gesture.c **** * with a Cypress integrated circuit as specified in the applicable agreement.
  22:Generated_Source\PSoC4/CapSense_Gesture.c **** * Any reproduction, modification, translation, compilation, or representation of
  23:Generated_Source\PSoC4/CapSense_Gesture.c **** * this software except as specified above is prohibited without the express
  24:Generated_Source\PSoC4/CapSense_Gesture.c **** * written permission of Cypress.
  25:Generated_Source\PSoC4/CapSense_Gesture.c **** *
  26:Generated_Source\PSoC4/CapSense_Gesture.c **** * Disclaimer: CYPRESS MAKES NO WARRANTY OF ANY KIND, EXPRESS OR IMPLIED, WITH
  27:Generated_Source\PSoC4/CapSense_Gesture.c **** * REGARD TO THIS MATERIAL, INCLUDING, BUT NOT LIMITED TO, THE IMPLIED
  28:Generated_Source\PSoC4/CapSense_Gesture.c **** * WARRANTIES OF MERCHANTABILITY AND FITNESS FOR A PARTICULAR PURPOSE.
  29:Generated_Source\PSoC4/CapSense_Gesture.c **** * Cypress reserves the right to make changes without further notice to the
  30:Generated_Source\PSoC4/CapSense_Gesture.c **** * materials described herein. Cypress does not assume any liability arising out
ARM GAS  C:\Users\inspiron\AppData\Local\Temp\ccE3NmEm.s 			page 2


  31:Generated_Source\PSoC4/CapSense_Gesture.c **** * of the application or use of any product or circuit described herein. Cypress
  32:Generated_Source\PSoC4/CapSense_Gesture.c **** * does not authorize its products for use as critical components in life-support
  33:Generated_Source\PSoC4/CapSense_Gesture.c **** * systems where a malfunction or failure may reasonably be expected to result in
  34:Generated_Source\PSoC4/CapSense_Gesture.c **** * significant injury to the user. The inclusion of Cypress' product in a life-
  35:Generated_Source\PSoC4/CapSense_Gesture.c **** * support systems application implies that the manufacturer assumes all risk of
  36:Generated_Source\PSoC4/CapSense_Gesture.c **** * such use and in doing so indemnifies Cypress against all charges. Use may be
  37:Generated_Source\PSoC4/CapSense_Gesture.c **** * limited by and subject to the applicable Cypress software license agreement.
  38:Generated_Source\PSoC4/CapSense_Gesture.c **** *******************************************************************************/
  39:Generated_Source\PSoC4/CapSense_Gesture.c **** 
  40:Generated_Source\PSoC4/CapSense_Gesture.c **** #include "cmsis_compiler.h"
  41:Generated_Source\PSoC4/CapSense_Gesture.c **** #include <stddef.h>
  42:Generated_Source\PSoC4/CapSense_Gesture.c **** #include "CapSense_Gesture.h"
  43:Generated_Source\PSoC4/CapSense_Gesture.c **** 
  44:Generated_Source\PSoC4/CapSense_Gesture.c **** #define CapSense_CSX_ERROR_TOUCH_NUMBER     (3u)
  45:Generated_Source\PSoC4/CapSense_Gesture.c **** 
  46:Generated_Source\PSoC4/CapSense_Gesture.c **** 
  47:Generated_Source\PSoC4/CapSense_Gesture.c **** /**************************************************************************************************
  48:Generated_Source\PSoC4/CapSense_Gesture.c **** * Static Function Prototypes
  49:Generated_Source\PSoC4/CapSense_Gesture.c **** ***************************************************************************************************
  50:Generated_Source\PSoC4/CapSense_Gesture.c **** /**
  51:Generated_Source\PSoC4/CapSense_Gesture.c **** * \cond SECTION_C_INTERNAL
  52:Generated_Source\PSoC4/CapSense_Gesture.c **** * \addtogroup group_c_internal
  53:Generated_Source\PSoC4/CapSense_Gesture.c **** * \{
  54:Generated_Source\PSoC4/CapSense_Gesture.c **** */
  55:Generated_Source\PSoC4/CapSense_Gesture.c **** 
  56:Generated_Source\PSoC4/CapSense_Gesture.c **** #if (CapSense_ENABLE == CapSense_GES_GLOBAL_EN)
  57:Generated_Source\PSoC4/CapSense_Gesture.c ****     #if(CapSense_ENABLE == CapSense_SLIDER_WIDGET_EN)
  58:Generated_Source\PSoC4/CapSense_Gesture.c ****     __STATIC_INLINE void CapSense_GetCsdSldTouches(uint32 wdgtIndex, CapSense_TOUCH_PARAM_STRUCT *t
  59:Generated_Source\PSoC4/CapSense_Gesture.c ****     #endif /* (CapSense_ENABLE == CapSense_SLIDER_WIDGET_EN) */
  60:Generated_Source\PSoC4/CapSense_Gesture.c **** 
  61:Generated_Source\PSoC4/CapSense_Gesture.c ****     #if(CapSense_ENABLE == CapSense_CSD_TOUCHPAD_WIDGET_EN)
  62:Generated_Source\PSoC4/CapSense_Gesture.c ****     __STATIC_INLINE void CapSense_GetCsdTpTouches(uint32 wdgtIndex, CapSense_TOUCH_PARAM_STRUCT *to
  63:Generated_Source\PSoC4/CapSense_Gesture.c ****     #endif /* (CapSense_ENABLE == CapSense_CSD_TOUCHPAD_WIDGET_EN) */
  64:Generated_Source\PSoC4/CapSense_Gesture.c **** 
  65:Generated_Source\PSoC4/CapSense_Gesture.c ****     #if(CapSense_ENABLE == CapSense_CSX_TOUCHPAD_WIDGET_EN)
  66:Generated_Source\PSoC4/CapSense_Gesture.c ****     __STATIC_INLINE void CapSense_GetCsxTpTouches(uint32 wdgtIndex, CapSense_TOUCH_PARAM_STRUCT *to
  67:Generated_Source\PSoC4/CapSense_Gesture.c ****     #endif /* (CapSense_ENABLE == CapSense_CSX_TOUCHPAD_WIDGET_EN) */
  68:Generated_Source\PSoC4/CapSense_Gesture.c **** #endif /* (CapSense_ENABLE == CapSense_GES_GLOBAL_EN) */
  69:Generated_Source\PSoC4/CapSense_Gesture.c **** 
  70:Generated_Source\PSoC4/CapSense_Gesture.c **** #if (CapSense_ENABLE == CapSense_BALLISTIC_MULTIPLIER_EN)
  71:Generated_Source\PSoC4/CapSense_Gesture.c ****     static uint8  CapSense_bmPrevFingerNum;
  72:Generated_Source\PSoC4/CapSense_Gesture.c ****     static CapSense_TMG_POSITION_STRUCT CapSense_bmPrevFingerPos;
  73:Generated_Source\PSoC4/CapSense_Gesture.c **** #endif /* (CapSense_ENABLE == CapSense_BALLISTIC_MULTIPLIER_EN) */
  74:Generated_Source\PSoC4/CapSense_Gesture.c **** 
  75:Generated_Source\PSoC4/CapSense_Gesture.c **** #if(CapSense_ENABLE == CapSense_GES_GLOBAL_EN)
  76:Generated_Source\PSoC4/CapSense_Gesture.c ****     static CapSense_TOUCH_PARAM_STRUCT CapSense_touchParams;
  77:Generated_Source\PSoC4/CapSense_Gesture.c **** #endif /* (CapSense_ENABLE == CapSense_GES_GLOBAL_EN) */
  78:Generated_Source\PSoC4/CapSense_Gesture.c **** 
  79:Generated_Source\PSoC4/CapSense_Gesture.c **** 
  80:Generated_Source\PSoC4/CapSense_Gesture.c **** /** \}
  81:Generated_Source\PSoC4/CapSense_Gesture.c **** * \endcond */
  82:Generated_Source\PSoC4/CapSense_Gesture.c **** 
  83:Generated_Source\PSoC4/CapSense_Gesture.c **** 
  84:Generated_Source\PSoC4/CapSense_Gesture.c **** #if (CapSense_ENABLE == CapSense_GES_GLOBAL_EN)
  85:Generated_Source\PSoC4/CapSense_Gesture.c ****     /*******************************************************************************
  86:Generated_Source\PSoC4/CapSense_Gesture.c ****     * Function Name: CapSense_GetTouchParams
  87:Generated_Source\PSoC4/CapSense_Gesture.c ****     ****************************************************************************//**
ARM GAS  C:\Users\inspiron\AppData\Local\Temp\ccE3NmEm.s 			page 3


  88:Generated_Source\PSoC4/CapSense_Gesture.c ****     *
  89:Generated_Source\PSoC4/CapSense_Gesture.c ****     * \brief
  90:Generated_Source\PSoC4/CapSense_Gesture.c ****     *  This function is intended to get the number of touches on touchpar or slider,
  91:Generated_Source\PSoC4/CapSense_Gesture.c ****     *  position of each touch and the max number of touches which can be processed
  92:Generated_Source\PSoC4/CapSense_Gesture.c ****     *  to recognize gestures.
  93:Generated_Source\PSoC4/CapSense_Gesture.c ****     *
  94:Generated_Source\PSoC4/CapSense_Gesture.c ****     * \details
  95:Generated_Source\PSoC4/CapSense_Gesture.c ****     *  This function implements call of appropriate API to get the touch parameters
  96:Generated_Source\PSoC4/CapSense_Gesture.c ****     *  depending on the type of widget, that is passed through the wdgtId nparameter.
  97:Generated_Source\PSoC4/CapSense_Gesture.c ****     *  For the CSD touchpad and the CSX touchpad, function returns X and Y coordinates
  98:Generated_Source\PSoC4/CapSense_Gesture.c ****     *  of each touch.
  99:Generated_Source\PSoC4/CapSense_Gesture.c ****     *  For the CSD slider, functions returns the position as the X coordinate.
 100:Generated_Source\PSoC4/CapSense_Gesture.c ****     *  Y coordinate for CSD sliders is always "0".
 101:Generated_Source\PSoC4/CapSense_Gesture.c ****     *  This is an internal function. Calling this function from application layer is
 102:Generated_Source\PSoC4/CapSense_Gesture.c ****     *  not recommended.
 103:Generated_Source\PSoC4/CapSense_Gesture.c ****     *
 104:Generated_Source\PSoC4/CapSense_Gesture.c ****     * \param wdgtIndex
 105:Generated_Source\PSoC4/CapSense_Gesture.c ****     *  Specifies the ID number of the widget, the touch parameters needs to be
 106:Generated_Source\PSoC4/CapSense_Gesture.c ****     *  returned for.
 107:Generated_Source\PSoC4/CapSense_Gesture.c ****     *
 108:Generated_Source\PSoC4/CapSense_Gesture.c ****     * \param touchParams
 109:Generated_Source\PSoC4/CapSense_Gesture.c ****     *  Pointer to the structure which is intended to store the number of touches,
 110:Generated_Source\PSoC4/CapSense_Gesture.c ****     *  position of each touch and the max number of touches which can be processed
 111:Generated_Source\PSoC4/CapSense_Gesture.c ****     *  to recognize gestures for widget, that is passed through the wdgtId nparameter.
 112:Generated_Source\PSoC4/CapSense_Gesture.c ****     *
 113:Generated_Source\PSoC4/CapSense_Gesture.c ****     *******************************************************************************/
 114:Generated_Source\PSoC4/CapSense_Gesture.c ****     void  CapSense_GetTouchParams(uint32 wdgtIndex, CapSense_TOUCH_PARAM_STRUCT *touchParams)
 115:Generated_Source\PSoC4/CapSense_Gesture.c ****     {
  28              		.loc 1 115 0
  29              		.cfi_startproc
  30              		@ args = 0, pretend = 0, frame = 0
  31              		@ frame_needed = 0, uses_anonymous_args = 0
  32              	.LVL0:
  33 0000 70B5     		push	{r4, r5, r6, lr}
  34              		.cfi_def_cfa_offset 16
  35              		.cfi_offset 4, -16
  36              		.cfi_offset 5, -12
  37              		.cfi_offset 6, -8
  38              		.cfi_offset 14, -4
  39              	.LVL1:
 116:Generated_Source\PSoC4/CapSense_Gesture.c ****         CapSense_WD_TYPE_ENUM widgetType;
 117:Generated_Source\PSoC4/CapSense_Gesture.c ****         CapSense_FLASH_WD_STRUCT const *ptrFlashWdgt;
 118:Generated_Source\PSoC4/CapSense_Gesture.c **** 
 119:Generated_Source\PSoC4/CapSense_Gesture.c ****         ptrFlashWdgt = &CapSense_dsFlash.wdgtArray[wdgtIndex];
 120:Generated_Source\PSoC4/CapSense_Gesture.c ****         widgetType = CapSense_GET_WIDGET_TYPE(ptrFlashWdgt);
  40              		.loc 1 120 0
  41 0002 C200     		lsls	r2, r0, #3
  42 0004 121A     		subs	r2, r2, r0
  43 0006 D300     		lsls	r3, r2, #3
  44 0008 264A     		ldr	r2, .L13
  45 000a D318     		adds	r3, r2, r3
  46 000c 9B7E     		ldrb	r3, [r3, #26]
  47              	.LVL2:
 121:Generated_Source\PSoC4/CapSense_Gesture.c **** 
 122:Generated_Source\PSoC4/CapSense_Gesture.c ****         switch(widgetType)
  48              		.loc 1 122 0
  49 000e 052B     		cmp	r3, #5
ARM GAS  C:\Users\inspiron\AppData\Local\Temp\ccE3NmEm.s 			page 4


  50 0010 44D1     		bne	.L12
  51              	.LVL3:
  52              	.LBB4:
  53              	.LBB5:
 123:Generated_Source\PSoC4/CapSense_Gesture.c ****         {
 124:Generated_Source\PSoC4/CapSense_Gesture.c **** 
 125:Generated_Source\PSoC4/CapSense_Gesture.c ****         #if(CapSense_ENABLE == CapSense_SLIDER_WIDGET_EN)
 126:Generated_Source\PSoC4/CapSense_Gesture.c ****             case CapSense_WD_LINEAR_SLIDER_E:
 127:Generated_Source\PSoC4/CapSense_Gesture.c ****             case CapSense_WD_RADIAL_SLIDER_E:
 128:Generated_Source\PSoC4/CapSense_Gesture.c ****                 CapSense_GetCsdSldTouches(wdgtIndex, touchParams);
 129:Generated_Source\PSoC4/CapSense_Gesture.c ****                 break;
 130:Generated_Source\PSoC4/CapSense_Gesture.c ****         #endif /* (CapSense_ENABLE == CapSense_SLIDER_WIDGET_EN) */
 131:Generated_Source\PSoC4/CapSense_Gesture.c **** 
 132:Generated_Source\PSoC4/CapSense_Gesture.c ****         #if(CapSense_ENABLE == CapSense_TOUCHPAD_WIDGET_EN)
 133:Generated_Source\PSoC4/CapSense_Gesture.c ****             case CapSense_WD_TOUCHPAD_E:
 134:Generated_Source\PSoC4/CapSense_Gesture.c ****                 #if (0u != CapSense_CSD_TOUCHPAD_WIDGET_EN)
 135:Generated_Source\PSoC4/CapSense_Gesture.c ****                     if (CapSense_SENSE_METHOD_CSD_E == CapSense_GET_SENSE_METHOD(ptrFlashWdgt))
 136:Generated_Source\PSoC4/CapSense_Gesture.c ****                     {
 137:Generated_Source\PSoC4/CapSense_Gesture.c ****                         CapSense_GetCsdTpTouches(wdgtIndex, touchParams);
 138:Generated_Source\PSoC4/CapSense_Gesture.c ****                     }
 139:Generated_Source\PSoC4/CapSense_Gesture.c ****                 #endif /* #if (0u != CapSense_CSD_TOUCHPAD_WIDGET_EN) */
 140:Generated_Source\PSoC4/CapSense_Gesture.c ****                 #if (0u != CapSense_CSX_TOUCHPAD_WIDGET_EN)
 141:Generated_Source\PSoC4/CapSense_Gesture.c ****                     if (CapSense_SENSE_METHOD_CSX_E == CapSense_GET_SENSE_METHOD(ptrFlashWdgt))
 142:Generated_Source\PSoC4/CapSense_Gesture.c ****                     {
 143:Generated_Source\PSoC4/CapSense_Gesture.c ****                        CapSense_GetCsxTpTouches(wdgtIndex, touchParams);
 144:Generated_Source\PSoC4/CapSense_Gesture.c ****                     }
 145:Generated_Source\PSoC4/CapSense_Gesture.c ****                 #endif /* #if (0u != CapSense_CSX_TOUCHPAD_WIDGET_EN) */
 146:Generated_Source\PSoC4/CapSense_Gesture.c ****                 break;
 147:Generated_Source\PSoC4/CapSense_Gesture.c ****         #endif /* (CapSense_ENABLE == CapSense_TOUCHPAD_WIDGET_EN) */
 148:Generated_Source\PSoC4/CapSense_Gesture.c **** 
 149:Generated_Source\PSoC4/CapSense_Gesture.c ****         default:
 150:Generated_Source\PSoC4/CapSense_Gesture.c ****             CYASSERT(0u);
 151:Generated_Source\PSoC4/CapSense_Gesture.c ****             break;
 152:Generated_Source\PSoC4/CapSense_Gesture.c ****         }
 153:Generated_Source\PSoC4/CapSense_Gesture.c ****     }
 154:Generated_Source\PSoC4/CapSense_Gesture.c **** 
 155:Generated_Source\PSoC4/CapSense_Gesture.c **** 
 156:Generated_Source\PSoC4/CapSense_Gesture.c ****     #if(CapSense_ENABLE == CapSense_SLIDER_WIDGET_EN)
 157:Generated_Source\PSoC4/CapSense_Gesture.c ****         /*******************************************************************************
 158:Generated_Source\PSoC4/CapSense_Gesture.c ****         * Function Name: CapSense_GetCsdSldTouches
 159:Generated_Source\PSoC4/CapSense_Gesture.c ****         ****************************************************************************//**
 160:Generated_Source\PSoC4/CapSense_Gesture.c ****         *
 161:Generated_Source\PSoC4/CapSense_Gesture.c ****         * \brief
 162:Generated_Source\PSoC4/CapSense_Gesture.c ****         *  This function is intended to get the number of touches on CSD slider, the
 163:Generated_Source\PSoC4/CapSense_Gesture.c ****         *  position of each touch and the max number of touches which can be processed
 164:Generated_Source\PSoC4/CapSense_Gesture.c ****         *  to recognize gestures.
 165:Generated_Source\PSoC4/CapSense_Gesture.c ****         *
 166:Generated_Source\PSoC4/CapSense_Gesture.c ****         * \details
 167:Generated_Source\PSoC4/CapSense_Gesture.c ****         *  This function implements calculation of the number of touches on CSD slider,
 168:Generated_Source\PSoC4/CapSense_Gesture.c ****         *  getting coordinates of each touch and the max number of touches which can be
 169:Generated_Source\PSoC4/CapSense_Gesture.c ****         *  processed to recognize gestures for the current CSD slider configuration.
 170:Generated_Source\PSoC4/CapSense_Gesture.c ****         *  Functions returns the slider touch position as the X coordinate. Y coordinate
 171:Generated_Source\PSoC4/CapSense_Gesture.c ****         *  for CSD sliders is always "0".
 172:Generated_Source\PSoC4/CapSense_Gesture.c ****         *  This is an internal function. Calling this function from application layer is
 173:Generated_Source\PSoC4/CapSense_Gesture.c ****         *  not recommended.
 174:Generated_Source\PSoC4/CapSense_Gesture.c ****         *
 175:Generated_Source\PSoC4/CapSense_Gesture.c ****         * \param wdgtIndex
ARM GAS  C:\Users\inspiron\AppData\Local\Temp\ccE3NmEm.s 			page 5


 176:Generated_Source\PSoC4/CapSense_Gesture.c ****         *  Specifies the ID number of the widget, the touch parameters needs to be
 177:Generated_Source\PSoC4/CapSense_Gesture.c ****         *  returned for.
 178:Generated_Source\PSoC4/CapSense_Gesture.c ****         *
 179:Generated_Source\PSoC4/CapSense_Gesture.c ****         * \param touchParams
 180:Generated_Source\PSoC4/CapSense_Gesture.c ****         *  Pointer to the structure which is intended to store the number of touches,
 181:Generated_Source\PSoC4/CapSense_Gesture.c ****         *  position of each touch and the max number of touches which can be processed
 182:Generated_Source\PSoC4/CapSense_Gesture.c ****         *  to recognize gestures for widget, that is passed through the wdgtId nparameter.
 183:Generated_Source\PSoC4/CapSense_Gesture.c ****         *
 184:Generated_Source\PSoC4/CapSense_Gesture.c ****         *******************************************************************************/
 185:Generated_Source\PSoC4/CapSense_Gesture.c ****         __STATIC_INLINE void CapSense_GetCsdSldTouches(uint32 wdgtIndex, CapSense_TOUCH_PARAM_STRUC
 186:Generated_Source\PSoC4/CapSense_Gesture.c ****         {
 187:Generated_Source\PSoC4/CapSense_Gesture.c ****             uint32 tmpVal;
 188:Generated_Source\PSoC4/CapSense_Gesture.c ****             CapSense_FLASH_WD_STRUCT const *ptrFlashWdgt;
 189:Generated_Source\PSoC4/CapSense_Gesture.c ****             CapSense_RAM_WD_SLIDER_STRUCT *ptrRamWdgtSld;
 190:Generated_Source\PSoC4/CapSense_Gesture.c **** 
 191:Generated_Source\PSoC4/CapSense_Gesture.c ****             ptrFlashWdgt = &CapSense_dsFlash.wdgtArray[wdgtIndex];
 192:Generated_Source\PSoC4/CapSense_Gesture.c ****             ptrRamWdgtSld = (CapSense_RAM_WD_SLIDER_STRUCT*)ptrFlashWdgt->ptr2WdgtRam;
 193:Generated_Source\PSoC4/CapSense_Gesture.c **** 
 194:Generated_Source\PSoC4/CapSense_Gesture.c ****             touchParams->touchNumber = 0u;
 195:Generated_Source\PSoC4/CapSense_Gesture.c ****             for(tmpVal = 0uL; tmpVal < CapSense_NUM_CENTROIDS; tmpVal++)
 196:Generated_Source\PSoC4/CapSense_Gesture.c ****             {
 197:Generated_Source\PSoC4/CapSense_Gesture.c ****                 if(ptrRamWdgtSld->position[tmpVal] != CapSense_SLIDER_POS_NONE)
 198:Generated_Source\PSoC4/CapSense_Gesture.c ****                 {
 199:Generated_Source\PSoC4/CapSense_Gesture.c ****                     touchParams->touchNumber += 1u;
 200:Generated_Source\PSoC4/CapSense_Gesture.c ****                 }
 201:Generated_Source\PSoC4/CapSense_Gesture.c ****             }
 202:Generated_Source\PSoC4/CapSense_Gesture.c **** 
 203:Generated_Source\PSoC4/CapSense_Gesture.c ****             touchParams->currentPosition[CapSense_FIRST_FINGER_ID].x = ptrRamWdgtSld->position[CapS
 204:Generated_Source\PSoC4/CapSense_Gesture.c ****             touchParams->currentPosition[CapSense_FIRST_FINGER_ID].y = 0u;
 205:Generated_Source\PSoC4/CapSense_Gesture.c **** 
 206:Generated_Source\PSoC4/CapSense_Gesture.c ****             #if(CapSense_NUM_CENTROIDS > 1u)
 207:Generated_Source\PSoC4/CapSense_Gesture.c ****                 touchParams->maxTouchNumber = 2u;
 208:Generated_Source\PSoC4/CapSense_Gesture.c ****                 touchParams->currentPosition[CapSense_SECOND_FINGER_ID].x = ptrRamWdgtSld->position
 209:Generated_Source\PSoC4/CapSense_Gesture.c ****                 touchParams->currentPosition[CapSense_SECOND_FINGER_ID].y = 0u;
 210:Generated_Source\PSoC4/CapSense_Gesture.c ****             #else
 211:Generated_Source\PSoC4/CapSense_Gesture.c ****                 touchParams->maxTouchNumber = 1u;
 212:Generated_Source\PSoC4/CapSense_Gesture.c ****                 touchParams->currentPosition[CapSense_SECOND_FINGER_ID].x = CapSense_SLIDER_POS_NON
 213:Generated_Source\PSoC4/CapSense_Gesture.c ****                 touchParams->currentPosition[CapSense_SECOND_FINGER_ID].y = CapSense_SLIDER_POS_NON
 214:Generated_Source\PSoC4/CapSense_Gesture.c ****             #endif /* (2u == CapSense_NUM_CENTROIDS) */
 215:Generated_Source\PSoC4/CapSense_Gesture.c ****         }
 216:Generated_Source\PSoC4/CapSense_Gesture.c ****     #endif /* (CapSense_ENABLE == CapSense_SLIDER_WIDGET_EN) */
 217:Generated_Source\PSoC4/CapSense_Gesture.c **** 
 218:Generated_Source\PSoC4/CapSense_Gesture.c **** 
 219:Generated_Source\PSoC4/CapSense_Gesture.c ****     #if(CapSense_ENABLE == CapSense_CSD_TOUCHPAD_WIDGET_EN)
 220:Generated_Source\PSoC4/CapSense_Gesture.c ****         /*******************************************************************************
 221:Generated_Source\PSoC4/CapSense_Gesture.c ****         * Function Name: CapSense_GetCsdTpTouches
 222:Generated_Source\PSoC4/CapSense_Gesture.c ****         ****************************************************************************//**
 223:Generated_Source\PSoC4/CapSense_Gesture.c ****         *
 224:Generated_Source\PSoC4/CapSense_Gesture.c ****         * \brief
 225:Generated_Source\PSoC4/CapSense_Gesture.c ****         *  This function is intended to get the number of touches on CSD touchpad, the
 226:Generated_Source\PSoC4/CapSense_Gesture.c ****         *  position of each touch and the max number of touches which can be processed
 227:Generated_Source\PSoC4/CapSense_Gesture.c ****         *  to recognize gestures.
 228:Generated_Source\PSoC4/CapSense_Gesture.c ****         *
 229:Generated_Source\PSoC4/CapSense_Gesture.c ****         * \details
 230:Generated_Source\PSoC4/CapSense_Gesture.c ****         *  This function implements calculation of the number of touches on CSD touchpad,
 231:Generated_Source\PSoC4/CapSense_Gesture.c ****         *  getting coordinates of each touch and the max number of touches which can be
 232:Generated_Source\PSoC4/CapSense_Gesture.c ****         *  processed to recognize gestures for the current CSD touchpad configuration.
ARM GAS  C:\Users\inspiron\AppData\Local\Temp\ccE3NmEm.s 			page 6


 233:Generated_Source\PSoC4/CapSense_Gesture.c ****         *  Functions returns the X and Y coordinates of each touch.
 234:Generated_Source\PSoC4/CapSense_Gesture.c ****         *  This is an internal function. Calling this function from application layer is
 235:Generated_Source\PSoC4/CapSense_Gesture.c ****         *  not recommended.
 236:Generated_Source\PSoC4/CapSense_Gesture.c ****         *
 237:Generated_Source\PSoC4/CapSense_Gesture.c ****         * \param wdgtIndex
 238:Generated_Source\PSoC4/CapSense_Gesture.c ****         *  Specifies the ID number of the widget, the touch parameters needs to be
 239:Generated_Source\PSoC4/CapSense_Gesture.c ****         *  returned for.
 240:Generated_Source\PSoC4/CapSense_Gesture.c ****         *
 241:Generated_Source\PSoC4/CapSense_Gesture.c ****         * \param touchParams
 242:Generated_Source\PSoC4/CapSense_Gesture.c ****         *  Pointer to the structure which is intended to store the number of touches,
 243:Generated_Source\PSoC4/CapSense_Gesture.c ****         *  position of each touch and the max number of touches which can be processed
 244:Generated_Source\PSoC4/CapSense_Gesture.c ****         *  to recognize gestures for widget, that is passed through the wdgtId nparameter.
 245:Generated_Source\PSoC4/CapSense_Gesture.c ****         *
 246:Generated_Source\PSoC4/CapSense_Gesture.c ****         *******************************************************************************/
 247:Generated_Source\PSoC4/CapSense_Gesture.c ****         __STATIC_INLINE void CapSense_GetCsdTpTouches(uint32 wdgtIndex, CapSense_TOUCH_PARAM_STRUCT
 248:Generated_Source\PSoC4/CapSense_Gesture.c ****         {
 249:Generated_Source\PSoC4/CapSense_Gesture.c ****             uint16 tmpPosX;
 250:Generated_Source\PSoC4/CapSense_Gesture.c ****             uint16 tmpPosY;
 251:Generated_Source\PSoC4/CapSense_Gesture.c **** 
 252:Generated_Source\PSoC4/CapSense_Gesture.c ****             CapSense_FLASH_WD_STRUCT const *ptrFlashWdgt;
 253:Generated_Source\PSoC4/CapSense_Gesture.c ****             CapSense_RAM_WD_CSD_TOUCHPAD_STRUCT *ptrRamWdgtTp;
 254:Generated_Source\PSoC4/CapSense_Gesture.c **** 
 255:Generated_Source\PSoC4/CapSense_Gesture.c ****             ptrFlashWdgt = &CapSense_dsFlash.wdgtArray[wdgtIndex];
 256:Generated_Source\PSoC4/CapSense_Gesture.c ****             ptrRamWdgtTp = (CapSense_RAM_WD_CSD_TOUCHPAD_STRUCT*)ptrFlashWdgt->ptr2WdgtRam;
 257:Generated_Source\PSoC4/CapSense_Gesture.c **** 
 258:Generated_Source\PSoC4/CapSense_Gesture.c ****             #if (CapSense_ENABLE == CapSense_CENTROID_5X5_CSD_EN)
 259:Generated_Source\PSoC4/CapSense_Gesture.c ****                 if (0u != (ptrFlashWdgt->staticConfig & CapSense_CENTROID_5X5_MASK))
 260:Generated_Source\PSoC4/CapSense_Gesture.c ****                 {
 261:Generated_Source\PSoC4/CapSense_Gesture.c ****                     touchParams->maxTouchNumber = 2u;
 262:Generated_Source\PSoC4/CapSense_Gesture.c ****                     touchParams->touchNumber = ptrRamWdgtTp->position.touchNum;
 263:Generated_Source\PSoC4/CapSense_Gesture.c **** 
 264:Generated_Source\PSoC4/CapSense_Gesture.c ****                     tmpPosX = ptrRamWdgtTp->position.pos[CapSense_FIRST_FINGER_ID].x;
 265:Generated_Source\PSoC4/CapSense_Gesture.c ****                     touchParams->currentPosition[CapSense_FIRST_FINGER_ID].x = tmpPosX;
 266:Generated_Source\PSoC4/CapSense_Gesture.c **** 
 267:Generated_Source\PSoC4/CapSense_Gesture.c ****                     /* Cypress ID: #233241 */
 268:Generated_Source\PSoC4/CapSense_Gesture.c ****                     tmpPosY = ptrRamWdgtTp->position.pos[CapSense_FIRST_FINGER_ID].y;
 269:Generated_Source\PSoC4/CapSense_Gesture.c ****                     tmpPosY = (tmpPosY != CapSense_TOUCHPAD_POS_NONE) ? (ptrFlashWdgt->yResolution 
 270:Generated_Source\PSoC4/CapSense_Gesture.c ****                     touchParams->currentPosition[CapSense_FIRST_FINGER_ID].y = tmpPosY;
 271:Generated_Source\PSoC4/CapSense_Gesture.c **** 
 272:Generated_Source\PSoC4/CapSense_Gesture.c ****                     tmpPosX = ptrRamWdgtTp->position.pos[CapSense_SECOND_FINGER_ID].x;
 273:Generated_Source\PSoC4/CapSense_Gesture.c ****                     touchParams->currentPosition[CapSense_SECOND_FINGER_ID].x = tmpPosX;
 274:Generated_Source\PSoC4/CapSense_Gesture.c **** 
 275:Generated_Source\PSoC4/CapSense_Gesture.c ****                     tmpPosY = ptrRamWdgtTp->position.pos[CapSense_SECOND_FINGER_ID].y;
 276:Generated_Source\PSoC4/CapSense_Gesture.c ****                     tmpPosY = (tmpPosY != CapSense_TOUCHPAD_POS_NONE) ? (ptrFlashWdgt->yResolution 
 277:Generated_Source\PSoC4/CapSense_Gesture.c ****                     touchParams->currentPosition[CapSense_SECOND_FINGER_ID].y = tmpPosY;
 278:Generated_Source\PSoC4/CapSense_Gesture.c ****                 }
 279:Generated_Source\PSoC4/CapSense_Gesture.c ****             #endif /* (CapSense_ENABLE == CapSense_CENTROID_5X5_CSD_EN) */
 280:Generated_Source\PSoC4/CapSense_Gesture.c **** 
 281:Generated_Source\PSoC4/CapSense_Gesture.c ****             #if (CapSense_ENABLE == CapSense_CENTROID_3X3_CSD_EN)
 282:Generated_Source\PSoC4/CapSense_Gesture.c ****                 if (0u != (ptrFlashWdgt->staticConfig & CapSense_CENTROID_3X3_MASK))
 283:Generated_Source\PSoC4/CapSense_Gesture.c ****                 {
 284:Generated_Source\PSoC4/CapSense_Gesture.c ****                     if((CapSense_TOUCHPAD_POS_NONE != ptrRamWdgtTp->posX) && (CapSense_TOUCHPAD_POS
 285:Generated_Source\PSoC4/CapSense_Gesture.c ****                     {
 286:Generated_Source\PSoC4/CapSense_Gesture.c ****                         touchParams->touchNumber = 1u;
 287:Generated_Source\PSoC4/CapSense_Gesture.c ****                     }
 288:Generated_Source\PSoC4/CapSense_Gesture.c ****                     else
 289:Generated_Source\PSoC4/CapSense_Gesture.c ****                     {
ARM GAS  C:\Users\inspiron\AppData\Local\Temp\ccE3NmEm.s 			page 7


 290:Generated_Source\PSoC4/CapSense_Gesture.c ****                         touchParams->touchNumber = 0u;
 291:Generated_Source\PSoC4/CapSense_Gesture.c ****                     }
 292:Generated_Source\PSoC4/CapSense_Gesture.c **** 
 293:Generated_Source\PSoC4/CapSense_Gesture.c ****                     touchParams->maxTouchNumber = 1u;
 294:Generated_Source\PSoC4/CapSense_Gesture.c ****                     tmpPosX = ptrRamWdgtTp->posX;
 295:Generated_Source\PSoC4/CapSense_Gesture.c ****                     touchParams->currentPosition[CapSense_FIRST_FINGER_ID].x = tmpPosX;
 296:Generated_Source\PSoC4/CapSense_Gesture.c **** 
 297:Generated_Source\PSoC4/CapSense_Gesture.c ****                     /* Cypress ID: #233241 */
 298:Generated_Source\PSoC4/CapSense_Gesture.c ****                     tmpPosY = ptrRamWdgtTp->posY;
 299:Generated_Source\PSoC4/CapSense_Gesture.c ****                     tmpPosY = (tmpPosY != CapSense_TOUCHPAD_POS_NONE) ? (ptrFlashWdgt->yResolution 
 300:Generated_Source\PSoC4/CapSense_Gesture.c ****                     touchParams->currentPosition[CapSense_FIRST_FINGER_ID].y = tmpPosY;
 301:Generated_Source\PSoC4/CapSense_Gesture.c **** 
 302:Generated_Source\PSoC4/CapSense_Gesture.c ****                     touchParams->currentPosition[CapSense_SECOND_FINGER_ID].x = CapSense_TOUCHPAD_P
 303:Generated_Source\PSoC4/CapSense_Gesture.c ****                     touchParams->currentPosition[CapSense_SECOND_FINGER_ID].y = CapSense_TOUCHPAD_P
 304:Generated_Source\PSoC4/CapSense_Gesture.c ****                 }
 305:Generated_Source\PSoC4/CapSense_Gesture.c ****             #endif /* (CapSense_ENABLE == CapSense_CENTROID_3X3_CSD_EN) */
 306:Generated_Source\PSoC4/CapSense_Gesture.c ****         }
 307:Generated_Source\PSoC4/CapSense_Gesture.c ****     #endif /* (CapSense_ENABLE == CapSense_CSD_TOUCHPAD_WIDGET_EN) */
 308:Generated_Source\PSoC4/CapSense_Gesture.c **** 
 309:Generated_Source\PSoC4/CapSense_Gesture.c **** 
 310:Generated_Source\PSoC4/CapSense_Gesture.c ****     #if(CapSense_ENABLE == CapSense_CSX_TOUCHPAD_WIDGET_EN)
 311:Generated_Source\PSoC4/CapSense_Gesture.c ****         /*******************************************************************************
 312:Generated_Source\PSoC4/CapSense_Gesture.c ****         * Function Name: CapSense_GetCsxTpTouches
 313:Generated_Source\PSoC4/CapSense_Gesture.c ****         ****************************************************************************//**
 314:Generated_Source\PSoC4/CapSense_Gesture.c ****         *
 315:Generated_Source\PSoC4/CapSense_Gesture.c ****         * \brief
 316:Generated_Source\PSoC4/CapSense_Gesture.c ****         *  This function is intended to get the number of touches on CSX touchpad, the
 317:Generated_Source\PSoC4/CapSense_Gesture.c ****         *  position of each touch and the max number of touches which can be processed
 318:Generated_Source\PSoC4/CapSense_Gesture.c ****         *  to recognize gestures.
 319:Generated_Source\PSoC4/CapSense_Gesture.c ****         *
 320:Generated_Source\PSoC4/CapSense_Gesture.c ****         * \details
 321:Generated_Source\PSoC4/CapSense_Gesture.c ****         *  This function implements calculation of the number of touches on CSX touchpad,
 322:Generated_Source\PSoC4/CapSense_Gesture.c ****         *  getting coordinates of each touch and the max number of touches which can be
 323:Generated_Source\PSoC4/CapSense_Gesture.c ****         *  processed to recognize gestures for the current CSX touchpad configuration.
 324:Generated_Source\PSoC4/CapSense_Gesture.c ****         *  Functions returns the X and Y coordinates of each touch.
 325:Generated_Source\PSoC4/CapSense_Gesture.c ****         *  This is an internal function. Calling this function from application layer is
 326:Generated_Source\PSoC4/CapSense_Gesture.c ****         *  not recommended.
 327:Generated_Source\PSoC4/CapSense_Gesture.c ****         *
 328:Generated_Source\PSoC4/CapSense_Gesture.c ****         * \param wdgtIndex
 329:Generated_Source\PSoC4/CapSense_Gesture.c ****         *  Specifies the ID number of the widget, the touch parameters needs to be
 330:Generated_Source\PSoC4/CapSense_Gesture.c ****         *  returned for.
 331:Generated_Source\PSoC4/CapSense_Gesture.c ****         *
 332:Generated_Source\PSoC4/CapSense_Gesture.c ****         * \param touchParams
 333:Generated_Source\PSoC4/CapSense_Gesture.c ****         *  Pointer to the structure which is intended to store the number of touches,
 334:Generated_Source\PSoC4/CapSense_Gesture.c ****         *  position of each touch and the max number of touches which can be processed
 335:Generated_Source\PSoC4/CapSense_Gesture.c ****         *  to recognize gestures for widget, that is passed through the wdgtId nparameter.
 336:Generated_Source\PSoC4/CapSense_Gesture.c ****         *
 337:Generated_Source\PSoC4/CapSense_Gesture.c ****         *******************************************************************************/
 338:Generated_Source\PSoC4/CapSense_Gesture.c ****         __STATIC_INLINE void CapSense_GetCsxTpTouches(uint32 wdgtIndex, CapSense_TOUCH_PARAM_STRUCT
 339:Generated_Source\PSoC4/CapSense_Gesture.c ****         {
 340:Generated_Source\PSoC4/CapSense_Gesture.c ****             uint8 error;
 341:Generated_Source\PSoC4/CapSense_Gesture.c ****             uint8 curFinger;
 342:Generated_Source\PSoC4/CapSense_Gesture.c **** 
 343:Generated_Source\PSoC4/CapSense_Gesture.c ****             uint16 tmpPosX;
 344:Generated_Source\PSoC4/CapSense_Gesture.c ****             uint16 tmpPosY;
 345:Generated_Source\PSoC4/CapSense_Gesture.c **** 
 346:Generated_Source\PSoC4/CapSense_Gesture.c ****             static uint8 prevTouchNumber = 0u;
ARM GAS  C:\Users\inspiron\AppData\Local\Temp\ccE3NmEm.s 			page 8


 347:Generated_Source\PSoC4/CapSense_Gesture.c ****             static uint8 prevTouchId[CapSense_CSX_MAX_FINGERS];
 348:Generated_Source\PSoC4/CapSense_Gesture.c **** 
 349:Generated_Source\PSoC4/CapSense_Gesture.c ****             CapSense_FLASH_WD_STRUCT const *ptrFlashWdgt;
 350:Generated_Source\PSoC4/CapSense_Gesture.c ****             CapSense_RAM_WD_CSX_TOUCHPAD_STRUCT *ptrRamWdgtTp;
 351:Generated_Source\PSoC4/CapSense_Gesture.c **** 
 352:Generated_Source\PSoC4/CapSense_Gesture.c ****             ptrFlashWdgt = &CapSense_dsFlash.wdgtArray[wdgtIndex];
 353:Generated_Source\PSoC4/CapSense_Gesture.c ****             ptrRamWdgtTp = (CapSense_RAM_WD_CSX_TOUCHPAD_STRUCT*)ptrFlashWdgt->ptr2WdgtRam;
  54              		.loc 1 353 0
  55 0012 C200     		lsls	r2, r0, #3
  56 0014 121A     		subs	r2, r2, r0
  57 0016 D300     		lsls	r3, r2, #3
  58              	.LVL4:
  59 0018 224A     		ldr	r2, .L13
  60              	.LVL5:
  61 001a D318     		adds	r3, r2, r3
  62              	.LVL6:
  63 001c 5C68     		ldr	r4, [r3, #4]
  64              	.LVL7:
 354:Generated_Source\PSoC4/CapSense_Gesture.c **** 
 355:Generated_Source\PSoC4/CapSense_Gesture.c ****             touchParams->touchNumber = (uint8)CapSense_dsRam.snsStatus[wdgtIndex];
  65              		.loc 1 355 0
  66 001e 224B     		ldr	r3, .L13+4
  67              	.LVL8:
  68 0020 1B18     		adds	r3, r3, r0
  69 0022 1A7E     		ldrb	r2, [r3, #24]
  70              	.LVL9:
  71 0024 4A72     		strb	r2, [r1, #9]
 356:Generated_Source\PSoC4/CapSense_Gesture.c **** 
 357:Generated_Source\PSoC4/CapSense_Gesture.c ****             tmpPosX = ptrRamWdgtTp->touch[CapSense_FIRST_FINGER_ID].x;
  72              		.loc 1 357 0
  73 0026 238A     		ldrh	r3, [r4, #16]
  74              	.LVL10:
 358:Generated_Source\PSoC4/CapSense_Gesture.c ****             touchParams->currentPosition[CapSense_FIRST_FINGER_ID].x = tmpPosX;
  75              		.loc 1 358 0
  76 0028 0B80     		strh	r3, [r1]
 359:Generated_Source\PSoC4/CapSense_Gesture.c **** 
 360:Generated_Source\PSoC4/CapSense_Gesture.c ****             /* Cypress ID: #233241 */
 361:Generated_Source\PSoC4/CapSense_Gesture.c ****             tmpPosY = ptrRamWdgtTp->touch[CapSense_FIRST_FINGER_ID].y;
  77              		.loc 1 361 0
  78 002a 638A     		ldrh	r3, [r4, #18]
  79              	.LVL11:
 362:Generated_Source\PSoC4/CapSense_Gesture.c ****             tmpPosY = (tmpPosY != CapSense_TOUCHPAD_POS_NONE) ? (ptrFlashWdgt->yResolution - tmpPos
  80              		.loc 1 362 0
  81 002c 1F4D     		ldr	r5, .L13+8
  82 002e AB42     		cmp	r3, r5
  83 0030 07D0     		beq	.L4
  84 0032 C500     		lsls	r5, r0, #3
  85              	.LVL12:
  86 0034 281A     		subs	r0, r5, r0
  87              	.LVL13:
  88 0036 C500     		lsls	r5, r0, #3
  89              	.LVL14:
  90 0038 1A48     		ldr	r0, .L13
  91              	.LVL15:
  92 003a 4519     		adds	r5, r0, r5
  93              	.LVL16:
  94 003c 288C     		ldrh	r0, [r5, #32]
ARM GAS  C:\Users\inspiron\AppData\Local\Temp\ccE3NmEm.s 			page 9


  95 003e C31A     		subs	r3, r0, r3
  96              	.LVL17:
  97 0040 9BB2     		uxth	r3, r3
  98              	.LVL18:
  99              	.L4:
 363:Generated_Source\PSoC4/CapSense_Gesture.c ****             touchParams->currentPosition[CapSense_FIRST_FINGER_ID].y = tmpPosY;
 100              		.loc 1 363 0
 101 0042 4B80     		strh	r3, [r1, #2]
 364:Generated_Source\PSoC4/CapSense_Gesture.c **** 
 365:Generated_Source\PSoC4/CapSense_Gesture.c ****             #if(CapSense_CSX_MAX_FINGERS > 1u)
 366:Generated_Source\PSoC4/CapSense_Gesture.c ****                 touchParams->maxTouchNumber = 2u;
 367:Generated_Source\PSoC4/CapSense_Gesture.c ****                 tmpPosX = ptrRamWdgtTp->touch[CapSense_SECOND_FINGER_ID].x;
 368:Generated_Source\PSoC4/CapSense_Gesture.c ****                 touchParams->currentPosition[CapSense_SECOND_FINGER_ID].x = tmpPosX;
 369:Generated_Source\PSoC4/CapSense_Gesture.c **** 
 370:Generated_Source\PSoC4/CapSense_Gesture.c ****                 /* Cypress ID: #233241 */
 371:Generated_Source\PSoC4/CapSense_Gesture.c ****                 tmpPosY = ptrRamWdgtTp->touch[CapSense_SECOND_FINGER_ID].y;
 372:Generated_Source\PSoC4/CapSense_Gesture.c ****                 tmpPosY = (tmpPosY != CapSense_TOUCHPAD_POS_NONE) ? (ptrFlashWdgt->yResolution - tm
 373:Generated_Source\PSoC4/CapSense_Gesture.c ****                 touchParams->currentPosition[CapSense_SECOND_FINGER_ID].y = tmpPosY;
 374:Generated_Source\PSoC4/CapSense_Gesture.c ****             #else
 375:Generated_Source\PSoC4/CapSense_Gesture.c ****                 touchParams->maxTouchNumber = 1u;
 102              		.loc 1 375 0
 103 0044 0123     		movs	r3, #1
 104              	.LVL19:
 105 0046 8B72     		strb	r3, [r1, #10]
 376:Generated_Source\PSoC4/CapSense_Gesture.c ****                 touchParams->currentPosition[CapSense_SECOND_FINGER_ID].x = CapSense_TOUCHPAD_POS_N
 106              		.loc 1 376 0
 107 0048 023B     		subs	r3, r3, #2
 108 004a 8B80     		strh	r3, [r1, #4]
 377:Generated_Source\PSoC4/CapSense_Gesture.c ****                 touchParams->currentPosition[CapSense_SECOND_FINGER_ID].y = CapSense_TOUCHPAD_POS_N
 109              		.loc 1 377 0
 110 004c CB80     		strh	r3, [r1, #6]
 111              	.LVL20:
 378:Generated_Source\PSoC4/CapSense_Gesture.c ****             #endif /* (CapSense_CSX_MAX_FINGERS > 1u) */
 379:Generated_Source\PSoC4/CapSense_Gesture.c **** 
 380:Generated_Source\PSoC4/CapSense_Gesture.c ****             error = 0u;
 381:Generated_Source\PSoC4/CapSense_Gesture.c ****             #if (CapSense_CSX_MAX_FINGERS == 1u)
 382:Generated_Source\PSoC4/CapSense_Gesture.c ****                 if((touchParams->touchNumber == 1u) && (prevTouchNumber == 1u))
 112              		.loc 1 382 0
 113 004e 012A     		cmp	r2, #1
 114 0050 0AD1     		bne	.L9
 115 0052 174B     		ldr	r3, .L13+12
 116 0054 1B78     		ldrb	r3, [r3]
 117 0056 012B     		cmp	r3, #1
 118 0058 08D1     		bne	.L10
 383:Generated_Source\PSoC4/CapSense_Gesture.c ****                 {
 384:Generated_Source\PSoC4/CapSense_Gesture.c ****                     if(prevTouchId[0u] != ptrRamWdgtTp->touch[0u].id)
 119              		.loc 1 384 0
 120 005a 154B     		ldr	r3, .L13+12
 121 005c 1879     		ldrb	r0, [r3, #4]
 122 005e 637D     		ldrb	r3, [r4, #21]
 123 0060 9842     		cmp	r0, r3
 124 0062 05D1     		bne	.L11
 380:Generated_Source\PSoC4/CapSense_Gesture.c ****             #if (CapSense_CSX_MAX_FINGERS == 1u)
 125              		.loc 1 380 0
 126 0064 0025     		movs	r5, #0
 127 0066 04E0     		b	.L5
 128              	.L9:
ARM GAS  C:\Users\inspiron\AppData\Local\Temp\ccE3NmEm.s 			page 10


 129 0068 0025     		movs	r5, #0
 130 006a 02E0     		b	.L5
 131              	.L10:
 132 006c 0025     		movs	r5, #0
 133 006e 00E0     		b	.L5
 134              	.L11:
 385:Generated_Source\PSoC4/CapSense_Gesture.c ****                     {
 386:Generated_Source\PSoC4/CapSense_Gesture.c ****                         error++;
 135              		.loc 1 386 0
 136 0070 0125     		movs	r5, #1
 137              	.L5:
 138              	.LVL21:
 387:Generated_Source\PSoC4/CapSense_Gesture.c ****                     }
 388:Generated_Source\PSoC4/CapSense_Gesture.c ****                 }
 389:Generated_Source\PSoC4/CapSense_Gesture.c ****             #else
 390:Generated_Source\PSoC4/CapSense_Gesture.c ****                 if (touchParams->touchNumber == 1u)
 391:Generated_Source\PSoC4/CapSense_Gesture.c ****                 {
 392:Generated_Source\PSoC4/CapSense_Gesture.c ****                     if (prevTouchNumber == 1u)
 393:Generated_Source\PSoC4/CapSense_Gesture.c ****                     {
 394:Generated_Source\PSoC4/CapSense_Gesture.c ****                         if (prevTouchId[0u] != ptrRamWdgtTp->touch[0u].id)
 395:Generated_Source\PSoC4/CapSense_Gesture.c ****                         {
 396:Generated_Source\PSoC4/CapSense_Gesture.c ****                             error++;
 397:Generated_Source\PSoC4/CapSense_Gesture.c ****                         }
 398:Generated_Source\PSoC4/CapSense_Gesture.c ****                     }
 399:Generated_Source\PSoC4/CapSense_Gesture.c ****                     else if (prevTouchNumber > 1u)
 400:Generated_Source\PSoC4/CapSense_Gesture.c ****                     {
 401:Generated_Source\PSoC4/CapSense_Gesture.c ****                         if ((prevTouchId[0u] != ptrRamWdgtTp->touch[0u].id) &&
 402:Generated_Source\PSoC4/CapSense_Gesture.c ****                             (prevTouchId[1u] != ptrRamWdgtTp->touch[0u].id))
 403:Generated_Source\PSoC4/CapSense_Gesture.c ****                         {
 404:Generated_Source\PSoC4/CapSense_Gesture.c ****                             error++;
 405:Generated_Source\PSoC4/CapSense_Gesture.c ****                         }
 406:Generated_Source\PSoC4/CapSense_Gesture.c ****                     }
 407:Generated_Source\PSoC4/CapSense_Gesture.c ****                     else
 408:Generated_Source\PSoC4/CapSense_Gesture.c ****                     {
 409:Generated_Source\PSoC4/CapSense_Gesture.c ****                         /* Do nothing */
 410:Generated_Source\PSoC4/CapSense_Gesture.c ****                     }
 411:Generated_Source\PSoC4/CapSense_Gesture.c ****                 }
 412:Generated_Source\PSoC4/CapSense_Gesture.c ****                 else if (touchParams->touchNumber == 2u)
 413:Generated_Source\PSoC4/CapSense_Gesture.c ****                 {
 414:Generated_Source\PSoC4/CapSense_Gesture.c ****                     if (prevTouchNumber > 0u)
 415:Generated_Source\PSoC4/CapSense_Gesture.c ****                     {
 416:Generated_Source\PSoC4/CapSense_Gesture.c ****                         if (prevTouchId[0u] != ptrRamWdgtTp->touch[0u].id)
 417:Generated_Source\PSoC4/CapSense_Gesture.c ****                         {
 418:Generated_Source\PSoC4/CapSense_Gesture.c ****                             error++;
 419:Generated_Source\PSoC4/CapSense_Gesture.c ****                         }
 420:Generated_Source\PSoC4/CapSense_Gesture.c ****                         else if (prevTouchNumber > 1u)
 421:Generated_Source\PSoC4/CapSense_Gesture.c ****                         {
 422:Generated_Source\PSoC4/CapSense_Gesture.c ****                             if (prevTouchId[1u] != ptrRamWdgtTp->touch[1u].id)
 423:Generated_Source\PSoC4/CapSense_Gesture.c ****                             {
 424:Generated_Source\PSoC4/CapSense_Gesture.c ****                                 error++;
 425:Generated_Source\PSoC4/CapSense_Gesture.c ****                             }
 426:Generated_Source\PSoC4/CapSense_Gesture.c ****                         }
 427:Generated_Source\PSoC4/CapSense_Gesture.c ****                         else
 428:Generated_Source\PSoC4/CapSense_Gesture.c ****                         {
 429:Generated_Source\PSoC4/CapSense_Gesture.c ****                             /* Do nothing */
 430:Generated_Source\PSoC4/CapSense_Gesture.c ****                         }
 431:Generated_Source\PSoC4/CapSense_Gesture.c ****                     }
ARM GAS  C:\Users\inspiron\AppData\Local\Temp\ccE3NmEm.s 			page 11


 432:Generated_Source\PSoC4/CapSense_Gesture.c ****                 }
 433:Generated_Source\PSoC4/CapSense_Gesture.c ****                 else
 434:Generated_Source\PSoC4/CapSense_Gesture.c ****                 {
 435:Generated_Source\PSoC4/CapSense_Gesture.c ****                     /* Do nothing */
 436:Generated_Source\PSoC4/CapSense_Gesture.c ****                 }
 437:Generated_Source\PSoC4/CapSense_Gesture.c ****             #endif
 438:Generated_Source\PSoC4/CapSense_Gesture.c **** 
 439:Generated_Source\PSoC4/CapSense_Gesture.c ****             prevTouchNumber = touchParams->touchNumber;
 139              		.loc 1 439 0
 140 0072 0F4B     		ldr	r3, .L13+12
 141 0074 1A70     		strb	r2, [r3]
 142              	.LVL22:
 440:Generated_Source\PSoC4/CapSense_Gesture.c ****             for (curFinger = 0u; curFinger < CapSense_CSX_MAX_FINGERS; curFinger++)
 143              		.loc 1 440 0
 144 0076 0023     		movs	r3, #0
 145 0078 09E0     		b	.L6
 146              	.LVL23:
 147              	.L7:
 441:Generated_Source\PSoC4/CapSense_Gesture.c ****             {
 442:Generated_Source\PSoC4/CapSense_Gesture.c ****                 prevTouchId[curFinger] = ptrRamWdgtTp->touch[curFinger].id;
 148              		.loc 1 442 0
 149 007a 5800     		lsls	r0, r3, #1
 150 007c C018     		adds	r0, r0, r3
 151 007e 4200     		lsls	r2, r0, #1
 152 0080 A218     		adds	r2, r4, r2
 153 0082 507D     		ldrb	r0, [r2, #21]
 154 0084 0A4A     		ldr	r2, .L13+12
 155 0086 D218     		adds	r2, r2, r3
 156 0088 1071     		strb	r0, [r2, #4]
 440:Generated_Source\PSoC4/CapSense_Gesture.c ****             for (curFinger = 0u; curFinger < CapSense_CSX_MAX_FINGERS; curFinger++)
 157              		.loc 1 440 0
 158 008a 0133     		adds	r3, r3, #1
 159              	.LVL24:
 160 008c DBB2     		uxtb	r3, r3
 161              	.LVL25:
 162              	.L6:
 163 008e 002B     		cmp	r3, #0
 164 0090 F3D0     		beq	.L7
 443:Generated_Source\PSoC4/CapSense_Gesture.c ****             }
 444:Generated_Source\PSoC4/CapSense_Gesture.c **** 
 445:Generated_Source\PSoC4/CapSense_Gesture.c ****             if (error != 0u)
 165              		.loc 1 445 0
 166 0092 002D     		cmp	r5, #0
 167 0094 05D0     		beq	.L1
 446:Generated_Source\PSoC4/CapSense_Gesture.c ****             {
 447:Generated_Source\PSoC4/CapSense_Gesture.c ****                 touchParams->touchNumber = CapSense_CSX_ERROR_TOUCH_NUMBER;
 168              		.loc 1 447 0
 169 0096 0323     		movs	r3, #3
 170              	.LVL26:
 171 0098 4B72     		strb	r3, [r1, #9]
 172 009a 02E0     		b	.L1
 173              	.LVL27:
 174              	.L12:
 175              	.LBE5:
 176              	.LBE4:
 150:Generated_Source\PSoC4/CapSense_Gesture.c ****             break;
 177              		.loc 1 150 0 discriminator 1
ARM GAS  C:\Users\inspiron\AppData\Local\Temp\ccE3NmEm.s 			page 12


 178 009c 0020     		movs	r0, #0
 179              	.LVL28:
 180 009e FFF7FEFF 		bl	CyHalt
 181              	.LVL29:
 182              	.L1:
 153:Generated_Source\PSoC4/CapSense_Gesture.c **** 
 183              		.loc 1 153 0
 184              		@ sp needed
 185 00a2 70BD     		pop	{r4, r5, r6, pc}
 186              	.L14:
 187              		.align	2
 188              	.L13:
 189 00a4 00000000 		.word	CapSense_dsFlash
 190 00a8 00000000 		.word	CapSense_dsRam
 191 00ac FFFF0000 		.word	65535
 192 00b0 00000000 		.word	.LANCHOR0
 193              		.cfi_endproc
 194              	.LFE22:
 195              		.size	CapSense_GetTouchParams, .-CapSense_GetTouchParams
 196              		.section	.text.CapSense_InitializeGestures,"ax",%progbits
 197              		.align	2
 198              		.global	CapSense_InitializeGestures
 199              		.code	16
 200              		.thumb_func
 201              		.type	CapSense_InitializeGestures, %function
 202              	CapSense_InitializeGestures:
 203              	.LFB24:
 448:Generated_Source\PSoC4/CapSense_Gesture.c ****             }
 449:Generated_Source\PSoC4/CapSense_Gesture.c ****         }
 450:Generated_Source\PSoC4/CapSense_Gesture.c ****     #endif /* (CapSense_ENABLE == CapSense_CSX_TOUCHPAD_WIDGET_EN) */
 451:Generated_Source\PSoC4/CapSense_Gesture.c **** #endif /* (CapSense_ENABLE == CapSense_GES_GLOBAL_EN) */
 452:Generated_Source\PSoC4/CapSense_Gesture.c **** 
 453:Generated_Source\PSoC4/CapSense_Gesture.c **** 
 454:Generated_Source\PSoC4/CapSense_Gesture.c **** /*******************************************************************************
 455:Generated_Source\PSoC4/CapSense_Gesture.c **** * Function Name: CapSense_InitializeGestures
 456:Generated_Source\PSoC4/CapSense_Gesture.c **** ****************************************************************************//**
 457:Generated_Source\PSoC4/CapSense_Gesture.c **** *
 458:Generated_Source\PSoC4/CapSense_Gesture.c **** * \brief
 459:Generated_Source\PSoC4/CapSense_Gesture.c **** *  This function is intended to initialize the internal parameters of the
 460:Generated_Source\PSoC4/CapSense_Gesture.c **** *  Gestures IP.
 461:Generated_Source\PSoC4/CapSense_Gesture.c **** *
 462:Generated_Source\PSoC4/CapSense_Gesture.c **** * \details
 463:Generated_Source\PSoC4/CapSense_Gesture.c **** *  This routine initializes gesture parameters internal to the gesture
 464:Generated_Source\PSoC4/CapSense_Gesture.c **** *  algorithm. It has to be called once prior to call any API or macro which
 465:Generated_Source\PSoC4/CapSense_Gesture.c **** *  decodes gestures.
 466:Generated_Source\PSoC4/CapSense_Gesture.c **** *  This is an internal function. Calling this function from application layer is
 467:Generated_Source\PSoC4/CapSense_Gesture.c **** *  not recommended.
 468:Generated_Source\PSoC4/CapSense_Gesture.c **** *
 469:Generated_Source\PSoC4/CapSense_Gesture.c **** *******************************************************************************/
 470:Generated_Source\PSoC4/CapSense_Gesture.c **** void CapSense_InitializeGestures(void)
 471:Generated_Source\PSoC4/CapSense_Gesture.c **** {
 204              		.loc 1 471 0
 205              		.cfi_startproc
 206              		@ args = 0, pretend = 0, frame = 0
 207              		@ frame_needed = 0, uses_anonymous_args = 0
 208 0000 10B5     		push	{r4, lr}
 209              		.cfi_def_cfa_offset 8
ARM GAS  C:\Users\inspiron\AppData\Local\Temp\ccE3NmEm.s 			page 13


 210              		.cfi_offset 4, -8
 211              		.cfi_offset 14, -4
 472:Generated_Source\PSoC4/CapSense_Gesture.c ****     CapSense_dsRam.timestamp = 0uL;
 212              		.loc 1 472 0
 213 0002 0A48     		ldr	r0, .L16
 214 0004 0022     		movs	r2, #0
 215 0006 9F23     		movs	r3, #159
 216 0008 9B00     		lsls	r3, r3, #2
 217 000a C250     		str	r2, [r0, r3]
 473:Generated_Source\PSoC4/CapSense_Gesture.c **** 
 474:Generated_Source\PSoC4/CapSense_Gesture.c ****     #if(0u != CapSense_ENABLE == CapSense_GES_GLOBAL_EN)
 475:Generated_Source\PSoC4/CapSense_Gesture.c ****         CapSense_touchParams.touchNumber = 0u;
 218              		.loc 1 475 0
 219 000c 084B     		ldr	r3, .L16+4
 220 000e 5A74     		strb	r2, [r3, #17]
 476:Generated_Source\PSoC4/CapSense_Gesture.c ****         CapSense_touchParams.maxTouchNumber = 0u;
 221              		.loc 1 476 0
 222 0010 9A74     		strb	r2, [r3, #18]
 477:Generated_Source\PSoC4/CapSense_Gesture.c ****         CapSense_touchParams.touchState = CapSense_TOUCH_VALID;
 223              		.loc 1 477 0
 224 0012 1A74     		strb	r2, [r3, #16]
 478:Generated_Source\PSoC4/CapSense_Gesture.c **** 
 479:Generated_Source\PSoC4/CapSense_Gesture.c ****         CapSense_touchParams.currentPosition[CapSense_FIRST_FINGER_ID].x = CapSense_TMG_INVALID_COO
 225              		.loc 1 479 0
 226 0014 013A     		subs	r2, r2, #1
 227 0016 1A81     		strh	r2, [r3, #8]
 480:Generated_Source\PSoC4/CapSense_Gesture.c ****         CapSense_touchParams.currentPosition[CapSense_FIRST_FINGER_ID].y = CapSense_TMG_INVALID_COO
 228              		.loc 1 480 0
 229 0018 5A81     		strh	r2, [r3, #10]
 481:Generated_Source\PSoC4/CapSense_Gesture.c **** 
 482:Generated_Source\PSoC4/CapSense_Gesture.c ****         CapSense_touchParams.currentPosition[CapSense_SECOND_FINGER_ID].x = CapSense_TMG_INVALID_CO
 230              		.loc 1 482 0
 231 001a 9A81     		strh	r2, [r3, #12]
 483:Generated_Source\PSoC4/CapSense_Gesture.c ****         CapSense_touchParams.currentPosition[CapSense_SECOND_FINGER_ID].y = CapSense_TMG_INVALID_CO
 232              		.loc 1 483 0
 233 001c DA81     		strh	r2, [r3, #14]
 484:Generated_Source\PSoC4/CapSense_Gesture.c **** 
 485:Generated_Source\PSoC4/CapSense_Gesture.c ****         CapSense_TMG_InitGestures(&CapSense_dsRam.gestures);
 234              		.loc 1 485 0
 235 001e 054B     		ldr	r3, .L16+8
 236 0020 9C46     		mov	ip, r3
 237 0022 6044     		add	r0, r0, ip
 238 0024 FFF7FEFF 		bl	Gesture_Init
 239              	.LVL30:
 486:Generated_Source\PSoC4/CapSense_Gesture.c ****     #endif
 487:Generated_Source\PSoC4/CapSense_Gesture.c **** }
 240              		.loc 1 487 0
 241              		@ sp needed
 242 0028 10BD     		pop	{r4, pc}
 243              	.L17:
 244 002a C046     		.align	2
 245              	.L16:
 246 002c 00000000 		.word	CapSense_dsRam
 247 0030 00000000 		.word	.LANCHOR0
 248 0034 22020000 		.word	546
 249              		.cfi_endproc
 250              	.LFE24:
ARM GAS  C:\Users\inspiron\AppData\Local\Temp\ccE3NmEm.s 			page 14


 251              		.size	CapSense_InitializeGestures, .-CapSense_InitializeGestures
 252              		.section	.text.CapSense_DecodeWidgetGestures,"ax",%progbits
 253              		.align	2
 254              		.global	CapSense_DecodeWidgetGestures
 255              		.code	16
 256              		.thumb_func
 257              		.type	CapSense_DecodeWidgetGestures, %function
 258              	CapSense_DecodeWidgetGestures:
 259              	.LFB25:
 488:Generated_Source\PSoC4/CapSense_Gesture.c **** 
 489:Generated_Source\PSoC4/CapSense_Gesture.c **** 
 490:Generated_Source\PSoC4/CapSense_Gesture.c **** #if (CapSense_ENABLE == CapSense_GES_GLOBAL_EN)
 491:Generated_Source\PSoC4/CapSense_Gesture.c ****     /*******************************************************************************
 492:Generated_Source\PSoC4/CapSense_Gesture.c ****     * Function Name: CapSense_DecodeWidgetGestures
 493:Generated_Source\PSoC4/CapSense_Gesture.c ****     ****************************************************************************//**
 494:Generated_Source\PSoC4/CapSense_Gesture.c ****     *
 495:Generated_Source\PSoC4/CapSense_Gesture.c ****     * \brief
 496:Generated_Source\PSoC4/CapSense_Gesture.c ****     *  Decodes all enabled gestures for the specified widget and returns the
 497:Generated_Source\PSoC4/CapSense_Gesture.c ****     *  gesture code.
 498:Generated_Source\PSoC4/CapSense_Gesture.c ****     *
 499:Generated_Source\PSoC4/CapSense_Gesture.c ****     * \details
 500:Generated_Source\PSoC4/CapSense_Gesture.c ****     *  This function decodes all the enabled gestures on a specific widget and
 501:Generated_Source\PSoC4/CapSense_Gesture.c ****     *  returns a code for the detected gesture. Refer to the Gesture tab section
 502:Generated_Source\PSoC4/CapSense_Gesture.c ****     *  for more details on supported Gestures.
 503:Generated_Source\PSoC4/CapSense_Gesture.c ****     *
 504:Generated_Source\PSoC4/CapSense_Gesture.c ****     *  This function is called only after scan and data processing are completed
 505:Generated_Source\PSoC4/CapSense_Gesture.c ****     *  for the specified widget.
 506:Generated_Source\PSoC4/CapSense_Gesture.c ****     *
 507:Generated_Source\PSoC4/CapSense_Gesture.c ****     *  The Timestamp must be updated before calling this function using the
 508:Generated_Source\PSoC4/CapSense_Gesture.c ****     *  CapSense_IncrementGestureTimestamp() function.
 509:Generated_Source\PSoC4/CapSense_Gesture.c ****     *
 510:Generated_Source\PSoC4/CapSense_Gesture.c ****     * \param widgetId
 511:Generated_Source\PSoC4/CapSense_Gesture.c ****     *  Specifies the ID number of the widget to decode the gesture. A macro for the
 512:Generated_Source\PSoC4/CapSense_Gesture.c ****     *  widget ID can be found in the CapSense Configuration header file
 513:Generated_Source\PSoC4/CapSense_Gesture.c ****     *  defined as CapSense_<WidgetName>_WDGT_ID.
 514:Generated_Source\PSoC4/CapSense_Gesture.c ****     *
 515:Generated_Source\PSoC4/CapSense_Gesture.c ****     * \return
 516:Generated_Source\PSoC4/CapSense_Gesture.c ****     *  Returns the status of the gesture detection or the detected gesture code:
 517:Generated_Source\PSoC4/CapSense_Gesture.c ****     *    - CapSense_NON_VALID_PARAMETER
 518:Generated_Source\PSoC4/CapSense_Gesture.c ****     *    - CapSense_NO_GESTURE
 519:Generated_Source\PSoC4/CapSense_Gesture.c ****     *    - CapSense_UNRECOGNIZED_GESTURE
 520:Generated_Source\PSoC4/CapSense_Gesture.c ****     *    - CapSense_ONE_FINGER_TOUCHDOWN
 521:Generated_Source\PSoC4/CapSense_Gesture.c ****     *    - CapSense_ONE_FINGER_LIFT_OFF
 522:Generated_Source\PSoC4/CapSense_Gesture.c ****     *    - CapSense_ONE_FINGER_SINGLE_CLICK
 523:Generated_Source\PSoC4/CapSense_Gesture.c ****     *    - CapSense_ONE_FINGER_DOUBLE_CLICK
 524:Generated_Source\PSoC4/CapSense_Gesture.c ****     *    - CapSense_ONE_FINGER_CLICK_AND_DRAG
 525:Generated_Source\PSoC4/CapSense_Gesture.c ****     *    - CapSense_ONE_FINGER_SCROLL_UP
 526:Generated_Source\PSoC4/CapSense_Gesture.c ****     *    - CapSense_ONE_FINGER_SCROLL_DOWN
 527:Generated_Source\PSoC4/CapSense_Gesture.c ****     *    - CapSense_ONE_FINGER_SCROLL_RIGHT
 528:Generated_Source\PSoC4/CapSense_Gesture.c ****     *    - CapSense_ONE_FINGER_SCROLL_LEFT
 529:Generated_Source\PSoC4/CapSense_Gesture.c ****     *    - CapSense_ONE_FINGER_SCROLL_INERTIAL_UP
 530:Generated_Source\PSoC4/CapSense_Gesture.c ****     *    - CapSense_ONE_FINGER_SCROLL_INERTIAL_DOWN
 531:Generated_Source\PSoC4/CapSense_Gesture.c ****     *    - CapSense_ONE_FINGER_SCROLL_INERTIAL_RIGHT
 532:Generated_Source\PSoC4/CapSense_Gesture.c ****     *    - CapSense_ONE_FINGER_SCROLL_INERTIAL_LEFT
 533:Generated_Source\PSoC4/CapSense_Gesture.c ****     *    - CapSense_ONE_FINGER_FLICK_UP
 534:Generated_Source\PSoC4/CapSense_Gesture.c ****     *    - CapSense_ONE_FINGER_FLICK_DOWN
 535:Generated_Source\PSoC4/CapSense_Gesture.c ****     *    - CapSense_ONE_FINGER_FLICK_RIGHT
ARM GAS  C:\Users\inspiron\AppData\Local\Temp\ccE3NmEm.s 			page 15


 536:Generated_Source\PSoC4/CapSense_Gesture.c ****     *    - CapSense_ONE_FINGER_FLICK_LEFT
 537:Generated_Source\PSoC4/CapSense_Gesture.c ****     *    - CapSense_ONE_FINGER_FLICK_UP_RIGHT
 538:Generated_Source\PSoC4/CapSense_Gesture.c ****     *    - CapSense_ONE_FINGER_FLICK_DOWN_RIGHT
 539:Generated_Source\PSoC4/CapSense_Gesture.c ****     *    - CapSense_ONE_FINGER_FLICK_DOWN_LEFT
 540:Generated_Source\PSoC4/CapSense_Gesture.c ****     *    - CapSense_ONE_FINGER_FLICK_UP_LEFT
 541:Generated_Source\PSoC4/CapSense_Gesture.c ****     *    - CapSense_ONE_FINGER_EDGE_SWIPE_UP
 542:Generated_Source\PSoC4/CapSense_Gesture.c ****     *    - CapSense_ONE_FINGER_EDGE_SWIPE_DOWN
 543:Generated_Source\PSoC4/CapSense_Gesture.c ****     *    - CapSense_ONE_FINGER_EDGE_SWIPE_RIGTH
 544:Generated_Source\PSoC4/CapSense_Gesture.c ****     *    - CapSense_ONE_FINGER_EDGE_SWIPE_LEFT
 545:Generated_Source\PSoC4/CapSense_Gesture.c ****     *    - CapSense_ONE_FINGER_ROTATE_CW
 546:Generated_Source\PSoC4/CapSense_Gesture.c ****     *    - CapSense_ONE_FINGER_ROTATE_CCW
 547:Generated_Source\PSoC4/CapSense_Gesture.c ****     *    - CapSense_TWO_FINGER_SINGLE_CLICK
 548:Generated_Source\PSoC4/CapSense_Gesture.c ****     *    - CapSense_TWO_FINGER_SCROLL_UP
 549:Generated_Source\PSoC4/CapSense_Gesture.c ****     *    - CapSense_TWO_FINGER_SCROLL_DOWN
 550:Generated_Source\PSoC4/CapSense_Gesture.c ****     *    - CapSense_TWO_FINGER_SCROLL_RIGHT
 551:Generated_Source\PSoC4/CapSense_Gesture.c ****     *    - CapSense_TWO_FINGER_SCROLL_LEFT
 552:Generated_Source\PSoC4/CapSense_Gesture.c ****     *    - CapSense_TWO_FINGER_SCROLL_INERTIAL_UP
 553:Generated_Source\PSoC4/CapSense_Gesture.c ****     *    - CapSense_TWO_FINGER_SCROLL_INERTIAL_DOWN
 554:Generated_Source\PSoC4/CapSense_Gesture.c ****     *    - CapSense_TWO_FINGER_SCROLL_INERTIAL_RIGHT
 555:Generated_Source\PSoC4/CapSense_Gesture.c ****     *    - CapSense_TWO_FINGER_SCROLL_INERTIAL_LEFT
 556:Generated_Source\PSoC4/CapSense_Gesture.c ****     *    - CapSense_TWO_FINGER_ZOOM_IN
 557:Generated_Source\PSoC4/CapSense_Gesture.c ****     *    - CapSense_TWO_FINGER_ZOOM_OUT
 558:Generated_Source\PSoC4/CapSense_Gesture.c ****     *
 559:Generated_Source\PSoC4/CapSense_Gesture.c ****     *******************************************************************************/
 560:Generated_Source\PSoC4/CapSense_Gesture.c ****     uint32 CapSense_DecodeWidgetGestures(uint32 widgetId)
 561:Generated_Source\PSoC4/CapSense_Gesture.c ****     {
 260              		.loc 1 561 0
 261              		.cfi_startproc
 262              		@ args = 0, pretend = 0, frame = 0
 263              		@ frame_needed = 0, uses_anonymous_args = 0
 264              	.LVL31:
 265 0000 70B5     		push	{r4, r5, r6, lr}
 266              		.cfi_def_cfa_offset 16
 267              		.cfi_offset 4, -16
 268              		.cfi_offset 5, -12
 269              		.cfi_offset 6, -8
 270              		.cfi_offset 14, -4
 271 0002 041E     		subs	r4, r0, #0
 562:Generated_Source\PSoC4/CapSense_Gesture.c ****         uint32 tmpValue;
 563:Generated_Source\PSoC4/CapSense_Gesture.c **** 
 564:Generated_Source\PSoC4/CapSense_Gesture.c ****         #if (0u != CapSense_ONE_FINGER_EDGE_SWIPE_EN)
 565:Generated_Source\PSoC4/CapSense_Gesture.c ****             static uint32 gestureCounter = 0u;
 566:Generated_Source\PSoC4/CapSense_Gesture.c ****         #endif
 567:Generated_Source\PSoC4/CapSense_Gesture.c **** 
 568:Generated_Source\PSoC4/CapSense_Gesture.c ****         if(widgetId != CapSense_GESTURE_EN_WIDGET_ID)
 272              		.loc 1 568 0
 273 0004 46D1     		bne	.L26
 569:Generated_Source\PSoC4/CapSense_Gesture.c ****         {
 570:Generated_Source\PSoC4/CapSense_Gesture.c ****             tmpValue = CapSense_NON_VALID_PARAMETER;
 571:Generated_Source\PSoC4/CapSense_Gesture.c ****         }
 572:Generated_Source\PSoC4/CapSense_Gesture.c ****         else
 573:Generated_Source\PSoC4/CapSense_Gesture.c ****         {
 574:Generated_Source\PSoC4/CapSense_Gesture.c ****             CapSense_GetTouchParams(widgetId, &CapSense_touchParams);
 274              		.loc 1 574 0
 275 0006 2A4D     		ldr	r5, .L30
 276 0008 2900     		movs	r1, r5
 277 000a 0831     		adds	r1, r1, #8
ARM GAS  C:\Users\inspiron\AppData\Local\Temp\ccE3NmEm.s 			page 16


 278 000c FFF7FEFF 		bl	CapSense_GetTouchParams
 279              	.LVL32:
 575:Generated_Source\PSoC4/CapSense_Gesture.c **** 
 576:Generated_Source\PSoC4/CapSense_Gesture.c ****             switch (CapSense_touchParams.touchState)
 280              		.loc 1 576 0
 281 0010 2B7C     		ldrb	r3, [r5, #16]
 282 0012 002B     		cmp	r3, #0
 283 0014 0DD0     		beq	.L21
 284 0016 012B     		cmp	r3, #1
 285 0018 37D1     		bne	.L29
 577:Generated_Source\PSoC4/CapSense_Gesture.c ****             {
 578:Generated_Source\PSoC4/CapSense_Gesture.c ****             case CapSense_TOUCH_UNRECOGNIZED:
 579:Generated_Source\PSoC4/CapSense_Gesture.c ****                 if (CapSense_touchParams.touchNumber == 0u)
 286              		.loc 1 579 0
 287 001a 254B     		ldr	r3, .L30
 288 001c 5B7C     		ldrb	r3, [r3, #17]
 289 001e 002B     		cmp	r3, #0
 290 0020 3AD1     		bne	.L27
 580:Generated_Source\PSoC4/CapSense_Gesture.c ****                 {
 581:Generated_Source\PSoC4/CapSense_Gesture.c ****                     CapSense_touchParams.touchState = CapSense_TOUCH_VALID;
 291              		.loc 1 581 0
 292 0022 0022     		movs	r2, #0
 293 0024 224B     		ldr	r3, .L30
 294 0026 1A74     		strb	r2, [r3, #16]
 582:Generated_Source\PSoC4/CapSense_Gesture.c ****                     CapSense_TMG_InitGestures(&CapSense_dsRam.gestures);
 295              		.loc 1 582 0
 296 0028 2248     		ldr	r0, .L30+4
 297 002a FFF7FEFF 		bl	Gesture_Init
 298              	.LVL33:
 583:Generated_Source\PSoC4/CapSense_Gesture.c ****                     tmpValue = CapSense_NO_GESTURE;
 299              		.loc 1 583 0
 300 002e 0020     		movs	r0, #0
 301 0030 35E0     		b	.L19
 302              	.LVL34:
 303              	.L21:
 584:Generated_Source\PSoC4/CapSense_Gesture.c ****                 }
 585:Generated_Source\PSoC4/CapSense_Gesture.c ****                 else
 586:Generated_Source\PSoC4/CapSense_Gesture.c ****                 {
 587:Generated_Source\PSoC4/CapSense_Gesture.c ****                     tmpValue = CapSense_UNRECOGNIZED_GESTURE;
 588:Generated_Source\PSoC4/CapSense_Gesture.c ****                 }
 589:Generated_Source\PSoC4/CapSense_Gesture.c ****                 break;
 590:Generated_Source\PSoC4/CapSense_Gesture.c **** 
 591:Generated_Source\PSoC4/CapSense_Gesture.c ****             case CapSense_TOUCH_VALID:
 592:Generated_Source\PSoC4/CapSense_Gesture.c ****                 if (CapSense_touchParams.touchNumber > CapSense_touchParams.maxTouchNumber)
 304              		.loc 1 592 0
 305 0032 1F4B     		ldr	r3, .L30
 306 0034 587C     		ldrb	r0, [r3, #17]
 307 0036 9B7C     		ldrb	r3, [r3, #18]
 308 0038 9842     		cmp	r0, r3
 309 003a 04D9     		bls	.L23
 593:Generated_Source\PSoC4/CapSense_Gesture.c ****                 {
 594:Generated_Source\PSoC4/CapSense_Gesture.c ****                     CapSense_touchParams.touchState = CapSense_TOUCH_UNRECOGNIZED;
 310              		.loc 1 594 0
 311 003c 0122     		movs	r2, #1
 312 003e 1C4B     		ldr	r3, .L30
 313 0040 1A74     		strb	r2, [r3, #16]
 314              	.LVL35:
ARM GAS  C:\Users\inspiron\AppData\Local\Temp\ccE3NmEm.s 			page 17


 595:Generated_Source\PSoC4/CapSense_Gesture.c ****                     tmpValue = CapSense_UNRECOGNIZED_GESTURE;
 315              		.loc 1 595 0
 316 0042 FE20     		movs	r0, #254
 317 0044 2BE0     		b	.L19
 318              	.LVL36:
 319              	.L23:
 596:Generated_Source\PSoC4/CapSense_Gesture.c ****                 }
 597:Generated_Source\PSoC4/CapSense_Gesture.c ****                 else
 598:Generated_Source\PSoC4/CapSense_Gesture.c ****                 {
 599:Generated_Source\PSoC4/CapSense_Gesture.c ****                     tmpValue = CapSense_TMG_DecodeAllGestures((uint32)CapSense_touchParams.touchNum
 320              		.loc 1 599 0
 321 0046 9F23     		movs	r3, #159
 322 0048 9B00     		lsls	r3, r3, #2
 323 004a 1B4A     		ldr	r2, .L30+8
 324 004c D158     		ldr	r1, [r2, r3]
 325 004e 184A     		ldr	r2, .L30
 326 0050 0832     		adds	r2, r2, #8
 327 0052 FFF7FEFF 		bl	CapSense_TMG_DecodeAllGestures
 328              	.LVL37:
 600:Generated_Source\PSoC4/CapSense_Gesture.c ****                                                                       CapSense_dsRam.timestamp, Cap
 601:Generated_Source\PSoC4/CapSense_Gesture.c **** 
 602:Generated_Source\PSoC4/CapSense_Gesture.c ****                     #if (0u != CapSense_ONE_FINGER_EDGE_SWIPE_EN)
 603:Generated_Source\PSoC4/CapSense_Gesture.c ****                         /* Checks if the gesture is EGDE SWIPE */
 604:Generated_Source\PSoC4/CapSense_Gesture.c ****                         if (CapSense_ONE_FINGER_EDGE_SWIPE_GROUP == (tmpValue & CapSense_GESTURE_GR
 329              		.loc 1 604 0
 330 0056 F023     		movs	r3, #240
 331 0058 0340     		ands	r3, r0
 332 005a A02B     		cmp	r3, #160
 333 005c 03D1     		bne	.L24
 605:Generated_Source\PSoC4/CapSense_Gesture.c ****                         {
 606:Generated_Source\PSoC4/CapSense_Gesture.c ****                             /* Set flag that the gesture is EGDE SWIPE */
 607:Generated_Source\PSoC4/CapSense_Gesture.c ****                             gestureCounter = CapSense_ONE_FINGER_EDGE_SWIPE_GESTURE;
 334              		.loc 1 607 0
 335 005e A622     		movs	r2, #166
 336 0060 134B     		ldr	r3, .L30
 337 0062 5A61     		str	r2, [r3, #20]
 338 0064 08E0     		b	.L25
 339              	.L24:
 608:Generated_Source\PSoC4/CapSense_Gesture.c ****                         }
 609:Generated_Source\PSoC4/CapSense_Gesture.c ****                         else if((gestureCounter == CapSense_ONE_FINGER_EDGE_SWIPE_GESTURE) && (tmpV
 340              		.loc 1 609 0
 341 0066 124B     		ldr	r3, .L30
 342 0068 5B69     		ldr	r3, [r3, #20]
 343 006a A62B     		cmp	r3, #166
 344 006c 04D1     		bne	.L25
 345              		.loc 1 609 0 is_stmt 0 discriminator 1
 346 006e 2F28     		cmp	r0, #47
 347 0070 02D1     		bne	.L25
 610:Generated_Source\PSoC4/CapSense_Gesture.c ****                         {
 611:Generated_Source\PSoC4/CapSense_Gesture.c ****                             /* Set flag that the gesture is EGDE SWIPE after the TOUCHDOWN event on
 612:Generated_Source\PSoC4/CapSense_Gesture.c ****                             gestureCounter = 0u;
 348              		.loc 1 612 0 is_stmt 1
 349 0072 0022     		movs	r2, #0
 350 0074 0E4B     		ldr	r3, .L30
 351 0076 5A61     		str	r2, [r3, #20]
 352              	.L25:
 613:Generated_Source\PSoC4/CapSense_Gesture.c ****                         }
ARM GAS  C:\Users\inspiron\AppData\Local\Temp\ccE3NmEm.s 			page 18


 614:Generated_Source\PSoC4/CapSense_Gesture.c ****                         else
 615:Generated_Source\PSoC4/CapSense_Gesture.c ****                         {
 616:Generated_Source\PSoC4/CapSense_Gesture.c ****                             /* There was not EDGE SWIPE gestures */
 617:Generated_Source\PSoC4/CapSense_Gesture.c ****                         }
 618:Generated_Source\PSoC4/CapSense_Gesture.c **** 
 619:Generated_Source\PSoC4/CapSense_Gesture.c ****                         /* Checks if the gesture is INERTIAL_SCROLL and the TOUCHDOWN event has not
 620:Generated_Source\PSoC4/CapSense_Gesture.c ****                         if((tmpValue >= CapSense_ONE_FINGER_SCROLL_INERTIAL_UP) &&
 353              		.loc 1 620 0
 354 0078 0300     		movs	r3, r0
 355 007a B03B     		subs	r3, r3, #176
 356 007c 062B     		cmp	r3, #6
 357 007e 0ED8     		bhi	.L19
 621:Generated_Source\PSoC4/CapSense_Gesture.c ****                            (tmpValue <= CapSense_ONE_FINGER_SCROLL_INERTIAL_RIGHT) &&
 622:Generated_Source\PSoC4/CapSense_Gesture.c ****                            (gestureCounter > 0u))
 358              		.loc 1 622 0
 359 0080 0B4B     		ldr	r3, .L30
 360 0082 5B69     		ldr	r3, [r3, #20]
 621:Generated_Source\PSoC4/CapSense_Gesture.c ****                            (tmpValue <= CapSense_ONE_FINGER_SCROLL_INERTIAL_RIGHT) &&
 361              		.loc 1 621 0
 362 0084 002B     		cmp	r3, #0
 363 0086 09D1     		bne	.L28
 364 0088 09E0     		b	.L19
 365              	.LVL38:
 366              	.L29:
 623:Generated_Source\PSoC4/CapSense_Gesture.c ****                         {
 624:Generated_Source\PSoC4/CapSense_Gesture.c ****                             /* Block INERTIAL_SCROLL detecting */
 625:Generated_Source\PSoC4/CapSense_Gesture.c ****                             tmpValue = CapSense_NO_GESTURE;
 626:Generated_Source\PSoC4/CapSense_Gesture.c ****                         }
 627:Generated_Source\PSoC4/CapSense_Gesture.c ****                     #endif /* (0u != CapSense_ONE_FINGER_EDGE_SWIPE_EN) */
 628:Generated_Source\PSoC4/CapSense_Gesture.c ****                 }
 629:Generated_Source\PSoC4/CapSense_Gesture.c ****                 break;
 630:Generated_Source\PSoC4/CapSense_Gesture.c ****             default:
 631:Generated_Source\PSoC4/CapSense_Gesture.c ****                 CapSense_touchParams.touchState = CapSense_TOUCH_UNRECOGNIZED;
 367              		.loc 1 631 0
 368 008a 0122     		movs	r2, #1
 369 008c 084B     		ldr	r3, .L30
 370 008e 1A74     		strb	r2, [r3, #16]
 371              	.LVL39:
 632:Generated_Source\PSoC4/CapSense_Gesture.c ****                 tmpValue = CapSense_UNRECOGNIZED_GESTURE;
 372              		.loc 1 632 0
 373 0090 FE20     		movs	r0, #254
 633:Generated_Source\PSoC4/CapSense_Gesture.c ****                 break;
 374              		.loc 1 633 0
 375 0092 04E0     		b	.L19
 376              	.LVL40:
 377              	.L26:
 570:Generated_Source\PSoC4/CapSense_Gesture.c ****         }
 378              		.loc 1 570 0
 379 0094 FF20     		movs	r0, #255
 380              	.LVL41:
 381 0096 02E0     		b	.L19
 382              	.L27:
 587:Generated_Source\PSoC4/CapSense_Gesture.c ****                 }
 383              		.loc 1 587 0
 384 0098 FE20     		movs	r0, #254
 385 009a 00E0     		b	.L19
 386              	.LVL42:
ARM GAS  C:\Users\inspiron\AppData\Local\Temp\ccE3NmEm.s 			page 19


 387              	.L28:
 625:Generated_Source\PSoC4/CapSense_Gesture.c ****                         }
 388              		.loc 1 625 0
 389 009c 0020     		movs	r0, #0
 390              	.LVL43:
 391              	.L19:
 634:Generated_Source\PSoC4/CapSense_Gesture.c ****             }
 635:Generated_Source\PSoC4/CapSense_Gesture.c ****         }
 636:Generated_Source\PSoC4/CapSense_Gesture.c **** 
 637:Generated_Source\PSoC4/CapSense_Gesture.c ****         ((CapSense_RAM_WD_BASE_STRUCT *)(CapSense_dsFlash.wdgtArray[widgetId].ptr2WdgtRam))->gestur
 392              		.loc 1 637 0
 393 009e E200     		lsls	r2, r4, #3
 394 00a0 121B     		subs	r2, r2, r4
 395 00a2 D300     		lsls	r3, r2, #3
 396 00a4 054A     		ldr	r2, .L30+12
 397 00a6 D318     		adds	r3, r2, r3
 398 00a8 5B68     		ldr	r3, [r3, #4]
 399 00aa D872     		strb	r0, [r3, #11]
 638:Generated_Source\PSoC4/CapSense_Gesture.c **** 
 639:Generated_Source\PSoC4/CapSense_Gesture.c ****         #if ((CapSense_ENABLE == CapSense_ONE_FINGER_SCROLL_EN) || \
 640:Generated_Source\PSoC4/CapSense_Gesture.c ****              (CapSense_ENABLE == CapSense_TWO_FINGER_SCROLL_EN))
 641:Generated_Source\PSoC4/CapSense_Gesture.c **** 
 642:Generated_Source\PSoC4/CapSense_Gesture.c ****             if((tmpValue >= CapSense_ONE_FINGER_SCROLL_UP) &&
 643:Generated_Source\PSoC4/CapSense_Gesture.c ****                (tmpValue <= CapSense_TWO_FINGER_SCROLL_RIGHT))
 644:Generated_Source\PSoC4/CapSense_Gesture.c ****             {
 645:Generated_Source\PSoC4/CapSense_Gesture.c ****                 ((CapSense_RAM_WD_BASE_STRUCT *)(CapSense_dsFlash.wdgtArray[widgetId].ptr2WdgtRam))
 646:Generated_Source\PSoC4/CapSense_Gesture.c ****             }
 647:Generated_Source\PSoC4/CapSense_Gesture.c ****             if((tmpValue >= CapSense_ONE_FINGER_SCROLL_INERTIAL_UP) &&
 648:Generated_Source\PSoC4/CapSense_Gesture.c ****                (tmpValue <= CapSense_TWO_FINGER_SCROLL_INERTIAL_RIGHT))
 649:Generated_Source\PSoC4/CapSense_Gesture.c ****             {
 650:Generated_Source\PSoC4/CapSense_Gesture.c ****                 ((CapSense_RAM_WD_BASE_STRUCT *)(CapSense_dsFlash.wdgtArray[widgetId].ptr2WdgtRam))
 651:Generated_Source\PSoC4/CapSense_Gesture.c ****             }
 652:Generated_Source\PSoC4/CapSense_Gesture.c ****         #endif /* ((CapSense_ENABLE == CapSense_ONE_FINGER_SCROLL_EN) || \
 653:Generated_Source\PSoC4/CapSense_Gesture.c ****                    (CapSense_ENABLE == CapSense_TWO_FINGER_SCROLL_EN)) */
 654:Generated_Source\PSoC4/CapSense_Gesture.c **** 
 655:Generated_Source\PSoC4/CapSense_Gesture.c ****         return (tmpValue);
 656:Generated_Source\PSoC4/CapSense_Gesture.c ****     }
 400              		.loc 1 656 0
 401              		@ sp needed
 402              	.LVL44:
 403 00ac 70BD     		pop	{r4, r5, r6, pc}
 404              	.L31:
 405 00ae C046     		.align	2
 406              	.L30:
 407 00b0 00000000 		.word	.LANCHOR0
 408 00b4 22020000 		.word	CapSense_dsRam+546
 409 00b8 00000000 		.word	CapSense_dsRam
 410 00bc 00000000 		.word	CapSense_dsFlash
 411              		.cfi_endproc
 412              	.LFE25:
 413              		.size	CapSense_DecodeWidgetGestures, .-CapSense_DecodeWidgetGestures
 414              		.section	.text.CapSense_IncrementGestureTimestamp,"ax",%progbits
 415              		.align	2
 416              		.global	CapSense_IncrementGestureTimestamp
 417              		.code	16
 418              		.thumb_func
 419              		.type	CapSense_IncrementGestureTimestamp, %function
ARM GAS  C:\Users\inspiron\AppData\Local\Temp\ccE3NmEm.s 			page 20


 420              	CapSense_IncrementGestureTimestamp:
 421              	.LFB26:
 657:Generated_Source\PSoC4/CapSense_Gesture.c **** #endif /* (CapSense_ENABLE == CapSense_GES_GLOBAL_EN) */
 658:Generated_Source\PSoC4/CapSense_Gesture.c **** 
 659:Generated_Source\PSoC4/CapSense_Gesture.c **** 
 660:Generated_Source\PSoC4/CapSense_Gesture.c **** #if (CapSense_ENABLE == CapSense_BALLISTIC_MULTIPLIER_EN)
 661:Generated_Source\PSoC4/CapSense_Gesture.c **** 
 662:Generated_Source\PSoC4/CapSense_Gesture.c ****     /*******************************************************************************
 663:Generated_Source\PSoC4/CapSense_Gesture.c ****     * Function Name: CapSense_InitializeBallisticMultiplier
 664:Generated_Source\PSoC4/CapSense_Gesture.c ****     ****************************************************************************//**
 665:Generated_Source\PSoC4/CapSense_Gesture.c ****     *
 666:Generated_Source\PSoC4/CapSense_Gesture.c ****     * \brief
 667:Generated_Source\PSoC4/CapSense_Gesture.c ****     *  This function is intended to initialize the internal parameters of the
 668:Generated_Source\PSoC4/CapSense_Gesture.c ****     *  ballistic multiplier filter.
 669:Generated_Source\PSoC4/CapSense_Gesture.c ****     *
 670:Generated_Source\PSoC4/CapSense_Gesture.c ****     * \details
 671:Generated_Source\PSoC4/CapSense_Gesture.c ****     *  This routine initializes the parameters internal to the ballistic multiplier
 672:Generated_Source\PSoC4/CapSense_Gesture.c ****     *  algorithm. It has to be called once prior to call the
 673:Generated_Source\PSoC4/CapSense_Gesture.c ****     *  CapSense_RunBallisticMultiplier() function.
 674:Generated_Source\PSoC4/CapSense_Gesture.c ****     *  This is an internal function. Calling this function from application layer is
 675:Generated_Source\PSoC4/CapSense_Gesture.c ****     *  not recommended.
 676:Generated_Source\PSoC4/CapSense_Gesture.c ****     *
 677:Generated_Source\PSoC4/CapSense_Gesture.c ****     *******************************************************************************/
 678:Generated_Source\PSoC4/CapSense_Gesture.c ****     void CapSense_InitializeBallisticMultiplier(void)
 679:Generated_Source\PSoC4/CapSense_Gesture.c ****     {
 680:Generated_Source\PSoC4/CapSense_Gesture.c ****         int16 diffPosInit[CapSense_BALLISTIC_DIMENSIONS_NUM] = {0, 0};
 681:Generated_Source\PSoC4/CapSense_Gesture.c **** 
 682:Generated_Source\PSoC4/CapSense_Gesture.c ****         CapSense_bmPrevFingerNum   = 0u;
 683:Generated_Source\PSoC4/CapSense_Gesture.c ****         CapSense_dsRam.ballisticConfig.touchNumber = 0u;
 684:Generated_Source\PSoC4/CapSense_Gesture.c ****         CapSense_bmPrevFingerPos.x = CapSense_TOUCHPAD_POS_NONE;
 685:Generated_Source\PSoC4/CapSense_Gesture.c ****         CapSense_bmPrevFingerPos.y = CapSense_TOUCHPAD_POS_NONE;
 686:Generated_Source\PSoC4/CapSense_Gesture.c **** 
 687:Generated_Source\PSoC4/CapSense_Gesture.c ****         CapSense_TMG_BallisticsMultiplier(&CapSense_dsRam.ballisticConfig, CapSense_dsRam.timestamp
 688:Generated_Source\PSoC4/CapSense_Gesture.c ****     }
 689:Generated_Source\PSoC4/CapSense_Gesture.c **** 
 690:Generated_Source\PSoC4/CapSense_Gesture.c **** 
 691:Generated_Source\PSoC4/CapSense_Gesture.c ****     /*******************************************************************************
 692:Generated_Source\PSoC4/CapSense_Gesture.c ****     * Function Name: CapSense_RunBallisticMultiplier
 693:Generated_Source\PSoC4/CapSense_Gesture.c ****     ****************************************************************************//**
 694:Generated_Source\PSoC4/CapSense_Gesture.c ****     *
 695:Generated_Source\PSoC4/CapSense_Gesture.c ****     * \brief
 696:Generated_Source\PSoC4/CapSense_Gesture.c ****     *  This function runs the Ballistic multiplier algorithm fo the widget specified
 697:Generated_Source\PSoC4/CapSense_Gesture.c ****     *  by the wdgtIndex parameter.
 698:Generated_Source\PSoC4/CapSense_Gesture.c ****     *
 699:Generated_Source\PSoC4/CapSense_Gesture.c ****     * \details
 700:Generated_Source\PSoC4/CapSense_Gesture.c ****     *  The CapSense_RunBallisticMultiplier() routine implements the following functionality:
 701:Generated_Source\PSoC4/CapSense_Gesture.c ****     *   - Gets the type of the widget passed through the wdgtIndex
 702:Generated_Source\PSoC4/CapSense_Gesture.c ****     *     parameter.
 703:Generated_Source\PSoC4/CapSense_Gesture.c ****     *   - initializes the CapSense_ballisticMultiplier based on the type of
 704:Generated_Source\PSoC4/CapSense_Gesture.c ****     *     the widget passed through the wdgtIndex parameter.
 705:Generated_Source\PSoC4/CapSense_Gesture.c ****     *   - Runs the Ballistic multiplier algorithm for the specified widget.
 706:Generated_Source\PSoC4/CapSense_Gesture.c ****     *   - Writes a processed position to the posXDelta and posYDelta registers in the
 707:Generated_Source\PSoC4/CapSense_Gesture.c ****     *     CapSense_RAM_WD_CSD_TOUCHPAD_STRUCT structure.
 708:Generated_Source\PSoC4/CapSense_Gesture.c ****     *   This is an internal function. Calling this function from application layer is
 709:Generated_Source\PSoC4/CapSense_Gesture.c ****     *   not recommended.
 710:Generated_Source\PSoC4/CapSense_Gesture.c ****     *
 711:Generated_Source\PSoC4/CapSense_Gesture.c ****     * \param wdgtIndex
ARM GAS  C:\Users\inspiron\AppData\Local\Temp\ccE3NmEm.s 			page 21


 712:Generated_Source\PSoC4/CapSense_Gesture.c ****     *  Specifies the ID number of the widget, the position, processed by Ballistic multiplier
 713:Generated_Source\PSoC4/CapSense_Gesture.c ****     *  needs to be returned for.
 714:Generated_Source\PSoC4/CapSense_Gesture.c ****     *
 715:Generated_Source\PSoC4/CapSense_Gesture.c ****     *******************************************************************************/
 716:Generated_Source\PSoC4/CapSense_Gesture.c ****     void CapSense_RunBallisticMultiplier(uint32 wdgtIndex)
 717:Generated_Source\PSoC4/CapSense_Gesture.c ****     {
 718:Generated_Source\PSoC4/CapSense_Gesture.c ****         CapSense_FLASH_WD_STRUCT const *ptrFlashWdgt;
 719:Generated_Source\PSoC4/CapSense_Gesture.c ****         CapSense_RAM_WD_CSD_TOUCHPAD_STRUCT *ptrRamWdgtTp;
 720:Generated_Source\PSoC4/CapSense_Gesture.c **** 
 721:Generated_Source\PSoC4/CapSense_Gesture.c ****         uint8 fingerNum = 0u;
 722:Generated_Source\PSoC4/CapSense_Gesture.c ****         int16 diffPosition[CapSense_BALLISTIC_DIMENSIONS_NUM];
 723:Generated_Source\PSoC4/CapSense_Gesture.c ****         CapSense_TMG_POSITION_STRUCT curPos = {CapSense_TOUCHPAD_POS_NONE, CapSense_TOUCHPAD_POS_NO
 724:Generated_Source\PSoC4/CapSense_Gesture.c **** 
 725:Generated_Source\PSoC4/CapSense_Gesture.c ****         ptrFlashWdgt = &CapSense_dsFlash.wdgtArray[wdgtIndex];
 726:Generated_Source\PSoC4/CapSense_Gesture.c ****         ptrRamWdgtTp = (CapSense_RAM_WD_CSD_TOUCHPAD_STRUCT*)ptrFlashWdgt->ptr2WdgtRam;
 727:Generated_Source\PSoC4/CapSense_Gesture.c **** 
 728:Generated_Source\PSoC4/CapSense_Gesture.c ****         if(CapSense_BALLISTIC_EN_WIDGET_ID == wdgtIndex)
 729:Generated_Source\PSoC4/CapSense_Gesture.c ****         {
 730:Generated_Source\PSoC4/CapSense_Gesture.c ****             /* Get centroid position data for 5x5 CSD touchpad */
 731:Generated_Source\PSoC4/CapSense_Gesture.c ****             #if (CapSense_ENABLE == CapSense_CENTROID_5X5_CSD_EN)
 732:Generated_Source\PSoC4/CapSense_Gesture.c ****                 if (0u != (ptrFlashWdgt->staticConfig & CapSense_CENTROID_5X5_MASK))
 733:Generated_Source\PSoC4/CapSense_Gesture.c ****                 {
 734:Generated_Source\PSoC4/CapSense_Gesture.c ****                     curPos.x = ptrRamWdgtTp->position.pos[CapSense_FIRST_FINGER_ID].x;
 735:Generated_Source\PSoC4/CapSense_Gesture.c ****                     curPos.y = ptrRamWdgtTp->position.pos[CapSense_FIRST_FINGER_ID].y;
 736:Generated_Source\PSoC4/CapSense_Gesture.c ****                     fingerNum = ((CapSense_TOUCHPAD_POS_NONE != curPos.x) &&
 737:Generated_Source\PSoC4/CapSense_Gesture.c ****                                  (CapSense_TOUCHPAD_POS_NONE != curPos.y)) ? ptrRamWdgtTp->position
 738:Generated_Source\PSoC4/CapSense_Gesture.c ****                 }
 739:Generated_Source\PSoC4/CapSense_Gesture.c ****             #endif
 740:Generated_Source\PSoC4/CapSense_Gesture.c **** 
 741:Generated_Source\PSoC4/CapSense_Gesture.c ****             /* Get centroid position data for 3x3 CSD touchpad */
 742:Generated_Source\PSoC4/CapSense_Gesture.c ****             #if (CapSense_ENABLE == CapSense_CENTROID_3X3_CSD_EN)
 743:Generated_Source\PSoC4/CapSense_Gesture.c ****                 if (0u != (ptrFlashWdgt->staticConfig & CapSense_CENTROID_3X3_MASK))
 744:Generated_Source\PSoC4/CapSense_Gesture.c ****                 {
 745:Generated_Source\PSoC4/CapSense_Gesture.c ****                     curPos.x = ptrRamWdgtTp->posX;
 746:Generated_Source\PSoC4/CapSense_Gesture.c ****                     curPos.y = ptrRamWdgtTp->posY;
 747:Generated_Source\PSoC4/CapSense_Gesture.c ****                     fingerNum = ((CapSense_TOUCHPAD_POS_NONE != curPos.x) &&
 748:Generated_Source\PSoC4/CapSense_Gesture.c ****                                  (CapSense_TOUCHPAD_POS_NONE != curPos.y)) ? 1u : 0u;
 749:Generated_Source\PSoC4/CapSense_Gesture.c ****                 }
 750:Generated_Source\PSoC4/CapSense_Gesture.c ****             #endif
 751:Generated_Source\PSoC4/CapSense_Gesture.c **** 
 752:Generated_Source\PSoC4/CapSense_Gesture.c ****             /* Reset the Ballistic multiplier algorithm to initial state in case if another finger 
 753:Generated_Source\PSoC4/CapSense_Gesture.c ****              * as first.
 754:Generated_Source\PSoC4/CapSense_Gesture.c ****             */
 755:Generated_Source\PSoC4/CapSense_Gesture.c ****             if((0u != fingerNum) && (CapSense_bmPrevFingerNum > fingerNum))
 756:Generated_Source\PSoC4/CapSense_Gesture.c ****             {
 757:Generated_Source\PSoC4/CapSense_Gesture.c ****                 CapSense_InitializeBallisticMultiplier();
 758:Generated_Source\PSoC4/CapSense_Gesture.c ****             }
 759:Generated_Source\PSoC4/CapSense_Gesture.c **** 
 760:Generated_Source\PSoC4/CapSense_Gesture.c ****             if(0u != fingerNum)
 761:Generated_Source\PSoC4/CapSense_Gesture.c ****             {
 762:Generated_Source\PSoC4/CapSense_Gesture.c ****                 /* Reset the internal variables to the current values if the finger is pressing the
 763:Generated_Source\PSoC4/CapSense_Gesture.c ****                 if((CapSense_TOUCHPAD_POS_NONE == CapSense_bmPrevFingerPos.x) ||
 764:Generated_Source\PSoC4/CapSense_Gesture.c ****                    (CapSense_TOUCHPAD_POS_NONE == CapSense_bmPrevFingerPos.y))
 765:Generated_Source\PSoC4/CapSense_Gesture.c ****                 {
 766:Generated_Source\PSoC4/CapSense_Gesture.c ****                     CapSense_bmPrevFingerNum   = fingerNum;
 767:Generated_Source\PSoC4/CapSense_Gesture.c ****                     CapSense_bmPrevFingerPos.x = curPos.x;
 768:Generated_Source\PSoC4/CapSense_Gesture.c ****                     CapSense_bmPrevFingerPos.y = curPos.y;
ARM GAS  C:\Users\inspiron\AppData\Local\Temp\ccE3NmEm.s 			page 22


 769:Generated_Source\PSoC4/CapSense_Gesture.c ****                 }
 770:Generated_Source\PSoC4/CapSense_Gesture.c **** 
 771:Generated_Source\PSoC4/CapSense_Gesture.c ****                 /* Calculates the difference between current and previous XY of the first finger. *
 772:Generated_Source\PSoC4/CapSense_Gesture.c ****                 diffPosition[CapSense_X_COORDINATE_INDEX] = (int16)curPos.x - (int16)CapSense_bmPre
 773:Generated_Source\PSoC4/CapSense_Gesture.c ****                 diffPosition[CapSense_Y_COORDINATE_INDEX] = (int16)curPos.y - (int16)CapSense_bmPre
 774:Generated_Source\PSoC4/CapSense_Gesture.c ****             }
 775:Generated_Source\PSoC4/CapSense_Gesture.c ****             else
 776:Generated_Source\PSoC4/CapSense_Gesture.c ****             {
 777:Generated_Source\PSoC4/CapSense_Gesture.c ****                 /* Set the difference between current and previous XY and current number of fingers
 778:Generated_Source\PSoC4/CapSense_Gesture.c ****                  * to "0" if there are no touches detected.
 779:Generated_Source\PSoC4/CapSense_Gesture.c ****                 */
 780:Generated_Source\PSoC4/CapSense_Gesture.c ****                 fingerNum = 0u;
 781:Generated_Source\PSoC4/CapSense_Gesture.c ****                 diffPosition[CapSense_X_COORDINATE_INDEX] = 0;
 782:Generated_Source\PSoC4/CapSense_Gesture.c ****                 diffPosition[CapSense_Y_COORDINATE_INDEX] = 0;
 783:Generated_Source\PSoC4/CapSense_Gesture.c ****             }
 784:Generated_Source\PSoC4/CapSense_Gesture.c **** 
 785:Generated_Source\PSoC4/CapSense_Gesture.c ****             /* Initialize the touchNumber field of the ballisticConfig structure with the actual nu
 786:Generated_Source\PSoC4/CapSense_Gesture.c ****              * on the touchpad surface.
 787:Generated_Source\PSoC4/CapSense_Gesture.c ****             */
 788:Generated_Source\PSoC4/CapSense_Gesture.c ****             CapSense_dsRam.ballisticConfig.touchNumber = fingerNum;
 789:Generated_Source\PSoC4/CapSense_Gesture.c **** 
 790:Generated_Source\PSoC4/CapSense_Gesture.c ****             /* Run the Ballistic multiplier algorithm. */
 791:Generated_Source\PSoC4/CapSense_Gesture.c ****             CapSense_TMG_BallisticsMultiplier(&CapSense_dsRam.ballisticConfig, CapSense_dsRam.times
 792:Generated_Source\PSoC4/CapSense_Gesture.c **** 
 793:Generated_Source\PSoC4/CapSense_Gesture.c ****             /* Save the processed difference to the target registers. */
 794:Generated_Source\PSoC4/CapSense_Gesture.c ****             ptrRamWdgtTp->posXDelta = diffPosition[CapSense_X_COORDINATE_INDEX];
 795:Generated_Source\PSoC4/CapSense_Gesture.c ****             ptrRamWdgtTp->posYDelta = diffPosition[CapSense_Y_COORDINATE_INDEX];
 796:Generated_Source\PSoC4/CapSense_Gesture.c **** 
 797:Generated_Source\PSoC4/CapSense_Gesture.c ****             /* Store the cuttent XY position of the first finger and the number of fingers on the t
 798:Generated_Source\PSoC4/CapSense_Gesture.c ****              * the next call of the CapSense_RunBallisticMultiplier() function.
 799:Generated_Source\PSoC4/CapSense_Gesture.c ****             */
 800:Generated_Source\PSoC4/CapSense_Gesture.c ****             CapSense_bmPrevFingerNum   = fingerNum;
 801:Generated_Source\PSoC4/CapSense_Gesture.c ****             CapSense_bmPrevFingerPos.x = curPos.x;
 802:Generated_Source\PSoC4/CapSense_Gesture.c ****             CapSense_bmPrevFingerPos.y = curPos.y;
 803:Generated_Source\PSoC4/CapSense_Gesture.c ****         }
 804:Generated_Source\PSoC4/CapSense_Gesture.c ****         else
 805:Generated_Source\PSoC4/CapSense_Gesture.c ****         {
 806:Generated_Source\PSoC4/CapSense_Gesture.c ****             /* Set the posXDelta and posYDelta registers to "0" in case of call this function for w
 807:Generated_Source\PSoC4/CapSense_Gesture.c ****             ptrRamWdgtTp->posXDelta = 0;
 808:Generated_Source\PSoC4/CapSense_Gesture.c ****             ptrRamWdgtTp->posYDelta = 0;
 809:Generated_Source\PSoC4/CapSense_Gesture.c ****         }
 810:Generated_Source\PSoC4/CapSense_Gesture.c ****     }
 811:Generated_Source\PSoC4/CapSense_Gesture.c **** #endif /* (CapSense_ENABLE == CapSense_BALLISTIC_MULTIPLIER_EN) */
 812:Generated_Source\PSoC4/CapSense_Gesture.c **** 
 813:Generated_Source\PSoC4/CapSense_Gesture.c **** 
 814:Generated_Source\PSoC4/CapSense_Gesture.c **** /*******************************************************************************
 815:Generated_Source\PSoC4/CapSense_Gesture.c **** * Function Name: CapSense_IncrementGestureTimestamp
 816:Generated_Source\PSoC4/CapSense_Gesture.c **** ****************************************************************************//**
 817:Generated_Source\PSoC4/CapSense_Gesture.c **** *
 818:Generated_Source\PSoC4/CapSense_Gesture.c **** * \brief
 819:Generated_Source\PSoC4/CapSense_Gesture.c **** *  Increases the timestamp register for the predefined timestamp interval.
 820:Generated_Source\PSoC4/CapSense_Gesture.c **** *
 821:Generated_Source\PSoC4/CapSense_Gesture.c **** * \details
 822:Generated_Source\PSoC4/CapSense_Gesture.c **** *  This function increments the Component timestamp
 823:Generated_Source\PSoC4/CapSense_Gesture.c **** *  (CapSense_TIMESTAMP_VALUE register) by the interval specified
 824:Generated_Source\PSoC4/CapSense_Gesture.c **** *  in the CapSense_TIMESTAMP_INTERVAL_VALUE register. The unit for
 825:Generated_Source\PSoC4/CapSense_Gesture.c **** *  both registers is millisecond and default value of
ARM GAS  C:\Users\inspiron\AppData\Local\Temp\ccE3NmEm.s 			page 23


 826:Generated_Source\PSoC4/CapSense_Gesture.c **** *  CapSense_TIMESTAMP_INTERVAL_VALUE is 1.
 827:Generated_Source\PSoC4/CapSense_Gesture.c **** *
 828:Generated_Source\PSoC4/CapSense_Gesture.c **** *  It is the application layer responsibility to periodically call this
 829:Generated_Source\PSoC4/CapSense_Gesture.c **** *  function or register a periodic callback to this function to keep the
 830:Generated_Source\PSoC4/CapSense_Gesture.c **** *  Component timestamp updated and operational, which is vital for the
 831:Generated_Source\PSoC4/CapSense_Gesture.c **** *  operation of Gesture and Ballistic multiplier features.
 832:Generated_Source\PSoC4/CapSense_Gesture.c **** *
 833:Generated_Source\PSoC4/CapSense_Gesture.c **** *  The Component timestamp can be updated in one of the three methods:
 834:Generated_Source\PSoC4/CapSense_Gesture.c **** *  - Register a periodic callback for the
 835:Generated_Source\PSoC4/CapSense_Gesture.c **** *    CapSense_IncrementGestureTimestamp() function.
 836:Generated_Source\PSoC4/CapSense_Gesture.c **** *  - Periodically call the CapSense_IncrementGestureTimestamp() function
 837:Generated_Source\PSoC4/CapSense_Gesture.c **** *    by application layer.
 838:Generated_Source\PSoC4/CapSense_Gesture.c **** *  - Directly modify the timestamp using the
 839:Generated_Source\PSoC4/CapSense_Gesture.c **** *    CapSense_SetGestureTimestamp() function.
 840:Generated_Source\PSoC4/CapSense_Gesture.c **** *
 841:Generated_Source\PSoC4/CapSense_Gesture.c **** *  The interval at which this function is called should match with interval
 842:Generated_Source\PSoC4/CapSense_Gesture.c **** *  defined in CapSense_TIMESTAMP_INTERVAL_VALUE register. Either the
 843:Generated_Source\PSoC4/CapSense_Gesture.c **** *  register value can be updated to match the callback interval or the callback
 844:Generated_Source\PSoC4/CapSense_Gesture.c **** *  can be made at interval set in the register.
 845:Generated_Source\PSoC4/CapSense_Gesture.c **** *
 846:Generated_Source\PSoC4/CapSense_Gesture.c **** *  If a timestamp is available from another source or from host controller,
 847:Generated_Source\PSoC4/CapSense_Gesture.c **** *  application layer may choose to periodically update the Component timestamp
 848:Generated_Source\PSoC4/CapSense_Gesture.c **** *  by using CapSense_SetGestureTimestamp() function instead of
 849:Generated_Source\PSoC4/CapSense_Gesture.c **** *  registering a callback.
 850:Generated_Source\PSoC4/CapSense_Gesture.c **** *
 851:Generated_Source\PSoC4/CapSense_Gesture.c **** *******************************************************************************/
 852:Generated_Source\PSoC4/CapSense_Gesture.c **** void CapSense_IncrementGestureTimestamp(void)
 853:Generated_Source\PSoC4/CapSense_Gesture.c **** {
 422              		.loc 1 853 0
 423              		.cfi_startproc
 424              		@ args = 0, pretend = 0, frame = 0
 425              		@ frame_needed = 0, uses_anonymous_args = 0
 426              		@ link register save eliminated.
 854:Generated_Source\PSoC4/CapSense_Gesture.c ****     CapSense_dsRam.timestamp += CapSense_dsRam.timestampInterval;
 427              		.loc 1 854 0
 428 0000 054B     		ldr	r3, .L33
 429 0002 9E22     		movs	r2, #158
 430 0004 9200     		lsls	r2, r2, #2
 431 0006 9A58     		ldr	r2, [r3, r2]
 432 0008 9F21     		movs	r1, #159
 433 000a 8900     		lsls	r1, r1, #2
 434 000c 5858     		ldr	r0, [r3, r1]
 435 000e 8446     		mov	ip, r0
 436 0010 6244     		add	r2, r2, ip
 437 0012 5A50     		str	r2, [r3, r1]
 855:Generated_Source\PSoC4/CapSense_Gesture.c **** }
 438              		.loc 1 855 0
 439              		@ sp needed
 440 0014 7047     		bx	lr
 441              	.L34:
 442 0016 C046     		.align	2
 443              	.L33:
 444 0018 00000000 		.word	CapSense_dsRam
 445              		.cfi_endproc
 446              	.LFE26:
 447              		.size	CapSense_IncrementGestureTimestamp, .-CapSense_IncrementGestureTimestamp
 448              		.section	.text.CapSense_SetGestureTimestamp,"ax",%progbits
ARM GAS  C:\Users\inspiron\AppData\Local\Temp\ccE3NmEm.s 			page 24


 449              		.align	2
 450              		.global	CapSense_SetGestureTimestamp
 451              		.code	16
 452              		.thumb_func
 453              		.type	CapSense_SetGestureTimestamp, %function
 454              	CapSense_SetGestureTimestamp:
 455              	.LFB27:
 856:Generated_Source\PSoC4/CapSense_Gesture.c **** 
 857:Generated_Source\PSoC4/CapSense_Gesture.c **** 
 858:Generated_Source\PSoC4/CapSense_Gesture.c **** /*******************************************************************************
 859:Generated_Source\PSoC4/CapSense_Gesture.c **** * Function Name: CapSense_SetGestureTimestamp
 860:Generated_Source\PSoC4/CapSense_Gesture.c **** ****************************************************************************//**
 861:Generated_Source\PSoC4/CapSense_Gesture.c **** *
 862:Generated_Source\PSoC4/CapSense_Gesture.c **** * \brief
 863:Generated_Source\PSoC4/CapSense_Gesture.c **** *  Rewrites the timestamp register by the specified value.
 864:Generated_Source\PSoC4/CapSense_Gesture.c **** *
 865:Generated_Source\PSoC4/CapSense_Gesture.c **** * \details
 866:Generated_Source\PSoC4/CapSense_Gesture.c **** *  This function writes the specified value into the Component timestamp
 867:Generated_Source\PSoC4/CapSense_Gesture.c **** *  (i.e. CapSense_TIMESTAMP_VALUE register).
 868:Generated_Source\PSoC4/CapSense_Gesture.c **** *
 869:Generated_Source\PSoC4/CapSense_Gesture.c **** *  If a timestamp is available from another source or from host controller,
 870:Generated_Source\PSoC4/CapSense_Gesture.c **** *  application layer may choose to periodically update the Component timestamp
 871:Generated_Source\PSoC4/CapSense_Gesture.c **** *  by using this function instead of registering a callback.
 872:Generated_Source\PSoC4/CapSense_Gesture.c **** *
 873:Generated_Source\PSoC4/CapSense_Gesture.c **** *  It is not recommended to modify the Component timestamp arbitrarily or
 874:Generated_Source\PSoC4/CapSense_Gesture.c **** *  simultaneously use with the CapSense_IncrementGestureTimestamp()
 875:Generated_Source\PSoC4/CapSense_Gesture.c **** *  function.
 876:Generated_Source\PSoC4/CapSense_Gesture.c **** *
 877:Generated_Source\PSoC4/CapSense_Gesture.c **** * \param timestampValue
 878:Generated_Source\PSoC4/CapSense_Gesture.c **** *  Specifies the timestamp value (in ms).
 879:Generated_Source\PSoC4/CapSense_Gesture.c **** *
 880:Generated_Source\PSoC4/CapSense_Gesture.c **** *******************************************************************************/
 881:Generated_Source\PSoC4/CapSense_Gesture.c **** void CapSense_SetGestureTimestamp(uint32 timestampValue)
 882:Generated_Source\PSoC4/CapSense_Gesture.c **** {
 456              		.loc 1 882 0
 457              		.cfi_startproc
 458              		@ args = 0, pretend = 0, frame = 0
 459              		@ frame_needed = 0, uses_anonymous_args = 0
 460              		@ link register save eliminated.
 461              	.LVL45:
 883:Generated_Source\PSoC4/CapSense_Gesture.c ****     CapSense_dsRam.timestamp = timestampValue;
 462              		.loc 1 883 0
 463 0000 9F23     		movs	r3, #159
 464 0002 9B00     		lsls	r3, r3, #2
 465 0004 014A     		ldr	r2, .L36
 466 0006 D050     		str	r0, [r2, r3]
 884:Generated_Source\PSoC4/CapSense_Gesture.c **** }
 467              		.loc 1 884 0
 468              		@ sp needed
 469 0008 7047     		bx	lr
 470              	.L37:
 471 000a C046     		.align	2
 472              	.L36:
 473 000c 00000000 		.word	CapSense_dsRam
 474              		.cfi_endproc
 475              	.LFE27:
 476              		.size	CapSense_SetGestureTimestamp, .-CapSense_SetGestureTimestamp
ARM GAS  C:\Users\inspiron\AppData\Local\Temp\ccE3NmEm.s 			page 25


 477              		.bss
 478              		.align	2
 479              		.set	.LANCHOR0,. + 0
 480              		.type	prevTouchNumber.5297, %object
 481              		.size	prevTouchNumber.5297, 1
 482              	prevTouchNumber.5297:
 483 0000 00       		.space	1
 484 0001 000000   		.space	3
 485              		.type	prevTouchId.5298, %object
 486              		.size	prevTouchId.5298, 1
 487              	prevTouchId.5298:
 488 0004 00       		.space	1
 489 0005 000000   		.space	3
 490              		.type	CapSense_touchParams, %object
 491              		.size	CapSense_touchParams, 12
 492              	CapSense_touchParams:
 493 0008 00000000 		.space	12
 493      00000000 
 493      00000000 
 494              		.type	gestureCounter.5311, %object
 495              		.size	gestureCounter.5311, 4
 496              	gestureCounter.5311:
 497 0014 00000000 		.space	4
 498              		.text
 499              	.Letext0:
 500              		.file 2 "c:\\program files (x86)\\cypress\\psoc creator\\4.4\\psoc creator\\import\\gnu\\arm\\5.4.
 501              		.file 3 "c:\\program files (x86)\\cypress\\psoc creator\\4.4\\psoc creator\\import\\gnu\\arm\\5.4.
 502              		.file 4 "Generated_Source\\PSoC4\\cytypes.h"
 503              		.file 5 "Generated_Source\\PSoC4\\CapSense_TMG.h"
 504              		.file 6 "Generated_Source\\PSoC4\\CapSense_Configuration.h"
 505              		.file 7 "Generated_Source\\PSoC4\\CapSense_Structure.h"
 506              		.file 8 "Generated_Source\\PSoC4\\CapSense_Gesture.h"
 507              		.file 9 "Generated_Source\\PSoC4\\CyLib.h"