ARM GAS  C:\Users\inspiron\AppData\Local\Temp\cc3AwUZg.s 			page 1


   1              		.syntax unified
   2              		.cpu cortex-m0plus
   3              		.fpu softvfp
   4              		.eabi_attribute 20, 1
   5              		.eabi_attribute 21, 1
   6              		.eabi_attribute 23, 3
   7              		.eabi_attribute 24, 1
   8              		.eabi_attribute 25, 1
   9              		.eabi_attribute 26, 1
  10              		.eabi_attribute 30, 1
  11              		.eabi_attribute 34, 0
  12              		.eabi_attribute 18, 4
  13              		.thumb
  14              		.syntax unified
  15              		.file	"CapSense_Structure.c"
  16              		.text
  17              	.Ltext0:
  18              		.cfi_sections	.debug_frame
  19              		.section	.text.DsParseParamId,"ax",%progbits
  20              		.align	2
  21              		.code	16
  22              		.thumb_func
  23              		.type	DsParseParamId, %function
  24              	DsParseParamId:
  25              	.LFB2:
  26              		.file 1 "Generated_Source\\PSoC4\\CapSense_Structure.c"
   1:Generated_Source\PSoC4/CapSense_Structure.c **** /***************************************************************************//**
   2:Generated_Source\PSoC4/CapSense_Structure.c **** * \file CapSense_Structure.c
   3:Generated_Source\PSoC4/CapSense_Structure.c **** * \version 7.0
   4:Generated_Source\PSoC4/CapSense_Structure.c **** *
   5:Generated_Source\PSoC4/CapSense_Structure.c **** * \brief
   6:Generated_Source\PSoC4/CapSense_Structure.c **** *   This file defines the data structure global variables and provides implementation
   7:Generated_Source\PSoC4/CapSense_Structure.c **** *   for the high-level and low-level APIs of the Data Structure module.
   8:Generated_Source\PSoC4/CapSense_Structure.c **** *
   9:Generated_Source\PSoC4/CapSense_Structure.c **** * \see CapSense v7.0 Datasheet
  10:Generated_Source\PSoC4/CapSense_Structure.c **** *
  11:Generated_Source\PSoC4/CapSense_Structure.c **** *//*****************************************************************************
  12:Generated_Source\PSoC4/CapSense_Structure.c **** * Copyright (2016-2019), Cypress Semiconductor Corporation.
  13:Generated_Source\PSoC4/CapSense_Structure.c **** ********************************************************************************
  14:Generated_Source\PSoC4/CapSense_Structure.c **** * This software is owned by Cypress Semiconductor Corporation (Cypress) and is
  15:Generated_Source\PSoC4/CapSense_Structure.c **** * protected by and subject to worldwide patent protection (United States and
  16:Generated_Source\PSoC4/CapSense_Structure.c **** * foreign), United States copyright laws and international treaty provisions.
  17:Generated_Source\PSoC4/CapSense_Structure.c **** * Cypress hereby grants to licensee a personal, non-exclusive, non-transferable
  18:Generated_Source\PSoC4/CapSense_Structure.c **** * license to copy, use, modify, create derivative works of, and compile the
  19:Generated_Source\PSoC4/CapSense_Structure.c **** * Cypress Source Code and derivative works for the sole purpose of creating
  20:Generated_Source\PSoC4/CapSense_Structure.c **** * custom software in support of licensee product to be used only in conjunction
  21:Generated_Source\PSoC4/CapSense_Structure.c **** * with a Cypress integrated circuit as specified in the applicable agreement.
  22:Generated_Source\PSoC4/CapSense_Structure.c **** * Any reproduction, modification, translation, compilation, or representation of
  23:Generated_Source\PSoC4/CapSense_Structure.c **** * this software except as specified above is prohibited without the express
  24:Generated_Source\PSoC4/CapSense_Structure.c **** * written permission of Cypress.
  25:Generated_Source\PSoC4/CapSense_Structure.c **** *
  26:Generated_Source\PSoC4/CapSense_Structure.c **** * Disclaimer: CYPRESS MAKES NO WARRANTY OF ANY KIND, EXPRESS OR IMPLIED, WITH
  27:Generated_Source\PSoC4/CapSense_Structure.c **** * REGARD TO THIS MATERIAL, INCLUDING, BUT NOT LIMITED TO, THE IMPLIED
  28:Generated_Source\PSoC4/CapSense_Structure.c **** * WARRANTIES OF MERCHANTABILITY AND FITNESS FOR A PARTICULAR PURPOSE.
  29:Generated_Source\PSoC4/CapSense_Structure.c **** * Cypress reserves the right to make changes without further notice to the
  30:Generated_Source\PSoC4/CapSense_Structure.c **** * materials described herein. Cypress does not assume any liability arising out
  31:Generated_Source\PSoC4/CapSense_Structure.c **** * of the application or use of any product or circuit described herein. Cypress
ARM GAS  C:\Users\inspiron\AppData\Local\Temp\cc3AwUZg.s 			page 2


  32:Generated_Source\PSoC4/CapSense_Structure.c **** * does not authorize its products for use as critical components in life-support
  33:Generated_Source\PSoC4/CapSense_Structure.c **** * systems where a malfunction or failure may reasonably be expected to result in
  34:Generated_Source\PSoC4/CapSense_Structure.c **** * significant injury to the user. The inclusion of Cypress' product in a life-
  35:Generated_Source\PSoC4/CapSense_Structure.c **** * support systems application implies that the manufacturer assumes all risk of
  36:Generated_Source\PSoC4/CapSense_Structure.c **** * such use and in doing so indemnifies Cypress against all charges. Use may be
  37:Generated_Source\PSoC4/CapSense_Structure.c **** * limited by and subject to the applicable Cypress software license agreement.
  38:Generated_Source\PSoC4/CapSense_Structure.c **** *******************************************************************************/
  39:Generated_Source\PSoC4/CapSense_Structure.c **** 
  40:Generated_Source\PSoC4/CapSense_Structure.c **** #include <cytypes.h>
  41:Generated_Source\PSoC4/CapSense_Structure.c **** #include "CyLib.h"
  42:Generated_Source\PSoC4/CapSense_Structure.c **** #include "CapSense_Structure.h"
  43:Generated_Source\PSoC4/CapSense_Structure.c **** #include "CapSense_Configuration.h"
  44:Generated_Source\PSoC4/CapSense_Structure.c **** 
  45:Generated_Source\PSoC4/CapSense_Structure.c **** #if (0u != CapSense_ADC_EN)
  46:Generated_Source\PSoC4/CapSense_Structure.c ****     #include "CapSense_Adc.h"
  47:Generated_Source\PSoC4/CapSense_Structure.c **** #endif /* (0u != CapSense_ADC_EN) */
  48:Generated_Source\PSoC4/CapSense_Structure.c **** 
  49:Generated_Source\PSoC4/CapSense_Structure.c **** #if (CapSense_ENABLE == CapSense_SELF_TEST_EN)
  50:Generated_Source\PSoC4/CapSense_Structure.c ****     #include "CapSense_SelfTest.h"
  51:Generated_Source\PSoC4/CapSense_Structure.c **** #endif
  52:Generated_Source\PSoC4/CapSense_Structure.c **** 
  53:Generated_Source\PSoC4/CapSense_Structure.c **** #if (CapSense_ENABLE == CapSense_CENTROID_5X5_CSD_EN)
  54:Generated_Source\PSoC4/CapSense_Structure.c ****     #include "CapSense_AdvancedCentroid_LL.h"
  55:Generated_Source\PSoC4/CapSense_Structure.c **** #endif
  56:Generated_Source\PSoC4/CapSense_Structure.c **** 
  57:Generated_Source\PSoC4/CapSense_Structure.c **** #if (CapSense_ENABLE == CapSense_GES_GLOBAL_EN)
  58:Generated_Source\PSoC4/CapSense_Structure.c ****     #include "CapSense_Gesture.h"
  59:Generated_Source\PSoC4/CapSense_Structure.c **** #endif /* (CapSense_ENABLE == CapSense_GES_GLOBAL_EN) */
  60:Generated_Source\PSoC4/CapSense_Structure.c **** 
  61:Generated_Source\PSoC4/CapSense_Structure.c **** /*******************************************************************************
  62:Generated_Source\PSoC4/CapSense_Structure.c **** * Defines the RAM Data Structure variables and their init data in flash
  63:Generated_Source\PSoC4/CapSense_Structure.c **** *******************************************************************************/
  64:Generated_Source\PSoC4/CapSense_Structure.c **** /**
  65:Generated_Source\PSoC4/CapSense_Structure.c **** * \cond SECTION_GLOBAL_VARIABLES
  66:Generated_Source\PSoC4/CapSense_Structure.c **** * \addtogroup group_global_variables
  67:Generated_Source\PSoC4/CapSense_Structure.c **** * \{
  68:Generated_Source\PSoC4/CapSense_Structure.c **** */
  69:Generated_Source\PSoC4/CapSense_Structure.c **** 
  70:Generated_Source\PSoC4/CapSense_Structure.c **** /**
  71:Generated_Source\PSoC4/CapSense_Structure.c **** * The variable that contains the CapSense configuration, settings and
  72:Generated_Source\PSoC4/CapSense_Structure.c **** * scanning results. CapSense_dsRam represents RAM Data Structure.
  73:Generated_Source\PSoC4/CapSense_Structure.c **** */
  74:Generated_Source\PSoC4/CapSense_Structure.c **** CapSense_RAM_STRUCT CapSense_dsRam;
  75:Generated_Source\PSoC4/CapSense_Structure.c **** /** \}
  76:Generated_Source\PSoC4/CapSense_Structure.c **** * \endcond */
  77:Generated_Source\PSoC4/CapSense_Structure.c **** 
  78:Generated_Source\PSoC4/CapSense_Structure.c **** /*******************************************************************************
  79:Generated_Source\PSoC4/CapSense_Structure.c **** * Declares Widget's De-bounce Counters
  80:Generated_Source\PSoC4/CapSense_Structure.c **** *******************************************************************************/
  81:Generated_Source\PSoC4/CapSense_Structure.c **** 
  82:Generated_Source\PSoC4/CapSense_Structure.c **** 
  83:Generated_Source\PSoC4/CapSense_Structure.c **** /***************************************************************************//**
  84:Generated_Source\PSoC4/CapSense_Structure.c **** * Declares CSX Touchpad data
  85:Generated_Source\PSoC4/CapSense_Structure.c **** *******************************************************************************/
  86:Generated_Source\PSoC4/CapSense_Structure.c **** static CapSense_CSX_TOUCHPAD_DATA_STRUCT CapSense_csxTouchpadData_Touchpad0;
  87:Generated_Source\PSoC4/CapSense_Structure.c **** 
  88:Generated_Source\PSoC4/CapSense_Structure.c **** 
ARM GAS  C:\Users\inspiron\AppData\Local\Temp\cc3AwUZg.s 			page 3


  89:Generated_Source\PSoC4/CapSense_Structure.c **** /***************************************************************************//**
  90:Generated_Source\PSoC4/CapSense_Structure.c **** * Centroid positions history
  91:Generated_Source\PSoC4/CapSense_Structure.c **** *******************************************************************************/
  92:Generated_Source\PSoC4/CapSense_Structure.c **** static CapSense_TOUCHPAD_POS_HISTORY_STRUCT CapSense_posHistoryTouchpad0[CapSense_CSX_MAX_FINGERS];
  93:Generated_Source\PSoC4/CapSense_Structure.c **** 
  94:Generated_Source\PSoC4/CapSense_Structure.c **** /*******************************************************************************
  95:Generated_Source\PSoC4/CapSense_Structure.c **** * Defines and initializes the Flash Data Structure
  96:Generated_Source\PSoC4/CapSense_Structure.c **** *******************************************************************************/
  97:Generated_Source\PSoC4/CapSense_Structure.c **** 
  98:Generated_Source\PSoC4/CapSense_Structure.c **** 
  99:Generated_Source\PSoC4/CapSense_Structure.c **** 
 100:Generated_Source\PSoC4/CapSense_Structure.c **** /**
 101:Generated_Source\PSoC4/CapSense_Structure.c **** * \cond SECTION_API_CONSTANTS
 102:Generated_Source\PSoC4/CapSense_Structure.c **** * \addtogroup group_api_constants
 103:Generated_Source\PSoC4/CapSense_Structure.c **** * \{
 104:Generated_Source\PSoC4/CapSense_Structure.c **** */
 105:Generated_Source\PSoC4/CapSense_Structure.c **** /**
 106:Generated_Source\PSoC4/CapSense_Structure.c **** * Constant for the FLASH Data Structure
 107:Generated_Source\PSoC4/CapSense_Structure.c **** */
 108:Generated_Source\PSoC4/CapSense_Structure.c **** const CapSense_FLASH_STRUCT CapSense_dsFlash =
 109:Generated_Source\PSoC4/CapSense_Structure.c **** {
 110:Generated_Source\PSoC4/CapSense_Structure.c ****     /* Flash Widget Initialization Data */
 111:Generated_Source\PSoC4/CapSense_Structure.c ****     {
 112:Generated_Source\PSoC4/CapSense_Structure.c ****         { /* Touchpad0 */
 113:Generated_Source\PSoC4/CapSense_Structure.c ****             &CapSense_ioList[0u],
 114:Generated_Source\PSoC4/CapSense_Structure.c ****             (void *)&CapSense_dsRam.wdgtList.touchpad0,
 115:Generated_Source\PSoC4/CapSense_Structure.c ****             CapSense_dsRam.snsList.touchpad0,
 116:Generated_Source\PSoC4/CapSense_Structure.c ****             (void *)0u,
 117:Generated_Source\PSoC4/CapSense_Structure.c ****             (void *)0u,
 118:Generated_Source\PSoC4/CapSense_Structure.c ****             CapSense_TOUCHPAD0_STATIC_CONFIG,
 119:Generated_Source\PSoC4/CapSense_Structure.c ****             (CapSense_TOUCHPAD0_NUM_RX) * (CapSense_TOUCHPAD0_NUM_TX),
 120:Generated_Source\PSoC4/CapSense_Structure.c ****             (uint8)CapSense_WD_TOUCHPAD_E,
 121:Generated_Source\PSoC4/CapSense_Structure.c ****             CapSense_TOUCHPAD0_NUM_RX,
 122:Generated_Source\PSoC4/CapSense_Structure.c ****             CapSense_TOUCHPAD0_NUM_TX,
 123:Generated_Source\PSoC4/CapSense_Structure.c ****             CapSense_TOUCHPAD0_X_RESOLUTION,
 124:Generated_Source\PSoC4/CapSense_Structure.c ****             CapSense_TOUCHPAD0_Y_RESOLUTION,
 125:Generated_Source\PSoC4/CapSense_Structure.c ****             CapSense_TOUCHPAD0_X_CENT_MULT,
 126:Generated_Source\PSoC4/CapSense_Structure.c ****             CapSense_TOUCHPAD0_Y_CENT_MULT,
 127:Generated_Source\PSoC4/CapSense_Structure.c ****             &CapSense_csxTouchpadData_Touchpad0,
 128:Generated_Source\PSoC4/CapSense_Structure.c ****             (void *)&CapSense_posHistoryTouchpad0,
 129:Generated_Source\PSoC4/CapSense_Structure.c ****             CapSense_TOUCHPAD0_IIR_FILTER_COEFF,
 130:Generated_Source\PSoC4/CapSense_Structure.c ****         },
 131:Generated_Source\PSoC4/CapSense_Structure.c ****     },
 132:Generated_Source\PSoC4/CapSense_Structure.c **** };
 133:Generated_Source\PSoC4/CapSense_Structure.c **** 
 134:Generated_Source\PSoC4/CapSense_Structure.c **** /**
 135:Generated_Source\PSoC4/CapSense_Structure.c **** * The array of the pointers to the electrode specific register.
 136:Generated_Source\PSoC4/CapSense_Structure.c **** */
 137:Generated_Source\PSoC4/CapSense_Structure.c **** const CapSense_FLASH_IO_STRUCT CapSense_ioList[CapSense_TOTAL_ELECTRODES] =
 138:Generated_Source\PSoC4/CapSense_Structure.c **** {
 139:Generated_Source\PSoC4/CapSense_Structure.c ****     { /* 0: Touchpad0_Rx0 */
 140:Generated_Source\PSoC4/CapSense_Structure.c ****         (reg32 *)CapSense_Rx__0__HSIOM,
 141:Generated_Source\PSoC4/CapSense_Structure.c ****         (reg32 *)CapSense_Rx__0__PC,
 142:Generated_Source\PSoC4/CapSense_Structure.c ****         (reg32 *)CapSense_Rx__0__DR,
 143:Generated_Source\PSoC4/CapSense_Structure.c ****         (reg32 *)CapSense_Rx__0__PS,
 144:Generated_Source\PSoC4/CapSense_Structure.c ****         CapSense_Rx__0__HSIOM_MASK,
 145:Generated_Source\PSoC4/CapSense_Structure.c ****         CapSense_Rx__0__MASK,
ARM GAS  C:\Users\inspiron\AppData\Local\Temp\cc3AwUZg.s 			page 4


 146:Generated_Source\PSoC4/CapSense_Structure.c ****         CapSense_Rx__0__HSIOM_SHIFT,
 147:Generated_Source\PSoC4/CapSense_Structure.c ****         (uint8)CapSense_Rx__0__SHIFT,
 148:Generated_Source\PSoC4/CapSense_Structure.c ****         (uint8)CapSense_Rx__0__SHIFT * 3u,
 149:Generated_Source\PSoC4/CapSense_Structure.c ****     },
 150:Generated_Source\PSoC4/CapSense_Structure.c ****     { /* 1: Touchpad0_Rx1 */
 151:Generated_Source\PSoC4/CapSense_Structure.c ****         (reg32 *)CapSense_Rx__1__HSIOM,
 152:Generated_Source\PSoC4/CapSense_Structure.c ****         (reg32 *)CapSense_Rx__1__PC,
 153:Generated_Source\PSoC4/CapSense_Structure.c ****         (reg32 *)CapSense_Rx__1__DR,
 154:Generated_Source\PSoC4/CapSense_Structure.c ****         (reg32 *)CapSense_Rx__1__PS,
 155:Generated_Source\PSoC4/CapSense_Structure.c ****         CapSense_Rx__1__HSIOM_MASK,
 156:Generated_Source\PSoC4/CapSense_Structure.c ****         CapSense_Rx__1__MASK,
 157:Generated_Source\PSoC4/CapSense_Structure.c ****         CapSense_Rx__1__HSIOM_SHIFT,
 158:Generated_Source\PSoC4/CapSense_Structure.c ****         (uint8)CapSense_Rx__1__SHIFT,
 159:Generated_Source\PSoC4/CapSense_Structure.c ****         (uint8)CapSense_Rx__1__SHIFT * 3u,
 160:Generated_Source\PSoC4/CapSense_Structure.c ****     },
 161:Generated_Source\PSoC4/CapSense_Structure.c ****     { /* 2: Touchpad0_Rx2 */
 162:Generated_Source\PSoC4/CapSense_Structure.c ****         (reg32 *)CapSense_Rx__2__HSIOM,
 163:Generated_Source\PSoC4/CapSense_Structure.c ****         (reg32 *)CapSense_Rx__2__PC,
 164:Generated_Source\PSoC4/CapSense_Structure.c ****         (reg32 *)CapSense_Rx__2__DR,
 165:Generated_Source\PSoC4/CapSense_Structure.c ****         (reg32 *)CapSense_Rx__2__PS,
 166:Generated_Source\PSoC4/CapSense_Structure.c ****         CapSense_Rx__2__HSIOM_MASK,
 167:Generated_Source\PSoC4/CapSense_Structure.c ****         CapSense_Rx__2__MASK,
 168:Generated_Source\PSoC4/CapSense_Structure.c ****         CapSense_Rx__2__HSIOM_SHIFT,
 169:Generated_Source\PSoC4/CapSense_Structure.c ****         (uint8)CapSense_Rx__2__SHIFT,
 170:Generated_Source\PSoC4/CapSense_Structure.c ****         (uint8)CapSense_Rx__2__SHIFT * 3u,
 171:Generated_Source\PSoC4/CapSense_Structure.c ****     },
 172:Generated_Source\PSoC4/CapSense_Structure.c ****     { /* 3: Touchpad0_Rx3 */
 173:Generated_Source\PSoC4/CapSense_Structure.c ****         (reg32 *)CapSense_Rx__3__HSIOM,
 174:Generated_Source\PSoC4/CapSense_Structure.c ****         (reg32 *)CapSense_Rx__3__PC,
 175:Generated_Source\PSoC4/CapSense_Structure.c ****         (reg32 *)CapSense_Rx__3__DR,
 176:Generated_Source\PSoC4/CapSense_Structure.c ****         (reg32 *)CapSense_Rx__3__PS,
 177:Generated_Source\PSoC4/CapSense_Structure.c ****         CapSense_Rx__3__HSIOM_MASK,
 178:Generated_Source\PSoC4/CapSense_Structure.c ****         CapSense_Rx__3__MASK,
 179:Generated_Source\PSoC4/CapSense_Structure.c ****         CapSense_Rx__3__HSIOM_SHIFT,
 180:Generated_Source\PSoC4/CapSense_Structure.c ****         (uint8)CapSense_Rx__3__SHIFT,
 181:Generated_Source\PSoC4/CapSense_Structure.c ****         (uint8)CapSense_Rx__3__SHIFT * 3u,
 182:Generated_Source\PSoC4/CapSense_Structure.c ****     },
 183:Generated_Source\PSoC4/CapSense_Structure.c ****     { /* 4: Touchpad0_Rx4 */
 184:Generated_Source\PSoC4/CapSense_Structure.c ****         (reg32 *)CapSense_Rx__4__HSIOM,
 185:Generated_Source\PSoC4/CapSense_Structure.c ****         (reg32 *)CapSense_Rx__4__PC,
 186:Generated_Source\PSoC4/CapSense_Structure.c ****         (reg32 *)CapSense_Rx__4__DR,
 187:Generated_Source\PSoC4/CapSense_Structure.c ****         (reg32 *)CapSense_Rx__4__PS,
 188:Generated_Source\PSoC4/CapSense_Structure.c ****         CapSense_Rx__4__HSIOM_MASK,
 189:Generated_Source\PSoC4/CapSense_Structure.c ****         CapSense_Rx__4__MASK,
 190:Generated_Source\PSoC4/CapSense_Structure.c ****         CapSense_Rx__4__HSIOM_SHIFT,
 191:Generated_Source\PSoC4/CapSense_Structure.c ****         (uint8)CapSense_Rx__4__SHIFT,
 192:Generated_Source\PSoC4/CapSense_Structure.c ****         (uint8)CapSense_Rx__4__SHIFT * 3u,
 193:Generated_Source\PSoC4/CapSense_Structure.c ****     },
 194:Generated_Source\PSoC4/CapSense_Structure.c ****     { /* 5: Touchpad0_Rx5 */
 195:Generated_Source\PSoC4/CapSense_Structure.c ****         (reg32 *)CapSense_Rx__5__HSIOM,
 196:Generated_Source\PSoC4/CapSense_Structure.c ****         (reg32 *)CapSense_Rx__5__PC,
 197:Generated_Source\PSoC4/CapSense_Structure.c ****         (reg32 *)CapSense_Rx__5__DR,
 198:Generated_Source\PSoC4/CapSense_Structure.c ****         (reg32 *)CapSense_Rx__5__PS,
 199:Generated_Source\PSoC4/CapSense_Structure.c ****         CapSense_Rx__5__HSIOM_MASK,
 200:Generated_Source\PSoC4/CapSense_Structure.c ****         CapSense_Rx__5__MASK,
 201:Generated_Source\PSoC4/CapSense_Structure.c ****         CapSense_Rx__5__HSIOM_SHIFT,
 202:Generated_Source\PSoC4/CapSense_Structure.c ****         (uint8)CapSense_Rx__5__SHIFT,
ARM GAS  C:\Users\inspiron\AppData\Local\Temp\cc3AwUZg.s 			page 5


 203:Generated_Source\PSoC4/CapSense_Structure.c ****         (uint8)CapSense_Rx__5__SHIFT * 3u,
 204:Generated_Source\PSoC4/CapSense_Structure.c ****     },
 205:Generated_Source\PSoC4/CapSense_Structure.c ****     { /* 6: Touchpad0_Rx6 */
 206:Generated_Source\PSoC4/CapSense_Structure.c ****         (reg32 *)CapSense_Rx__6__HSIOM,
 207:Generated_Source\PSoC4/CapSense_Structure.c ****         (reg32 *)CapSense_Rx__6__PC,
 208:Generated_Source\PSoC4/CapSense_Structure.c ****         (reg32 *)CapSense_Rx__6__DR,
 209:Generated_Source\PSoC4/CapSense_Structure.c ****         (reg32 *)CapSense_Rx__6__PS,
 210:Generated_Source\PSoC4/CapSense_Structure.c ****         CapSense_Rx__6__HSIOM_MASK,
 211:Generated_Source\PSoC4/CapSense_Structure.c ****         CapSense_Rx__6__MASK,
 212:Generated_Source\PSoC4/CapSense_Structure.c ****         CapSense_Rx__6__HSIOM_SHIFT,
 213:Generated_Source\PSoC4/CapSense_Structure.c ****         (uint8)CapSense_Rx__6__SHIFT,
 214:Generated_Source\PSoC4/CapSense_Structure.c ****         (uint8)CapSense_Rx__6__SHIFT * 3u,
 215:Generated_Source\PSoC4/CapSense_Structure.c ****     },
 216:Generated_Source\PSoC4/CapSense_Structure.c ****     { /* 7: Touchpad0_Tx0 */
 217:Generated_Source\PSoC4/CapSense_Structure.c ****         (reg32 *)CapSense_Tx__0__HSIOM,
 218:Generated_Source\PSoC4/CapSense_Structure.c ****         (reg32 *)CapSense_Tx__0__PC,
 219:Generated_Source\PSoC4/CapSense_Structure.c ****         (reg32 *)CapSense_Tx__0__DR,
 220:Generated_Source\PSoC4/CapSense_Structure.c ****         (reg32 *)CapSense_Tx__0__PS,
 221:Generated_Source\PSoC4/CapSense_Structure.c ****         CapSense_Tx__0__HSIOM_MASK,
 222:Generated_Source\PSoC4/CapSense_Structure.c ****         CapSense_Tx__0__MASK,
 223:Generated_Source\PSoC4/CapSense_Structure.c ****         CapSense_Tx__0__HSIOM_SHIFT,
 224:Generated_Source\PSoC4/CapSense_Structure.c ****         (uint8)CapSense_Tx__0__SHIFT,
 225:Generated_Source\PSoC4/CapSense_Structure.c ****         (uint8)CapSense_Tx__0__SHIFT * 3u,
 226:Generated_Source\PSoC4/CapSense_Structure.c ****     },
 227:Generated_Source\PSoC4/CapSense_Structure.c ****     { /* 8: Touchpad0_Tx1 */
 228:Generated_Source\PSoC4/CapSense_Structure.c ****         (reg32 *)CapSense_Tx__1__HSIOM,
 229:Generated_Source\PSoC4/CapSense_Structure.c ****         (reg32 *)CapSense_Tx__1__PC,
 230:Generated_Source\PSoC4/CapSense_Structure.c ****         (reg32 *)CapSense_Tx__1__DR,
 231:Generated_Source\PSoC4/CapSense_Structure.c ****         (reg32 *)CapSense_Tx__1__PS,
 232:Generated_Source\PSoC4/CapSense_Structure.c ****         CapSense_Tx__1__HSIOM_MASK,
 233:Generated_Source\PSoC4/CapSense_Structure.c ****         CapSense_Tx__1__MASK,
 234:Generated_Source\PSoC4/CapSense_Structure.c ****         CapSense_Tx__1__HSIOM_SHIFT,
 235:Generated_Source\PSoC4/CapSense_Structure.c ****         (uint8)CapSense_Tx__1__SHIFT,
 236:Generated_Source\PSoC4/CapSense_Structure.c ****         (uint8)CapSense_Tx__1__SHIFT * 3u,
 237:Generated_Source\PSoC4/CapSense_Structure.c ****     },
 238:Generated_Source\PSoC4/CapSense_Structure.c ****     { /* 9: Touchpad0_Tx2 */
 239:Generated_Source\PSoC4/CapSense_Structure.c ****         (reg32 *)CapSense_Tx__2__HSIOM,
 240:Generated_Source\PSoC4/CapSense_Structure.c ****         (reg32 *)CapSense_Tx__2__PC,
 241:Generated_Source\PSoC4/CapSense_Structure.c ****         (reg32 *)CapSense_Tx__2__DR,
 242:Generated_Source\PSoC4/CapSense_Structure.c ****         (reg32 *)CapSense_Tx__2__PS,
 243:Generated_Source\PSoC4/CapSense_Structure.c ****         CapSense_Tx__2__HSIOM_MASK,
 244:Generated_Source\PSoC4/CapSense_Structure.c ****         CapSense_Tx__2__MASK,
 245:Generated_Source\PSoC4/CapSense_Structure.c ****         CapSense_Tx__2__HSIOM_SHIFT,
 246:Generated_Source\PSoC4/CapSense_Structure.c ****         (uint8)CapSense_Tx__2__SHIFT,
 247:Generated_Source\PSoC4/CapSense_Structure.c ****         (uint8)CapSense_Tx__2__SHIFT * 3u,
 248:Generated_Source\PSoC4/CapSense_Structure.c ****     },
 249:Generated_Source\PSoC4/CapSense_Structure.c ****     { /* 10: Touchpad0_Tx3 */
 250:Generated_Source\PSoC4/CapSense_Structure.c ****         (reg32 *)CapSense_Tx__3__HSIOM,
 251:Generated_Source\PSoC4/CapSense_Structure.c ****         (reg32 *)CapSense_Tx__3__PC,
 252:Generated_Source\PSoC4/CapSense_Structure.c ****         (reg32 *)CapSense_Tx__3__DR,
 253:Generated_Source\PSoC4/CapSense_Structure.c ****         (reg32 *)CapSense_Tx__3__PS,
 254:Generated_Source\PSoC4/CapSense_Structure.c ****         CapSense_Tx__3__HSIOM_MASK,
 255:Generated_Source\PSoC4/CapSense_Structure.c ****         CapSense_Tx__3__MASK,
 256:Generated_Source\PSoC4/CapSense_Structure.c ****         CapSense_Tx__3__HSIOM_SHIFT,
 257:Generated_Source\PSoC4/CapSense_Structure.c ****         (uint8)CapSense_Tx__3__SHIFT,
 258:Generated_Source\PSoC4/CapSense_Structure.c ****         (uint8)CapSense_Tx__3__SHIFT * 3u,
 259:Generated_Source\PSoC4/CapSense_Structure.c ****     },
ARM GAS  C:\Users\inspiron\AppData\Local\Temp\cc3AwUZg.s 			page 6


 260:Generated_Source\PSoC4/CapSense_Structure.c ****     { /* 11: Touchpad0_Tx4 */
 261:Generated_Source\PSoC4/CapSense_Structure.c ****         (reg32 *)CapSense_Tx__4__HSIOM,
 262:Generated_Source\PSoC4/CapSense_Structure.c ****         (reg32 *)CapSense_Tx__4__PC,
 263:Generated_Source\PSoC4/CapSense_Structure.c ****         (reg32 *)CapSense_Tx__4__DR,
 264:Generated_Source\PSoC4/CapSense_Structure.c ****         (reg32 *)CapSense_Tx__4__PS,
 265:Generated_Source\PSoC4/CapSense_Structure.c ****         CapSense_Tx__4__HSIOM_MASK,
 266:Generated_Source\PSoC4/CapSense_Structure.c ****         CapSense_Tx__4__MASK,
 267:Generated_Source\PSoC4/CapSense_Structure.c ****         CapSense_Tx__4__HSIOM_SHIFT,
 268:Generated_Source\PSoC4/CapSense_Structure.c ****         (uint8)CapSense_Tx__4__SHIFT,
 269:Generated_Source\PSoC4/CapSense_Structure.c ****         (uint8)CapSense_Tx__4__SHIFT * 3u,
 270:Generated_Source\PSoC4/CapSense_Structure.c ****     },
 271:Generated_Source\PSoC4/CapSense_Structure.c ****     { /* 12: Touchpad0_Tx5 */
 272:Generated_Source\PSoC4/CapSense_Structure.c ****         (reg32 *)CapSense_Tx__5__HSIOM,
 273:Generated_Source\PSoC4/CapSense_Structure.c ****         (reg32 *)CapSense_Tx__5__PC,
 274:Generated_Source\PSoC4/CapSense_Structure.c ****         (reg32 *)CapSense_Tx__5__DR,
 275:Generated_Source\PSoC4/CapSense_Structure.c ****         (reg32 *)CapSense_Tx__5__PS,
 276:Generated_Source\PSoC4/CapSense_Structure.c ****         CapSense_Tx__5__HSIOM_MASK,
 277:Generated_Source\PSoC4/CapSense_Structure.c ****         CapSense_Tx__5__MASK,
 278:Generated_Source\PSoC4/CapSense_Structure.c ****         CapSense_Tx__5__HSIOM_SHIFT,
 279:Generated_Source\PSoC4/CapSense_Structure.c ****         (uint8)CapSense_Tx__5__SHIFT,
 280:Generated_Source\PSoC4/CapSense_Structure.c ****         (uint8)CapSense_Tx__5__SHIFT * 3u,
 281:Generated_Source\PSoC4/CapSense_Structure.c ****     },
 282:Generated_Source\PSoC4/CapSense_Structure.c ****     { /* 13: Touchpad0_Tx6 */
 283:Generated_Source\PSoC4/CapSense_Structure.c ****         (reg32 *)CapSense_Tx__6__HSIOM,
 284:Generated_Source\PSoC4/CapSense_Structure.c ****         (reg32 *)CapSense_Tx__6__PC,
 285:Generated_Source\PSoC4/CapSense_Structure.c ****         (reg32 *)CapSense_Tx__6__DR,
 286:Generated_Source\PSoC4/CapSense_Structure.c ****         (reg32 *)CapSense_Tx__6__PS,
 287:Generated_Source\PSoC4/CapSense_Structure.c ****         CapSense_Tx__6__HSIOM_MASK,
 288:Generated_Source\PSoC4/CapSense_Structure.c ****         CapSense_Tx__6__MASK,
 289:Generated_Source\PSoC4/CapSense_Structure.c ****         CapSense_Tx__6__HSIOM_SHIFT,
 290:Generated_Source\PSoC4/CapSense_Structure.c ****         (uint8)CapSense_Tx__6__SHIFT,
 291:Generated_Source\PSoC4/CapSense_Structure.c ****         (uint8)CapSense_Tx__6__SHIFT * 3u,
 292:Generated_Source\PSoC4/CapSense_Structure.c ****     },
 293:Generated_Source\PSoC4/CapSense_Structure.c **** };
 294:Generated_Source\PSoC4/CapSense_Structure.c **** 
 295:Generated_Source\PSoC4/CapSense_Structure.c **** 
 296:Generated_Source\PSoC4/CapSense_Structure.c **** 
 297:Generated_Source\PSoC4/CapSense_Structure.c **** /** \}
 298:Generated_Source\PSoC4/CapSense_Structure.c **** * \endcond */
 299:Generated_Source\PSoC4/CapSense_Structure.c **** 
 300:Generated_Source\PSoC4/CapSense_Structure.c **** /* Initialization data for RAM widget list */
 301:Generated_Source\PSoC4/CapSense_Structure.c **** const CapSense_RAM_WD_LIST_STRUCT CapSense_ramWidgetInit =
 302:Generated_Source\PSoC4/CapSense_Structure.c **** {
 303:Generated_Source\PSoC4/CapSense_Structure.c ****     { /* Touchpad0 */
 304:Generated_Source\PSoC4/CapSense_Structure.c ****         CapSense_TOUCHPAD0_RESOLUTION,
 305:Generated_Source\PSoC4/CapSense_Structure.c ****         CapSense_TOUCHPAD0_FINGER_TH,
 306:Generated_Source\PSoC4/CapSense_Structure.c ****         CapSense_TOUCHPAD0_NOISE_TH,
 307:Generated_Source\PSoC4/CapSense_Structure.c ****         CapSense_TOUCHPAD0_NNOISE_TH,
 308:Generated_Source\PSoC4/CapSense_Structure.c ****         CapSense_TOUCHPAD0_HYSTERESIS,
 309:Generated_Source\PSoC4/CapSense_Structure.c ****         CapSense_TOUCHPAD0_ON_DEBOUNCE,
 310:Generated_Source\PSoC4/CapSense_Structure.c ****         CapSense_TOUCHPAD0_LOW_BSLN_RST,
 311:Generated_Source\PSoC4/CapSense_Structure.c ****         CapSense_TOUCHPAD0_IDAC_GAIN_INDEX,
 312:Generated_Source\PSoC4/CapSense_Structure.c ****         CapSense_TOUCHPAD0_SNS_CLK_SOURCE,
 313:Generated_Source\PSoC4/CapSense_Structure.c ****         CapSense_NO_GESTURE,
 314:Generated_Source\PSoC4/CapSense_Structure.c ****         CapSense_TOUCHPAD0_VELOCITY,
 315:Generated_Source\PSoC4/CapSense_Structure.c ****         {
 316:Generated_Source\PSoC4/CapSense_Structure.c ****             {
ARM GAS  C:\Users\inspiron\AppData\Local\Temp\cc3AwUZg.s 			page 7


 317:Generated_Source\PSoC4/CapSense_Structure.c ****                 CapSense_TOUCHPAD0_TOUCH0_X,
 318:Generated_Source\PSoC4/CapSense_Structure.c ****                 CapSense_TOUCHPAD0_TOUCH0_Y,
 319:Generated_Source\PSoC4/CapSense_Structure.c ****                 CapSense_TOUCHPAD0_TOUCH0_Z,
 320:Generated_Source\PSoC4/CapSense_Structure.c ****                 CapSense_TOUCHPAD0_TOUCH0_ID,
 321:Generated_Source\PSoC4/CapSense_Structure.c ****             },
 322:Generated_Source\PSoC4/CapSense_Structure.c ****         },
 323:Generated_Source\PSoC4/CapSense_Structure.c ****     },
 324:Generated_Source\PSoC4/CapSense_Structure.c **** };
 325:Generated_Source\PSoC4/CapSense_Structure.c **** 
 326:Generated_Source\PSoC4/CapSense_Structure.c **** 
 327:Generated_Source\PSoC4/CapSense_Structure.c **** /* IDAC Initialization Data */
 328:Generated_Source\PSoC4/CapSense_Structure.c **** const uint8 CapSense_ramIdacInit[CapSense_TOTAL_SENSORS] =
 329:Generated_Source\PSoC4/CapSense_Structure.c **** {
 330:Generated_Source\PSoC4/CapSense_Structure.c ****     /* Touchpad0 */
 331:Generated_Source\PSoC4/CapSense_Structure.c ****     CapSense_TOUCHPAD0_RX0_TX0_IDAC_COMP0,
 332:Generated_Source\PSoC4/CapSense_Structure.c ****     CapSense_TOUCHPAD0_RX0_TX1_IDAC_COMP0,
 333:Generated_Source\PSoC4/CapSense_Structure.c ****     CapSense_TOUCHPAD0_RX0_TX2_IDAC_COMP0,
 334:Generated_Source\PSoC4/CapSense_Structure.c ****     CapSense_TOUCHPAD0_RX0_TX3_IDAC_COMP0,
 335:Generated_Source\PSoC4/CapSense_Structure.c ****     CapSense_TOUCHPAD0_RX0_TX4_IDAC_COMP0,
 336:Generated_Source\PSoC4/CapSense_Structure.c ****     CapSense_TOUCHPAD0_RX0_TX5_IDAC_COMP0,
 337:Generated_Source\PSoC4/CapSense_Structure.c ****     CapSense_TOUCHPAD0_RX0_TX6_IDAC_COMP0,
 338:Generated_Source\PSoC4/CapSense_Structure.c ****     CapSense_TOUCHPAD0_RX1_TX0_IDAC_COMP0,
 339:Generated_Source\PSoC4/CapSense_Structure.c ****     CapSense_TOUCHPAD0_RX1_TX1_IDAC_COMP0,
 340:Generated_Source\PSoC4/CapSense_Structure.c ****     CapSense_TOUCHPAD0_RX1_TX2_IDAC_COMP0,
 341:Generated_Source\PSoC4/CapSense_Structure.c ****     CapSense_TOUCHPAD0_RX1_TX3_IDAC_COMP0,
 342:Generated_Source\PSoC4/CapSense_Structure.c ****     CapSense_TOUCHPAD0_RX1_TX4_IDAC_COMP0,
 343:Generated_Source\PSoC4/CapSense_Structure.c ****     CapSense_TOUCHPAD0_RX1_TX5_IDAC_COMP0,
 344:Generated_Source\PSoC4/CapSense_Structure.c ****     CapSense_TOUCHPAD0_RX1_TX6_IDAC_COMP0,
 345:Generated_Source\PSoC4/CapSense_Structure.c ****     CapSense_TOUCHPAD0_RX2_TX0_IDAC_COMP0,
 346:Generated_Source\PSoC4/CapSense_Structure.c ****     CapSense_TOUCHPAD0_RX2_TX1_IDAC_COMP0,
 347:Generated_Source\PSoC4/CapSense_Structure.c ****     CapSense_TOUCHPAD0_RX2_TX2_IDAC_COMP0,
 348:Generated_Source\PSoC4/CapSense_Structure.c ****     CapSense_TOUCHPAD0_RX2_TX3_IDAC_COMP0,
 349:Generated_Source\PSoC4/CapSense_Structure.c ****     CapSense_TOUCHPAD0_RX2_TX4_IDAC_COMP0,
 350:Generated_Source\PSoC4/CapSense_Structure.c ****     CapSense_TOUCHPAD0_RX2_TX5_IDAC_COMP0,
 351:Generated_Source\PSoC4/CapSense_Structure.c ****     CapSense_TOUCHPAD0_RX2_TX6_IDAC_COMP0,
 352:Generated_Source\PSoC4/CapSense_Structure.c ****     CapSense_TOUCHPAD0_RX3_TX0_IDAC_COMP0,
 353:Generated_Source\PSoC4/CapSense_Structure.c ****     CapSense_TOUCHPAD0_RX3_TX1_IDAC_COMP0,
 354:Generated_Source\PSoC4/CapSense_Structure.c ****     CapSense_TOUCHPAD0_RX3_TX2_IDAC_COMP0,
 355:Generated_Source\PSoC4/CapSense_Structure.c ****     CapSense_TOUCHPAD0_RX3_TX3_IDAC_COMP0,
 356:Generated_Source\PSoC4/CapSense_Structure.c ****     CapSense_TOUCHPAD0_RX3_TX4_IDAC_COMP0,
 357:Generated_Source\PSoC4/CapSense_Structure.c ****     CapSense_TOUCHPAD0_RX3_TX5_IDAC_COMP0,
 358:Generated_Source\PSoC4/CapSense_Structure.c ****     CapSense_TOUCHPAD0_RX3_TX6_IDAC_COMP0,
 359:Generated_Source\PSoC4/CapSense_Structure.c ****     CapSense_TOUCHPAD0_RX4_TX0_IDAC_COMP0,
 360:Generated_Source\PSoC4/CapSense_Structure.c ****     CapSense_TOUCHPAD0_RX4_TX1_IDAC_COMP0,
 361:Generated_Source\PSoC4/CapSense_Structure.c ****     CapSense_TOUCHPAD0_RX4_TX2_IDAC_COMP0,
 362:Generated_Source\PSoC4/CapSense_Structure.c ****     CapSense_TOUCHPAD0_RX4_TX3_IDAC_COMP0,
 363:Generated_Source\PSoC4/CapSense_Structure.c ****     CapSense_TOUCHPAD0_RX4_TX4_IDAC_COMP0,
 364:Generated_Source\PSoC4/CapSense_Structure.c ****     CapSense_TOUCHPAD0_RX4_TX5_IDAC_COMP0,
 365:Generated_Source\PSoC4/CapSense_Structure.c ****     CapSense_TOUCHPAD0_RX4_TX6_IDAC_COMP0,
 366:Generated_Source\PSoC4/CapSense_Structure.c ****     CapSense_TOUCHPAD0_RX5_TX0_IDAC_COMP0,
 367:Generated_Source\PSoC4/CapSense_Structure.c ****     CapSense_TOUCHPAD0_RX5_TX1_IDAC_COMP0,
 368:Generated_Source\PSoC4/CapSense_Structure.c ****     CapSense_TOUCHPAD0_RX5_TX2_IDAC_COMP0,
 369:Generated_Source\PSoC4/CapSense_Structure.c ****     CapSense_TOUCHPAD0_RX5_TX3_IDAC_COMP0,
 370:Generated_Source\PSoC4/CapSense_Structure.c ****     CapSense_TOUCHPAD0_RX5_TX4_IDAC_COMP0,
 371:Generated_Source\PSoC4/CapSense_Structure.c ****     CapSense_TOUCHPAD0_RX5_TX5_IDAC_COMP0,
 372:Generated_Source\PSoC4/CapSense_Structure.c ****     CapSense_TOUCHPAD0_RX5_TX6_IDAC_COMP0,
 373:Generated_Source\PSoC4/CapSense_Structure.c ****     CapSense_TOUCHPAD0_RX6_TX0_IDAC_COMP0,
ARM GAS  C:\Users\inspiron\AppData\Local\Temp\cc3AwUZg.s 			page 8


 374:Generated_Source\PSoC4/CapSense_Structure.c ****     CapSense_TOUCHPAD0_RX6_TX1_IDAC_COMP0,
 375:Generated_Source\PSoC4/CapSense_Structure.c ****     CapSense_TOUCHPAD0_RX6_TX2_IDAC_COMP0,
 376:Generated_Source\PSoC4/CapSense_Structure.c ****     CapSense_TOUCHPAD0_RX6_TX3_IDAC_COMP0,
 377:Generated_Source\PSoC4/CapSense_Structure.c ****     CapSense_TOUCHPAD0_RX6_TX4_IDAC_COMP0,
 378:Generated_Source\PSoC4/CapSense_Structure.c ****     CapSense_TOUCHPAD0_RX6_TX5_IDAC_COMP0,
 379:Generated_Source\PSoC4/CapSense_Structure.c ****     CapSense_TOUCHPAD0_RX6_TX6_IDAC_COMP0,
 380:Generated_Source\PSoC4/CapSense_Structure.c **** };
 381:Generated_Source\PSoC4/CapSense_Structure.c **** 
 382:Generated_Source\PSoC4/CapSense_Structure.c **** 
 383:Generated_Source\PSoC4/CapSense_Structure.c **** 
 384:Generated_Source\PSoC4/CapSense_Structure.c **** /* Gesture Initialization Data */
 385:Generated_Source\PSoC4/CapSense_Structure.c **** const CapSense_TMG_CONFIG_STRUCT CapSense_ramGesturesInit =
 386:Generated_Source\PSoC4/CapSense_Structure.c **** {
 387:Generated_Source\PSoC4/CapSense_Structure.c ****     sizeof(CapSense_TMG_CONFIG_STRUCT),
 388:Generated_Source\PSoC4/CapSense_Structure.c ****     8u,
 389:Generated_Source\PSoC4/CapSense_Structure.c ****     8u,
 390:Generated_Source\PSoC4/CapSense_Structure.c ****     CapSense_TOUCHPAD0_DTZM_XPOS_TH,
 391:Generated_Source\PSoC4/CapSense_Structure.c ****     CapSense_TOUCHPAD0_DTZM_YPOS_TH,
 392:Generated_Source\PSoC4/CapSense_Structure.c ****     CapSense_TOUCHPAD0_STFK_POS_TH,
 393:Generated_Source\PSoC4/CapSense_Structure.c ****     CapSense_TOUCHPAD0_STFK_YPOS_TH,
 394:Generated_Source\PSoC4/CapSense_Structure.c ****     CapSense_TOUCHPAD0_STSL_XPOS_TH1,
 395:Generated_Source\PSoC4/CapSense_Structure.c ****     CapSense_TOUCHPAD0_STSL_XPOS_TH2,
 396:Generated_Source\PSoC4/CapSense_Structure.c ****     CapSense_TOUCHPAD0_STSL_XPOS_TH3,
 397:Generated_Source\PSoC4/CapSense_Structure.c ****     CapSense_TOUCHPAD0_STSL_XPOS_TH4,
 398:Generated_Source\PSoC4/CapSense_Structure.c ****     CapSense_TOUCHPAD0_STSL_YPOS_TH1,
 399:Generated_Source\PSoC4/CapSense_Structure.c ****     CapSense_TOUCHPAD0_STSL_YPOS_TH2,
 400:Generated_Source\PSoC4/CapSense_Structure.c ****     CapSense_TOUCHPAD0_STSL_YPOS_TH3,
 401:Generated_Source\PSoC4/CapSense_Structure.c ****     CapSense_TOUCHPAD0_STSL_YPOS_TH4,
 402:Generated_Source\PSoC4/CapSense_Structure.c ****     CapSense_TOUCHPAD0_STSL_SCROLL_STEP1,
 403:Generated_Source\PSoC4/CapSense_Structure.c ****     CapSense_TOUCHPAD0_STSL_SCROLL_STEP2,
 404:Generated_Source\PSoC4/CapSense_Structure.c ****     CapSense_TOUCHPAD0_STSL_SCROLL_STEP3,
 405:Generated_Source\PSoC4/CapSense_Structure.c ****     CapSense_TOUCHPAD0_STSL_SCROLL_STEP4,
 406:Generated_Source\PSoC4/CapSense_Structure.c ****     CapSense_TOUCHPAD0_STSL_DEBOUNCE,
 407:Generated_Source\PSoC4/CapSense_Structure.c ****     CapSense_TOUCHPAD0_DTSL_XPOS_TH1,
 408:Generated_Source\PSoC4/CapSense_Structure.c ****     CapSense_TOUCHPAD0_DTSL_XPOS_TH2,
 409:Generated_Source\PSoC4/CapSense_Structure.c ****     CapSense_TOUCHPAD0_DTSL_XPOS_TH3,
 410:Generated_Source\PSoC4/CapSense_Structure.c ****     CapSense_TOUCHPAD0_DTSL_XPOS_TH4,
 411:Generated_Source\PSoC4/CapSense_Structure.c ****     CapSense_TOUCHPAD0_DTSL_YPOS_TH1,
 412:Generated_Source\PSoC4/CapSense_Structure.c ****     CapSense_TOUCHPAD0_DTSL_YPOS_TH2,
 413:Generated_Source\PSoC4/CapSense_Structure.c ****     CapSense_TOUCHPAD0_DTSL_YPOS_TH3,
 414:Generated_Source\PSoC4/CapSense_Structure.c ****     CapSense_TOUCHPAD0_DTSL_YPOS_TH4,
 415:Generated_Source\PSoC4/CapSense_Structure.c ****     CapSense_TOUCHPAD0_DTSL_SCROLL_STEP1,
 416:Generated_Source\PSoC4/CapSense_Structure.c ****     CapSense_TOUCHPAD0_DTSL_SCROLL_STEP2,
 417:Generated_Source\PSoC4/CapSense_Structure.c ****     CapSense_TOUCHPAD0_DTSL_SCROLL_STEP3,
 418:Generated_Source\PSoC4/CapSense_Structure.c ****     CapSense_TOUCHPAD0_DTSL_SCROLL_STEP4,
 419:Generated_Source\PSoC4/CapSense_Structure.c ****     CapSense_TOUCHPAD0_DTSL_DEBOUNCE,
 420:Generated_Source\PSoC4/CapSense_Structure.c ****     CapSense_TOUCHPAD0_DTZM_SCROLL_ZOOM_DEBOUNCE,
 421:Generated_Source\PSoC4/CapSense_Structure.c ****     CapSense_TOUCHPAD0_STSL_XPOS_TH,
 422:Generated_Source\PSoC4/CapSense_Structure.c ****     CapSense_TOUCHPAD0_STSL_YPOS_TH,
 423:Generated_Source\PSoC4/CapSense_Structure.c ****     CapSense_TOUCHPAD0_STSL_COUNT_LEVEL,
 424:Generated_Source\PSoC4/CapSense_Structure.c ****     CapSense_TOUCHPAD0_DTSL_XPOS_TH,
 425:Generated_Source\PSoC4/CapSense_Structure.c ****     CapSense_TOUCHPAD0_DTSL_YPOS_TH,
 426:Generated_Source\PSoC4/CapSense_Structure.c ****     CapSense_TOUCHPAD0_DTSL_COUNT_LEVEL,
 427:Generated_Source\PSoC4/CapSense_Structure.c ****     CapSense_TOUCHPAD0_STES_POS_TH,
 428:Generated_Source\PSoC4/CapSense_Structure.c ****     CapSense_TOUCHPAD0_STES_TOP_ANGLE_TH,
 429:Generated_Source\PSoC4/CapSense_Structure.c ****     CapSense_TOUCHPAD0_STES_BOTTOM_ANGLE_TH,
 430:Generated_Source\PSoC4/CapSense_Structure.c ****     CapSense_TOUCHPAD0_STES_DISAM_AREA_WIDTH,
ARM GAS  C:\Users\inspiron\AppData\Local\Temp\cc3AwUZg.s 			page 9


 431:Generated_Source\PSoC4/CapSense_Structure.c ****     3u,
 432:Generated_Source\PSoC4/CapSense_Structure.c ****     CapSense_TOUCHPAD0_DTZM_DEBOUNCE,
 433:Generated_Source\PSoC4/CapSense_Structure.c ****     CapSense_TOUCHPAD0_DTZM_DEBOUNCE,
 434:Generated_Source\PSoC4/CapSense_Structure.c ****     3u,
 435:Generated_Source\PSoC4/CapSense_Structure.c ****     CapSense_TOUCHPAD0_STRT_ROTATE_DEBOUNCE,
 436:Generated_Source\PSoC4/CapSense_Structure.c ****     0u,
 437:Generated_Source\PSoC4/CapSense_Structure.c ****     CapSense_TOUCHPAD0_STDC_MAX_RADIUS_DISPLACEMENT,
 438:Generated_Source\PSoC4/CapSense_Structure.c ****     CapSense_TOUCHPAD0_STSC_XMAX_POS_DISPLACEMENT,
 439:Generated_Source\PSoC4/CapSense_Structure.c ****     CapSense_TOUCHPAD0_STSC_YMAX_POS_DISPLACEMENT,
 440:Generated_Source\PSoC4/CapSense_Structure.c ****     CapSense_TOUCHPAD0_DT_SETTLING_TIME,
 441:Generated_Source\PSoC4/CapSense_Structure.c ****     CapSense_TOUCHPAD0_X_RESOLUTION,
 442:Generated_Source\PSoC4/CapSense_Structure.c ****     CapSense_TOUCHPAD0_Y_RESOLUTION,
 443:Generated_Source\PSoC4/CapSense_Structure.c ****     CapSense_TOUCHPAD0_STFK_MAX_SAMPLE_INTERVAL,
 444:Generated_Source\PSoC4/CapSense_Structure.c ****     CapSense_TOUCHPAD0_STES_TIMEOUT_INTERVAL,
 445:Generated_Source\PSoC4/CapSense_Structure.c ****     CapSense_TOUCHPAD0_DTSC_MAX_TOUCH_DURATION,
 446:Generated_Source\PSoC4/CapSense_Structure.c ****     CapSense_TOUCHPAD0_DTSC_MIN_TOUCH_DURATION,
 447:Generated_Source\PSoC4/CapSense_Structure.c ****     CapSense_TOUCHPAD0_STSC_MAX_TOUCH_DURATION,
 448:Generated_Source\PSoC4/CapSense_Structure.c ****     CapSense_TOUCHPAD0_STSC_MIN_TOUCH_DURATION,
 449:Generated_Source\PSoC4/CapSense_Structure.c ****     CapSense_TOUCHPAD0_STDC_MAX_TOUCH_INTERVAL,
 450:Generated_Source\PSoC4/CapSense_Structure.c ****     CapSense_TOUCHPAD0_STDC_MIN_TOUCH_INTERVAL,
 451:Generated_Source\PSoC4/CapSense_Structure.c ****     240u,
 452:Generated_Source\PSoC4/CapSense_Structure.c ****     40u,
 453:Generated_Source\PSoC4/CapSense_Structure.c ****     41u,
 454:Generated_Source\PSoC4/CapSense_Structure.c ****     48u,
 455:Generated_Source\PSoC4/CapSense_Structure.c ****     63u,
 456:Generated_Source\PSoC4/CapSense_Structure.c ****     72u,
 457:Generated_Source\PSoC4/CapSense_Structure.c ****     73u,
 458:Generated_Source\PSoC4/CapSense_Structure.c ****     144u,
 459:Generated_Source\PSoC4/CapSense_Structure.c ****     159u,
 460:Generated_Source\PSoC4/CapSense_Structure.c **** };
 461:Generated_Source\PSoC4/CapSense_Structure.c **** 
 462:Generated_Source\PSoC4/CapSense_Structure.c **** 
 463:Generated_Source\PSoC4/CapSense_Structure.c **** 
 464:Generated_Source\PSoC4/CapSense_Structure.c **** /*******************************************************************************
 465:Generated_Source\PSoC4/CapSense_Structure.c **** * Defines internal data types and statements
 466:Generated_Source\PSoC4/CapSense_Structure.c **** *******************************************************************************/
 467:Generated_Source\PSoC4/CapSense_Structure.c **** #define PARAM_TYPE_OFFSET       (30u)
 468:Generated_Source\PSoC4/CapSense_Structure.c **** #define PARAM_TYPE_MASK         (3Lu << PARAM_TYPE_OFFSET)
 469:Generated_Source\PSoC4/CapSense_Structure.c **** #define PARAM_RWBIT_OFFSET      (29u)
 470:Generated_Source\PSoC4/CapSense_Structure.c **** #define PARAM_RWBIT_MASK        (1Lu << PARAM_RWBIT_OFFSET)
 471:Generated_Source\PSoC4/CapSense_Structure.c **** #define PARAM_FBIT_OFFSET       (28u)
 472:Generated_Source\PSoC4/CapSense_Structure.c **** #define PARAM_FBIT_MASK         (1Lu << PARAM_FBIT_OFFSET)
 473:Generated_Source\PSoC4/CapSense_Structure.c **** #define PARAM_UBIT_OFFSET       (23u)
 474:Generated_Source\PSoC4/CapSense_Structure.c **** #define PARAM_UBIT_MASK         (1Lu << PARAM_UBIT_OFFSET)
 475:Generated_Source\PSoC4/CapSense_Structure.c **** #define PARAM_WDID_OFFSET       (16u)
 476:Generated_Source\PSoC4/CapSense_Structure.c **** #define PARAM_WDID_MASK         (0x7FLu << PARAM_WDID_OFFSET)
 477:Generated_Source\PSoC4/CapSense_Structure.c **** #define PARAM_CRC_OFFSET        (24u)
 478:Generated_Source\PSoC4/CapSense_Structure.c **** #define PARAM_CRC_MASK          (0x0FLu << PARAM_CRC_OFFSET)
 479:Generated_Source\PSoC4/CapSense_Structure.c **** 
 480:Generated_Source\PSoC4/CapSense_Structure.c **** /* Defines align masks for uint16 and uint32 */
 481:Generated_Source\PSoC4/CapSense_Structure.c **** #define UINT16_ALIGN_MASK       (1Lu)
 482:Generated_Source\PSoC4/CapSense_Structure.c **** #define UINT32_ALIGN_MASK       (3Lu)
 483:Generated_Source\PSoC4/CapSense_Structure.c **** 
 484:Generated_Source\PSoC4/CapSense_Structure.c **** /* Defines supported parameter types */
 485:Generated_Source\PSoC4/CapSense_Structure.c **** #define DS_PARAM_TYPE_UINT8     (0x01u)
 486:Generated_Source\PSoC4/CapSense_Structure.c **** #define DS_PARAM_TYPE_UINT16    (0x02u)
 487:Generated_Source\PSoC4/CapSense_Structure.c **** #define DS_PARAM_TYPE_UINT32    (0x03u)
ARM GAS  C:\Users\inspiron\AppData\Local\Temp\cc3AwUZg.s 			page 10


 488:Generated_Source\PSoC4/CapSense_Structure.c **** 
 489:Generated_Source\PSoC4/CapSense_Structure.c **** 
 490:Generated_Source\PSoC4/CapSense_Structure.c **** /* Defines PARAM_ID structure */
 491:Generated_Source\PSoC4/CapSense_Structure.c **** typedef struct
 492:Generated_Source\PSoC4/CapSense_Structure.c **** {
 493:Generated_Source\PSoC4/CapSense_Structure.c ****     uint16 offset;      /* parameter offset */
 494:Generated_Source\PSoC4/CapSense_Structure.c ****     uint8  widgetId;    /* widget Id parameter belongs to */
 495:Generated_Source\PSoC4/CapSense_Structure.c ****     uint8  affectsCrc;  /* parameter affects widget CRC */
 496:Generated_Source\PSoC4/CapSense_Structure.c ****     uint8  crc;         /* parameter CRC */
 497:Generated_Source\PSoC4/CapSense_Structure.c ****     uint8  flash;       /* parameter located in FLASH flag */
 498:Generated_Source\PSoC4/CapSense_Structure.c ****     uint8  rw;          /* parameter is read/write flag */
 499:Generated_Source\PSoC4/CapSense_Structure.c ****     uint8  type;        /* parameter type: uint8/uint16/uint32 */
 500:Generated_Source\PSoC4/CapSense_Structure.c **** } PARAM_ID_STRUCT;
 501:Generated_Source\PSoC4/CapSense_Structure.c **** 
 502:Generated_Source\PSoC4/CapSense_Structure.c **** 
 503:Generated_Source\PSoC4/CapSense_Structure.c **** /*******************************************************************************
 504:Generated_Source\PSoC4/CapSense_Structure.c **** * Static Function Prototypes
 505:Generated_Source\PSoC4/CapSense_Structure.c **** *******************************************************************************/
 506:Generated_Source\PSoC4/CapSense_Structure.c **** /**
 507:Generated_Source\PSoC4/CapSense_Structure.c **** * \cond SECTION_C_INTERNAL
 508:Generated_Source\PSoC4/CapSense_Structure.c **** * \addtogroup group_c_internal
 509:Generated_Source\PSoC4/CapSense_Structure.c **** * \{
 510:Generated_Source\PSoC4/CapSense_Structure.c **** */
 511:Generated_Source\PSoC4/CapSense_Structure.c **** 
 512:Generated_Source\PSoC4/CapSense_Structure.c **** 
 513:Generated_Source\PSoC4/CapSense_Structure.c **** 
 514:Generated_Source\PSoC4/CapSense_Structure.c **** static cystatus DsParseParamId(uint32 paramId, PARAM_ID_STRUCT *pData);
 515:Generated_Source\PSoC4/CapSense_Structure.c **** 
 516:Generated_Source\PSoC4/CapSense_Structure.c **** /** \}
 517:Generated_Source\PSoC4/CapSense_Structure.c **** * \endcond */
 518:Generated_Source\PSoC4/CapSense_Structure.c **** 
 519:Generated_Source\PSoC4/CapSense_Structure.c **** 
 520:Generated_Source\PSoC4/CapSense_Structure.c **** /*******************************************************************************
 521:Generated_Source\PSoC4/CapSense_Structure.c **** * Function Name: CapSense_DsInitialize
 522:Generated_Source\PSoC4/CapSense_Structure.c **** ****************************************************************************//**
 523:Generated_Source\PSoC4/CapSense_Structure.c **** *
 524:Generated_Source\PSoC4/CapSense_Structure.c **** * \brief
 525:Generated_Source\PSoC4/CapSense_Structure.c **** *   This function initializes the Data Structure storage.
 526:Generated_Source\PSoC4/CapSense_Structure.c **** *
 527:Generated_Source\PSoC4/CapSense_Structure.c **** * \details
 528:Generated_Source\PSoC4/CapSense_Structure.c **** *   This function copies the default widget configuration parameters
 529:Generated_Source\PSoC4/CapSense_Structure.c **** *   from the Flash storage into the RAM Data Structure.
 530:Generated_Source\PSoC4/CapSense_Structure.c **** *
 531:Generated_Source\PSoC4/CapSense_Structure.c **** *******************************************************************************/
 532:Generated_Source\PSoC4/CapSense_Structure.c **** void CapSense_DsInitialize(void)
 533:Generated_Source\PSoC4/CapSense_Structure.c **** {
 534:Generated_Source\PSoC4/CapSense_Structure.c ****     #if ((CapSense_ENABLE == CapSense_CSX_EN) || \
 535:Generated_Source\PSoC4/CapSense_Structure.c ****          (CapSense_ENABLE == CapSense_CSD_IDAC_COMP_EN) || \
 536:Generated_Source\PSoC4/CapSense_Structure.c ****         ((CapSense_ENABLE == CapSense_CSX_EN) && \
 537:Generated_Source\PSoC4/CapSense_Structure.c ****          (CapSense_ENABLE == CapSense_CSX_SKIP_OVSMPL_SPECIFIC_NODES)))
 538:Generated_Source\PSoC4/CapSense_Structure.c ****         uint32 snsId;
 539:Generated_Source\PSoC4/CapSense_Structure.c ****         uint32 wdgtId;
 540:Generated_Source\PSoC4/CapSense_Structure.c ****         CapSense_RAM_SNS_STRUCT * ptrSnsTmp;
 541:Generated_Source\PSoC4/CapSense_Structure.c ****         CapSense_FLASH_WD_STRUCT const * ptrFlashWdgt;
 542:Generated_Source\PSoC4/CapSense_Structure.c ****     #endif
 543:Generated_Source\PSoC4/CapSense_Structure.c **** 
 544:Generated_Source\PSoC4/CapSense_Structure.c ****     #if ((CapSense_ENABLE == CapSense_CSX_EN) && \
ARM GAS  C:\Users\inspiron\AppData\Local\Temp\cc3AwUZg.s 			page 11


 545:Generated_Source\PSoC4/CapSense_Structure.c ****          (CapSense_ENABLE == CapSense_CSX_SKIP_OVSMPL_SPECIFIC_NODES))
 546:Generated_Source\PSoC4/CapSense_Structure.c ****         uint16 subConvNumber;
 547:Generated_Source\PSoC4/CapSense_Structure.c ****     #endif
 548:Generated_Source\PSoC4/CapSense_Structure.c **** 
 549:Generated_Source\PSoC4/CapSense_Structure.c ****     #if ((0u != CapSense_CSX_EN) || (0 != CapSense_CSD_IDAC_COMP_EN))
 550:Generated_Source\PSoC4/CapSense_Structure.c ****         uint8 const * ptrIdacInit = CapSense_ramIdacInit;
 551:Generated_Source\PSoC4/CapSense_Structure.c ****     #endif
 552:Generated_Source\PSoC4/CapSense_Structure.c **** 
 553:Generated_Source\PSoC4/CapSense_Structure.c ****     /* Reset RAM data structure content */
 554:Generated_Source\PSoC4/CapSense_Structure.c ****     (void)memset(&CapSense_dsRam, 0, sizeof(CapSense_dsRam));
 555:Generated_Source\PSoC4/CapSense_Structure.c **** 
 556:Generated_Source\PSoC4/CapSense_Structure.c ****     /* Initialize configId, deviceId and hwClock registers */
 557:Generated_Source\PSoC4/CapSense_Structure.c ****     CapSense_dsRam.configId = CapSense_CONFIG_ID;
 558:Generated_Source\PSoC4/CapSense_Structure.c ****     CapSense_dsRam.deviceId = CapSense_DEVICE_ID;
 559:Generated_Source\PSoC4/CapSense_Structure.c ****     CapSense_dsRam.hwClock = CapSense_HW_CLOCK;
 560:Generated_Source\PSoC4/CapSense_Structure.c **** 
 561:Generated_Source\PSoC4/CapSense_Structure.c ****     /* Initialize global RAM data */
 562:Generated_Source\PSoC4/CapSense_Structure.c ****     CapSense_dsRam.csd0Config = CapSense_CSD0_CONFIG;
 563:Generated_Source\PSoC4/CapSense_Structure.c **** 
 564:Generated_Source\PSoC4/CapSense_Structure.c ****     CapSense_dsRam.scanCurrentISC = CapSense_SNS_CONNECTION_UNDEFINED;
 565:Generated_Source\PSoC4/CapSense_Structure.c ****     #if (0u != CapSense_TOTAL_CSD_WIDGETS)
 566:Generated_Source\PSoC4/CapSense_Structure.c ****         CapSense_dsRam.modCsdClk = CapSense_CSD_SCANSPEED_DIVIDER;
 567:Generated_Source\PSoC4/CapSense_Structure.c ****         CapSense_dsRam.scanCsdISC = CapSense_CSD_INACTIVE_SNS_CONNECTION;
 568:Generated_Source\PSoC4/CapSense_Structure.c **** 
 569:Generated_Source\PSoC4/CapSense_Structure.c ****         #if (0u != CapSense_CSD_COMMON_SNS_CLK_EN)
 570:Generated_Source\PSoC4/CapSense_Structure.c ****             CapSense_dsRam.snsCsdClk = CapSense_CSD_SNS_CLK_DIVIDER;
 571:Generated_Source\PSoC4/CapSense_Structure.c ****         #endif /* #if (0u != CapSense_CSD_COMMON_SNS_CLK_EN) */
 572:Generated_Source\PSoC4/CapSense_Structure.c ****     #endif /* #if (0u != CapSense_TOTAL_CSD_WIDGETS) */
 573:Generated_Source\PSoC4/CapSense_Structure.c **** 
 574:Generated_Source\PSoC4/CapSense_Structure.c ****     #if (CapSense_ENABLE == CapSense_CSX_EN)
 575:Generated_Source\PSoC4/CapSense_Structure.c ****         CapSense_dsRam.modCsxClk = CapSense_CSX_SCANSPEED_DIVIDER;
 576:Generated_Source\PSoC4/CapSense_Structure.c ****         CapSense_dsRam.scanCsxISC = CapSense_CSX_INACTIVE_SNS_CONNECTION;
 577:Generated_Source\PSoC4/CapSense_Structure.c **** 
 578:Generated_Source\PSoC4/CapSense_Structure.c ****         #if (0u != CapSense_CSX_COMMON_TX_CLK_EN)
 579:Generated_Source\PSoC4/CapSense_Structure.c ****             CapSense_dsRam.snsCsxClk = CapSense_CSX_TX_CLK_DIVIDER;
 580:Generated_Source\PSoC4/CapSense_Structure.c ****         #endif /* #if (0u != CapSense_CSX_COMMON_TX_CLK_EN) */
 581:Generated_Source\PSoC4/CapSense_Structure.c ****     #endif /* #if (CapSense_ENABLE == CapSense_CSX_EN) */
 582:Generated_Source\PSoC4/CapSense_Structure.c **** 
 583:Generated_Source\PSoC4/CapSense_Structure.c ****     #if (CapSense_ENABLE == CapSense_ISX_EN)
 584:Generated_Source\PSoC4/CapSense_Structure.c ****         CapSense_dsRam.modIsxClk = CapSense_ISX_SCANSPEED_DIVIDER;
 585:Generated_Source\PSoC4/CapSense_Structure.c ****     #endif /* #if (0u != CapSense_ISX_EN) */
 586:Generated_Source\PSoC4/CapSense_Structure.c **** 
 587:Generated_Source\PSoC4/CapSense_Structure.c ****     #if (0u != CapSense_SELF_TEST_EN)
 588:Generated_Source\PSoC4/CapSense_Structure.c **** 
 589:Generated_Source\PSoC4/CapSense_Structure.c ****         CapSense_dsRam.glbCrc = CapSense_GLB_CRC;
 590:Generated_Source\PSoC4/CapSense_Structure.c ****         CapSense_dsRam.selfTestConfig.fineInitTime = (uint8)CapSense_TST_FINE_INIT_TIME;
 591:Generated_Source\PSoC4/CapSense_Structure.c ****         CapSense_dsRam.selfTestConfig.startupDelay = CapSense_TST_ANALOG_STARTUP_DELAY_US;
 592:Generated_Source\PSoC4/CapSense_Structure.c **** 
 593:Generated_Source\PSoC4/CapSense_Structure.c ****         #if (0u != CapSense_TST_SNS_SHORT_EN)
 594:Generated_Source\PSoC4/CapSense_Structure.c ****             CapSense_dsRam.selfTestConfig.snsShortTimeUs = CapSense_TST_SNS_SHORT_TIME;
 595:Generated_Source\PSoC4/CapSense_Structure.c ****         #endif
 596:Generated_Source\PSoC4/CapSense_Structure.c **** 
 597:Generated_Source\PSoC4/CapSense_Structure.c ****         #if ((0u != CapSense_TST_SNS_CAP_EN) ||\
 598:Generated_Source\PSoC4/CapSense_Structure.c ****              (0u != CapSense_TST_SH_CAP_EN))
 599:Generated_Source\PSoC4/CapSense_Structure.c ****             CapSense_dsRam.selfTestConfig.snsCapSnsClkDivider = CapSense_TST_SNS_CAP_SNS_CLK_DIVIDE
 600:Generated_Source\PSoC4/CapSense_Structure.c ****             CapSense_dsRam.selfTestConfig.snsCapSnsClkHz = CapSense_TST_SNS_CAP_SNS_CLK_HZ;
 601:Generated_Source\PSoC4/CapSense_Structure.c ****             CapSense_dsRam.selfTestConfig.snsCapResolution = CapSense_TST_SNS_CAP_RESOLUTION;
ARM GAS  C:\Users\inspiron\AppData\Local\Temp\cc3AwUZg.s 			page 12


 602:Generated_Source\PSoC4/CapSense_Structure.c ****             CapSense_dsRam.selfTestConfig.snsCapVrefGain = CapSense_TST_SNS_CAP_VREF_GAIN ;
 603:Generated_Source\PSoC4/CapSense_Structure.c ****             CapSense_dsRam.selfTestConfig.snsCapVrefVoltage = CapSense_TST_SNS_CAP_VREF_MV;
 604:Generated_Source\PSoC4/CapSense_Structure.c ****             CapSense_dsRam.selfTestConfig.snsCapModClkDivider = CapSense_TST_MOD_CLK_DIVIDER ;
 605:Generated_Source\PSoC4/CapSense_Structure.c ****             CapSense_dsRam.selfTestConfig.snsCapModClkKHz = CapSense_TST_MOD_CLK_KHZ ;
 606:Generated_Source\PSoC4/CapSense_Structure.c ****         #endif /* ((0u != CapSense_TST_SNS_CAP_EN) ||
 607:Generated_Source\PSoC4/CapSense_Structure.c ****                    (0u != CapSense_TST_SH_CAP_EN)) */
 608:Generated_Source\PSoC4/CapSense_Structure.c **** 
 609:Generated_Source\PSoC4/CapSense_Structure.c ****         #if (0u != CapSense_TST_SNS_CAP_EN)
 610:Generated_Source\PSoC4/CapSense_Structure.c ****             #if (0u != CapSense_CSD_EN)
 611:Generated_Source\PSoC4/CapSense_Structure.c ****                 CapSense_dsRam.selfTestConfig.bistCsdSnsCapISC = CapSense_SNS_CAP_CSD_INACTIVE_CONN
 612:Generated_Source\PSoC4/CapSense_Structure.c ****             #endif /* (0u != CapSense_CSD_EN) */
 613:Generated_Source\PSoC4/CapSense_Structure.c ****             #if (0u != CapSense_CSX_EN)
 614:Generated_Source\PSoC4/CapSense_Structure.c ****                 CapSense_dsRam.selfTestConfig.bistCsxSnsCapISC = CapSense_SNS_CAP_CSX_INACTIVE_CONN
 615:Generated_Source\PSoC4/CapSense_Structure.c ****             #endif /* (0u != CapSense_CSX_EN) */
 616:Generated_Source\PSoC4/CapSense_Structure.c ****         #endif /* (0u != CapSense_TST_SNS_CAP_EN) */
 617:Generated_Source\PSoC4/CapSense_Structure.c **** 
 618:Generated_Source\PSoC4/CapSense_Structure.c ****         #if (0u != CapSense_TST_SH_CAP_EN)
 619:Generated_Source\PSoC4/CapSense_Structure.c ****             #if ((0u != CapSense_CSD_EN) && (0u != CapSense_CSD_SHIELD_EN))
 620:Generated_Source\PSoC4/CapSense_Structure.c ****                 CapSense_dsRam.selfTestConfig.bistCsdShCapISC = CapSense_SHIELD_CAP_INACTIVE_CONNEC
 621:Generated_Source\PSoC4/CapSense_Structure.c ****             #endif /* ((0u != CapSense_CSD_EN) && (0u != CapSense_CSD_SHIELD_EN)) */
 622:Generated_Source\PSoC4/CapSense_Structure.c ****         #endif /* (0u != CapSense_TST_SH_CAP_EN) */
 623:Generated_Source\PSoC4/CapSense_Structure.c **** 
 624:Generated_Source\PSoC4/CapSense_Structure.c ****         #if (0u != CapSense_TST_EXTERNAL_CAP_EN)
 625:Generated_Source\PSoC4/CapSense_Structure.c ****             CapSense_dsRam.selfTestConfig.extCapVrefGain = CapSense_TST_EXT_CAP_VREF_GAIN;
 626:Generated_Source\PSoC4/CapSense_Structure.c ****             CapSense_dsRam.selfTestConfig.extCapVrefVoltage = CapSense_TST_EXT_CAP_VREF_MV;
 627:Generated_Source\PSoC4/CapSense_Structure.c ****         #endif /* #if (0u != CapSense_TST_EXTERNAL_CAP_EN) */
 628:Generated_Source\PSoC4/CapSense_Structure.c **** 
 629:Generated_Source\PSoC4/CapSense_Structure.c ****         #if (0u != CapSense_TST_VDDA_EN)
 630:Generated_Source\PSoC4/CapSense_Structure.c ****             CapSense_dsRam.selfTestConfig.vddaResolution = CapSense_TST_VDDA_RESOLUTION;
 631:Generated_Source\PSoC4/CapSense_Structure.c ****             CapSense_dsRam.selfTestConfig.vddaModClkDivider = CapSense_TST_VDDA_MOD_CLK_DIVIDER;
 632:Generated_Source\PSoC4/CapSense_Structure.c **** 
 633:Generated_Source\PSoC4/CapSense_Structure.c ****             CapSense_dsRam.selfTestConfig.vddaVrefGain = CapSense_TST_VDDA_VREF_GAIN;
 634:Generated_Source\PSoC4/CapSense_Structure.c ****             CapSense_dsRam.selfTestConfig.vddaVrefVoltage = CapSense_TST_VDDA_VREF_MV;
 635:Generated_Source\PSoC4/CapSense_Structure.c ****         #endif /* #if (0u != CapSense_TST_VDDA_EN) */
 636:Generated_Source\PSoC4/CapSense_Structure.c **** 
 637:Generated_Source\PSoC4/CapSense_Structure.c ****     #endif /* #if (0u != CapSense_SELF_TEST_EN) */
 638:Generated_Source\PSoC4/CapSense_Structure.c **** 
 639:Generated_Source\PSoC4/CapSense_Structure.c ****     /* Initialize RAM widget data */
 640:Generated_Source\PSoC4/CapSense_Structure.c ****     CapSense_dsRam.wdgtList = CapSense_ramWidgetInit;
 641:Generated_Source\PSoC4/CapSense_Structure.c **** 
 642:Generated_Source\PSoC4/CapSense_Structure.c ****     /* Initialize Gesture configuration structure */
 643:Generated_Source\PSoC4/CapSense_Structure.c ****     #if ((0u != CapSense_GES_GLOBAL_EN) || (0u != CapSense_BALLISTIC_MULTIPLIER_EN))
 644:Generated_Source\PSoC4/CapSense_Structure.c ****         CapSense_dsRam.timestampInterval = CapSense_TIMESTAMP_INTERVAL;
 645:Generated_Source\PSoC4/CapSense_Structure.c ****     #endif /* ((0u != CapSense_GES_GLOBAL_EN) || (0u != CapSense_BALLISTIC_MULTIPLIER_EN)) */
 646:Generated_Source\PSoC4/CapSense_Structure.c **** 
 647:Generated_Source\PSoC4/CapSense_Structure.c ****     #if (0u != CapSense_GES_GLOBAL_EN)
 648:Generated_Source\PSoC4/CapSense_Structure.c ****         CapSense_dsRam.gestures = CapSense_ramGesturesInit;
 649:Generated_Source\PSoC4/CapSense_Structure.c ****     #endif /* (0u != CapSense_GES_GLOBAL_EN) */
 650:Generated_Source\PSoC4/CapSense_Structure.c **** 
 651:Generated_Source\PSoC4/CapSense_Structure.c ****     #if (0u != CapSense_BALLISTIC_MULTIPLIER_EN)
 652:Generated_Source\PSoC4/CapSense_Structure.c ****         CapSense_dsRam.ballisticConfig = CapSense_ramBallisticInit;
 653:Generated_Source\PSoC4/CapSense_Structure.c ****     #endif /* (0u != CapSense_BALLISTIC_MULTIPLIER_EN) */
 654:Generated_Source\PSoC4/CapSense_Structure.c **** 
 655:Generated_Source\PSoC4/CapSense_Structure.c ****     #if (0u != CapSense_CSX_EN) || (0 != CapSense_CSD_IDAC_COMP_EN)
 656:Generated_Source\PSoC4/CapSense_Structure.c ****         /* Initialize IDAC data */
 657:Generated_Source\PSoC4/CapSense_Structure.c ****         ptrFlashWdgt = CapSense_dsFlash.wdgtArray;
 658:Generated_Source\PSoC4/CapSense_Structure.c **** 
ARM GAS  C:\Users\inspiron\AppData\Local\Temp\cc3AwUZg.s 			page 13


 659:Generated_Source\PSoC4/CapSense_Structure.c ****         for (wdgtId = CapSense_TOTAL_WIDGETS; wdgtId-- > 0u; )
 660:Generated_Source\PSoC4/CapSense_Structure.c ****         {
 661:Generated_Source\PSoC4/CapSense_Structure.c ****             ptrSnsTmp = ptrFlashWdgt->ptr2SnsRam;
 662:Generated_Source\PSoC4/CapSense_Structure.c **** 
 663:Generated_Source\PSoC4/CapSense_Structure.c ****             for (snsId = CapSense_GET_SNS_CNT_BY_PTR(ptrFlashWdgt); snsId-- > 0u;)
 664:Generated_Source\PSoC4/CapSense_Structure.c ****             {
 665:Generated_Source\PSoC4/CapSense_Structure.c ****                 ptrSnsTmp->idacComp[0u] = *ptrIdacInit;
 666:Generated_Source\PSoC4/CapSense_Structure.c ****                 ptrIdacInit++;
 667:Generated_Source\PSoC4/CapSense_Structure.c **** 
 668:Generated_Source\PSoC4/CapSense_Structure.c ****                 #if (0u != CapSense_MULTI_FREQ_SCAN_EN)
 669:Generated_Source\PSoC4/CapSense_Structure.c ****                     ptrSnsTmp->idacComp[1u] = *ptrIdacInit;
 670:Generated_Source\PSoC4/CapSense_Structure.c ****                     ptrIdacInit++;
 671:Generated_Source\PSoC4/CapSense_Structure.c **** 
 672:Generated_Source\PSoC4/CapSense_Structure.c ****                     ptrSnsTmp->idacComp[2u] = *ptrIdacInit;
 673:Generated_Source\PSoC4/CapSense_Structure.c ****                     ptrIdacInit++;
 674:Generated_Source\PSoC4/CapSense_Structure.c ****                 #endif /* #if (0u != CapSense_MULTI_FREQ_SCAN_EN) */
 675:Generated_Source\PSoC4/CapSense_Structure.c **** 
 676:Generated_Source\PSoC4/CapSense_Structure.c ****                 ptrSnsTmp++;
 677:Generated_Source\PSoC4/CapSense_Structure.c ****             }
 678:Generated_Source\PSoC4/CapSense_Structure.c **** 
 679:Generated_Source\PSoC4/CapSense_Structure.c ****             ptrFlashWdgt++; /* Move to next widget */
 680:Generated_Source\PSoC4/CapSense_Structure.c ****         }
 681:Generated_Source\PSoC4/CapSense_Structure.c ****     #endif /*(0u != CapSense_CSX_EN) || (0 != CapSense_CSD_IDAC_COMP_EN)*/
 682:Generated_Source\PSoC4/CapSense_Structure.c **** 
 683:Generated_Source\PSoC4/CapSense_Structure.c ****     #if ((CapSense_ENABLE == CapSense_CSX_EN) && \
 684:Generated_Source\PSoC4/CapSense_Structure.c ****          (CapSense_ENABLE == CapSense_CSX_SKIP_OVSMPL_SPECIFIC_NODES))
 685:Generated_Source\PSoC4/CapSense_Structure.c ****         /* Initialize Sub-Conversion Number for each node of each CSX widget */
 686:Generated_Source\PSoC4/CapSense_Structure.c ****         ptrFlashWdgt = CapSense_dsFlash.wdgtArray;
 687:Generated_Source\PSoC4/CapSense_Structure.c ****         for (wdgtId = CapSense_TOTAL_WIDGETS; wdgtId-- > 0u;)
 688:Generated_Source\PSoC4/CapSense_Structure.c ****         {
 689:Generated_Source\PSoC4/CapSense_Structure.c ****             /* Check for widget sense method */
 690:Generated_Source\PSoC4/CapSense_Structure.c ****             if (CapSense_SENSE_METHOD_CSX_E == CapSense_GET_SENSE_METHOD(ptrFlashWdgt))
 691:Generated_Source\PSoC4/CapSense_Structure.c ****             {
 692:Generated_Source\PSoC4/CapSense_Structure.c ****                 /* Take the sub-convesion number of a CSX widget and initialize each node of this w
 693:Generated_Source\PSoC4/CapSense_Structure.c ****                 subConvNumber = ((CapSense_RAM_WD_BASE_STRUCT *)(ptrFlashWdgt->ptr2WdgtRam))->resol
 694:Generated_Source\PSoC4/CapSense_Structure.c ****                 ptrSnsTmp = ptrFlashWdgt->ptr2SnsRam;
 695:Generated_Source\PSoC4/CapSense_Structure.c ****                 for (snsId = CapSense_GET_SNS_CNT_BY_PTR(ptrFlashWdgt); snsId-- > 0u;)
 696:Generated_Source\PSoC4/CapSense_Structure.c ****                 {
 697:Generated_Source\PSoC4/CapSense_Structure.c ****                     ptrSnsTmp->subConvNum = subConvNumber;
 698:Generated_Source\PSoC4/CapSense_Structure.c ****                     ptrSnsTmp++;
 699:Generated_Source\PSoC4/CapSense_Structure.c ****                 }
 700:Generated_Source\PSoC4/CapSense_Structure.c ****             }
 701:Generated_Source\PSoC4/CapSense_Structure.c ****             /* Move to the next widget */
 702:Generated_Source\PSoC4/CapSense_Structure.c ****             ptrFlashWdgt++;
 703:Generated_Source\PSoC4/CapSense_Structure.c ****         }
 704:Generated_Source\PSoC4/CapSense_Structure.c ****     #endif /* ((CapSense_ENABLE == CapSense_CSX_EN) && \
 705:Generated_Source\PSoC4/CapSense_Structure.c ****                (CapSense_ENABLE == CapSense_CSX_SKIP_OVSMPL_SPECIFIC_NODES)) */
 706:Generated_Source\PSoC4/CapSense_Structure.c **** 
 707:Generated_Source\PSoC4/CapSense_Structure.c ****     #if (0u != CapSense_ADC_EN)
 708:Generated_Source\PSoC4/CapSense_Structure.c ****         CapSense_AdcDsInitialize();
 709:Generated_Source\PSoC4/CapSense_Structure.c ****     #endif /* (0u != CapSense_ADC_EN) */
 710:Generated_Source\PSoC4/CapSense_Structure.c **** }
 711:Generated_Source\PSoC4/CapSense_Structure.c **** 
 712:Generated_Source\PSoC4/CapSense_Structure.c **** 
 713:Generated_Source\PSoC4/CapSense_Structure.c **** #if (0u != CapSense_ADC_EN)
 714:Generated_Source\PSoC4/CapSense_Structure.c ****     /*******************************************************************************
 715:Generated_Source\PSoC4/CapSense_Structure.c ****     * Function Name: CapSense_AdcDsInitialize
ARM GAS  C:\Users\inspiron\AppData\Local\Temp\cc3AwUZg.s 			page 14


 716:Generated_Source\PSoC4/CapSense_Structure.c ****     ****************************************************************************//**
 717:Generated_Source\PSoC4/CapSense_Structure.c ****     *
 718:Generated_Source\PSoC4/CapSense_Structure.c ****     * \brief
 719:Generated_Source\PSoC4/CapSense_Structure.c ****     *   Configures the initial Adc datastructure members.
 720:Generated_Source\PSoC4/CapSense_Structure.c ****     *
 721:Generated_Source\PSoC4/CapSense_Structure.c ****     *******************************************************************************/
 722:Generated_Source\PSoC4/CapSense_Structure.c ****     void CapSense_AdcDsInitialize(void)
 723:Generated_Source\PSoC4/CapSense_Structure.c ****     {
 724:Generated_Source\PSoC4/CapSense_Structure.c ****         CapSense_dsRam.adcResolution = CapSense_ADC_RESOLUTION;
 725:Generated_Source\PSoC4/CapSense_Structure.c ****         CapSense_dsRam.adcIdac = (uint8)(CapSense_ADC_IDAC_DEFAULT);
 726:Generated_Source\PSoC4/CapSense_Structure.c ****         CapSense_dsRam.adcActiveCh = CapSense_AdcNO_CHANNEL;
 727:Generated_Source\PSoC4/CapSense_Structure.c ****     }
 728:Generated_Source\PSoC4/CapSense_Structure.c **** #endif /* (0u != CapSense_ADC_EN) */
 729:Generated_Source\PSoC4/CapSense_Structure.c **** 
 730:Generated_Source\PSoC4/CapSense_Structure.c **** 
 731:Generated_Source\PSoC4/CapSense_Structure.c **** /*******************************************************************************
 732:Generated_Source\PSoC4/CapSense_Structure.c **** * Function Name: DsParseParamId
 733:Generated_Source\PSoC4/CapSense_Structure.c **** ****************************************************************************//**
 734:Generated_Source\PSoC4/CapSense_Structure.c **** *
 735:Generated_Source\PSoC4/CapSense_Structure.c **** * \brief
 736:Generated_Source\PSoC4/CapSense_Structure.c **** *   This function parses the parameter ID and checks its correctness.
 737:Generated_Source\PSoC4/CapSense_Structure.c **** *
 738:Generated_Source\PSoC4/CapSense_Structure.c **** * \details
 739:Generated_Source\PSoC4/CapSense_Structure.c **** *   This function checks the parameter CRC if the self-test is enabled,
 740:Generated_Source\PSoC4/CapSense_Structure.c **** *   validates the offset value and parameter type.
 741:Generated_Source\PSoC4/CapSense_Structure.c **** *
 742:Generated_Source\PSoC4/CapSense_Structure.c **** * \param paramId The parameter to parse.
 743:Generated_Source\PSoC4/CapSense_Structure.c **** * \param pData   The pointer to the structure that will hold parsed data.
 744:Generated_Source\PSoC4/CapSense_Structure.c **** *
 745:Generated_Source\PSoC4/CapSense_Structure.c **** * \return CYRET_SUCCESS     If the parameter is valid
 746:Generated_Source\PSoC4/CapSense_Structure.c **** *         CYRET_BAD_PARAM   If the parameter is invalid
 747:Generated_Source\PSoC4/CapSense_Structure.c **** *
 748:Generated_Source\PSoC4/CapSense_Structure.c **** *******************************************************************************/
 749:Generated_Source\PSoC4/CapSense_Structure.c **** static cystatus DsParseParamId(uint32 paramId, PARAM_ID_STRUCT *pData)
 750:Generated_Source\PSoC4/CapSense_Structure.c **** {
  27              		.loc 1 750 0
  28              		.cfi_startproc
  29              		@ args = 0, pretend = 0, frame = 0
  30              		@ frame_needed = 0, uses_anonymous_args = 0
  31              	.LVL0:
  32 0000 70B5     		push	{r4, r5, r6, lr}
  33              		.cfi_def_cfa_offset 16
  34              		.cfi_offset 4, -16
  35              		.cfi_offset 5, -12
  36              		.cfi_offset 6, -8
  37              		.cfi_offset 14, -4
  38              	.LVL1:
 751:Generated_Source\PSoC4/CapSense_Structure.c ****     cystatus result = CYRET_SUCCESS;
 752:Generated_Source\PSoC4/CapSense_Structure.c **** 
 753:Generated_Source\PSoC4/CapSense_Structure.c ****     #if (0u != CapSense_SELF_TEST_EN)
 754:Generated_Source\PSoC4/CapSense_Structure.c ****         const uint8 crcTable[] =
 755:Generated_Source\PSoC4/CapSense_Structure.c ****         {
 756:Generated_Source\PSoC4/CapSense_Structure.c ****             0x00u, 0x09u, 0x0Bu, 0x02u, 0x0Fu, 0x06u, 0x04u, 0x0Du,
 757:Generated_Source\PSoC4/CapSense_Structure.c ****             0x07u, 0x0Eu, 0x0Cu, 0x05u, 0x08u, 0x01u, 0x03u, 0x0Au
 758:Generated_Source\PSoC4/CapSense_Structure.c ****         };
 759:Generated_Source\PSoC4/CapSense_Structure.c **** 
 760:Generated_Source\PSoC4/CapSense_Structure.c ****         uint32 i;
ARM GAS  C:\Users\inspiron\AppData\Local\Temp\cc3AwUZg.s 			page 15


 761:Generated_Source\PSoC4/CapSense_Structure.c ****         uint32 actualCrc = 0u;
 762:Generated_Source\PSoC4/CapSense_Structure.c ****         uint32 crcIndex;
 763:Generated_Source\PSoC4/CapSense_Structure.c ****     #endif /* #if (0u != CapSense_SELF_TEST_EN) */
 764:Generated_Source\PSoC4/CapSense_Structure.c **** 
 765:Generated_Source\PSoC4/CapSense_Structure.c ****     /* Extract parameter data */
 766:Generated_Source\PSoC4/CapSense_Structure.c ****     pData->offset     = LO16(paramId);
  39              		.loc 1 766 0
  40 0002 85B2     		uxth	r5, r0
  41 0004 0D80     		strh	r5, [r1]
 767:Generated_Source\PSoC4/CapSense_Structure.c ****     pData->affectsCrc = LO8((paramId & PARAM_UBIT_MASK)  >> PARAM_UBIT_OFFSET);
  42              		.loc 1 767 0
  43 0006 C30D     		lsrs	r3, r0, #23
  44 0008 0124     		movs	r4, #1
  45 000a 2340     		ands	r3, r4
  46 000c CB70     		strb	r3, [r1, #3]
 768:Generated_Source\PSoC4/CapSense_Structure.c ****     pData->widgetId   = LO8((paramId & PARAM_WDID_MASK)  >> PARAM_WDID_OFFSET);
  47              		.loc 1 768 0
  48 000e 030C     		lsrs	r3, r0, #16
  49 0010 7F22     		movs	r2, #127
  50 0012 1340     		ands	r3, r2
  51 0014 8B70     		strb	r3, [r1, #2]
 769:Generated_Source\PSoC4/CapSense_Structure.c ****     pData->type       = LO8((paramId & PARAM_TYPE_MASK)  >> PARAM_TYPE_OFFSET);
  52              		.loc 1 769 0
  53 0016 860F     		lsrs	r6, r0, #30
  54 0018 CE71     		strb	r6, [r1, #7]
 770:Generated_Source\PSoC4/CapSense_Structure.c ****     pData->flash      = LO8((paramId & PARAM_FBIT_MASK)  >> PARAM_FBIT_OFFSET);
  55              		.loc 1 770 0
  56 001a 030F     		lsrs	r3, r0, #28
  57 001c 2340     		ands	r3, r4
  58 001e 4B71     		strb	r3, [r1, #5]
 771:Generated_Source\PSoC4/CapSense_Structure.c ****     pData->rw         = LO8((paramId & PARAM_RWBIT_MASK) >> PARAM_RWBIT_OFFSET);
  59              		.loc 1 771 0
  60 0020 420F     		lsrs	r2, r0, #29
  61 0022 2240     		ands	r2, r4
  62 0024 8A71     		strb	r2, [r1, #6]
 772:Generated_Source\PSoC4/CapSense_Structure.c ****     pData->crc        = LO8((paramId & PARAM_CRC_MASK)   >> PARAM_CRC_OFFSET);
  63              		.loc 1 772 0
  64 0026 000E     		lsrs	r0, r0, #24
  65              	.LVL2:
  66 0028 0E34     		adds	r4, r4, #14
  67 002a 2040     		ands	r0, r4
  68 002c 0871     		strb	r0, [r1, #4]
 773:Generated_Source\PSoC4/CapSense_Structure.c **** 
 774:Generated_Source\PSoC4/CapSense_Structure.c ****     /* Check parameter CRC if self-test is enabled */
 775:Generated_Source\PSoC4/CapSense_Structure.c ****     #if (0u != CapSense_SELF_TEST_EN)
 776:Generated_Source\PSoC4/CapSense_Structure.c **** 
 777:Generated_Source\PSoC4/CapSense_Structure.c ****         /* Calculate CRC for bits 0..24.
 778:Generated_Source\PSoC4/CapSense_Structure.c ****          * The CRC is calculated using nibbles (4-bits).
 779:Generated_Source\PSoC4/CapSense_Structure.c ****          * So for 0..24 bits there are in total 6 nibbles. */
 780:Generated_Source\PSoC4/CapSense_Structure.c ****         for (i = 6u; i > 0u; i--)
 781:Generated_Source\PSoC4/CapSense_Structure.c ****         {
 782:Generated_Source\PSoC4/CapSense_Structure.c ****             crcIndex = actualCrc ^ (paramId & 0x0Fu);
 783:Generated_Source\PSoC4/CapSense_Structure.c ****             actualCrc = crcTable[crcIndex];
 784:Generated_Source\PSoC4/CapSense_Structure.c ****             paramId >>= 4u;
 785:Generated_Source\PSoC4/CapSense_Structure.c ****         }
 786:Generated_Source\PSoC4/CapSense_Structure.c **** 
 787:Generated_Source\PSoC4/CapSense_Structure.c ****         /* Add bits 28..32 */
ARM GAS  C:\Users\inspiron\AppData\Local\Temp\cc3AwUZg.s 			page 16


 788:Generated_Source\PSoC4/CapSense_Structure.c ****         crcIndex = actualCrc ^ ((paramId >> 4u) & 0x0Fu);
 789:Generated_Source\PSoC4/CapSense_Structure.c ****         actualCrc = crcTable[crcIndex];
 790:Generated_Source\PSoC4/CapSense_Structure.c **** 
 791:Generated_Source\PSoC4/CapSense_Structure.c ****         /* Add bits 24..28 (CRC) */
 792:Generated_Source\PSoC4/CapSense_Structure.c ****         crcIndex = actualCrc ^ (paramId & 0x0Fu);
 793:Generated_Source\PSoC4/CapSense_Structure.c ****         actualCrc = crcTable[crcIndex];
 794:Generated_Source\PSoC4/CapSense_Structure.c **** 
 795:Generated_Source\PSoC4/CapSense_Structure.c ****         if (0u != actualCrc)
 796:Generated_Source\PSoC4/CapSense_Structure.c ****         {
 797:Generated_Source\PSoC4/CapSense_Structure.c ****             /* CRC mismatch */
 798:Generated_Source\PSoC4/CapSense_Structure.c ****             result = CYRET_BAD_PARAM;
 799:Generated_Source\PSoC4/CapSense_Structure.c ****         }
 800:Generated_Source\PSoC4/CapSense_Structure.c **** 
 801:Generated_Source\PSoC4/CapSense_Structure.c ****         if ((CYRET_SUCCESS == result) &&
 802:Generated_Source\PSoC4/CapSense_Structure.c ****             (0u != pData->affectsCrc) && (pData->widgetId >= CapSense_TOTAL_WIDGETS ))
 803:Generated_Source\PSoC4/CapSense_Structure.c ****         {
 804:Generated_Source\PSoC4/CapSense_Structure.c ****             /* Wrong widgetId for protected parameter */
 805:Generated_Source\PSoC4/CapSense_Structure.c ****             result = CYRET_BAD_PARAM;
 806:Generated_Source\PSoC4/CapSense_Structure.c ****         }
 807:Generated_Source\PSoC4/CapSense_Structure.c **** 
 808:Generated_Source\PSoC4/CapSense_Structure.c ****         /* Check offset value range */
 809:Generated_Source\PSoC4/CapSense_Structure.c ****         if (CYRET_SUCCESS == result)
 810:Generated_Source\PSoC4/CapSense_Structure.c ****         {
 811:Generated_Source\PSoC4/CapSense_Structure.c ****             if (0u == pData->flash)
 812:Generated_Source\PSoC4/CapSense_Structure.c ****             {
 813:Generated_Source\PSoC4/CapSense_Structure.c ****                 /* Check offset for RAM Data Structure range */
 814:Generated_Source\PSoC4/CapSense_Structure.c ****                 if (pData->offset >= sizeof(CapSense_dsRam))
 815:Generated_Source\PSoC4/CapSense_Structure.c ****                 {
 816:Generated_Source\PSoC4/CapSense_Structure.c ****                     result = CYRET_BAD_PARAM;
 817:Generated_Source\PSoC4/CapSense_Structure.c ****                 }
 818:Generated_Source\PSoC4/CapSense_Structure.c ****             }
 819:Generated_Source\PSoC4/CapSense_Structure.c ****             else
 820:Generated_Source\PSoC4/CapSense_Structure.c ****             {
 821:Generated_Source\PSoC4/CapSense_Structure.c ****                 /* Check offset for Flash Data Structure range */
 822:Generated_Source\PSoC4/CapSense_Structure.c ****                 if (pData->offset >= sizeof(CapSense_dsFlash))
 823:Generated_Source\PSoC4/CapSense_Structure.c ****                 {
 824:Generated_Source\PSoC4/CapSense_Structure.c ****                     result = CYRET_BAD_PARAM;
 825:Generated_Source\PSoC4/CapSense_Structure.c ****                 }
 826:Generated_Source\PSoC4/CapSense_Structure.c **** 
 827:Generated_Source\PSoC4/CapSense_Structure.c ****                 /* Check if it is marked as Read Only */
 828:Generated_Source\PSoC4/CapSense_Structure.c ****                 if (0u != pData->rw)
 829:Generated_Source\PSoC4/CapSense_Structure.c ****                 {
 830:Generated_Source\PSoC4/CapSense_Structure.c ****                     result = CYRET_BAD_PARAM;
 831:Generated_Source\PSoC4/CapSense_Structure.c ****                 }
 832:Generated_Source\PSoC4/CapSense_Structure.c ****             }
 833:Generated_Source\PSoC4/CapSense_Structure.c ****         }
 834:Generated_Source\PSoC4/CapSense_Structure.c ****     #else /* #if (0u != CapSense_SELF_TEST_EN) */
 835:Generated_Source\PSoC4/CapSense_Structure.c ****         /* Check offset value range */
 836:Generated_Source\PSoC4/CapSense_Structure.c ****         if (0u == pData->flash)
  69              		.loc 1 836 0
  70 002e 002B     		cmp	r3, #0
  71 0030 04D1     		bne	.L2
 837:Generated_Source\PSoC4/CapSense_Structure.c ****         {
 838:Generated_Source\PSoC4/CapSense_Structure.c ****             /* Check offset for RAM Data Structure range */
 839:Generated_Source\PSoC4/CapSense_Structure.c ****             if (pData->offset >= sizeof(CapSense_dsRam))
  72              		.loc 1 839 0
  73 0032 124B     		ldr	r3, .L16
ARM GAS  C:\Users\inspiron\AppData\Local\Temp\cc3AwUZg.s 			page 17


  74 0034 9D42     		cmp	r5, r3
  75 0036 09D8     		bhi	.L9
 751:Generated_Source\PSoC4/CapSense_Structure.c **** 
  76              		.loc 1 751 0
  77 0038 0020     		movs	r0, #0
  78 003a 0AE0     		b	.L3
  79              	.L2:
 840:Generated_Source\PSoC4/CapSense_Structure.c ****             {
 841:Generated_Source\PSoC4/CapSense_Structure.c ****                 result = CYRET_BAD_PARAM;
 842:Generated_Source\PSoC4/CapSense_Structure.c ****             }
 843:Generated_Source\PSoC4/CapSense_Structure.c ****         }
 844:Generated_Source\PSoC4/CapSense_Structure.c ****         else
 845:Generated_Source\PSoC4/CapSense_Structure.c ****         {
 846:Generated_Source\PSoC4/CapSense_Structure.c ****             /* Check offset for Flash Data Structure range */
 847:Generated_Source\PSoC4/CapSense_Structure.c ****             if (pData->offset >= sizeof(CapSense_dsFlash))
  80              		.loc 1 847 0
  81 003c 372D     		cmp	r5, #55
  82 003e 01D8     		bhi	.L10
 751:Generated_Source\PSoC4/CapSense_Structure.c **** 
  83              		.loc 1 751 0
  84 0040 0020     		movs	r0, #0
  85 0042 00E0     		b	.L4
  86              	.L10:
 848:Generated_Source\PSoC4/CapSense_Structure.c ****             {
 849:Generated_Source\PSoC4/CapSense_Structure.c ****                 result = CYRET_BAD_PARAM;
  87              		.loc 1 849 0
  88 0044 0120     		movs	r0, #1
  89              	.L4:
  90              	.LVL3:
 850:Generated_Source\PSoC4/CapSense_Structure.c ****             }
 851:Generated_Source\PSoC4/CapSense_Structure.c **** 
 852:Generated_Source\PSoC4/CapSense_Structure.c ****             /* Check if it is marked as Read Only */
 853:Generated_Source\PSoC4/CapSense_Structure.c ****             if (0u != pData->rw)
  91              		.loc 1 853 0
  92 0046 002A     		cmp	r2, #0
  93 0048 02D1     		bne	.L11
  94 004a 02E0     		b	.L3
  95              	.LVL4:
  96              	.L9:
 841:Generated_Source\PSoC4/CapSense_Structure.c ****             }
  97              		.loc 1 841 0
  98 004c 0120     		movs	r0, #1
  99 004e 00E0     		b	.L3
 100              	.LVL5:
 101              	.L11:
 854:Generated_Source\PSoC4/CapSense_Structure.c ****             {
 855:Generated_Source\PSoC4/CapSense_Structure.c ****                 result = CYRET_BAD_PARAM;
 102              		.loc 1 855 0
 103 0050 0120     		movs	r0, #1
 104              	.LVL6:
 105              	.L3:
 856:Generated_Source\PSoC4/CapSense_Structure.c ****             }
 857:Generated_Source\PSoC4/CapSense_Structure.c ****         }
 858:Generated_Source\PSoC4/CapSense_Structure.c ****     #endif /* #if (0u != CapSense_SELF_TEST_EN) */
 859:Generated_Source\PSoC4/CapSense_Structure.c **** 
 860:Generated_Source\PSoC4/CapSense_Structure.c ****     if (CYRET_SUCCESS == result)
 106              		.loc 1 860 0
ARM GAS  C:\Users\inspiron\AppData\Local\Temp\cc3AwUZg.s 			page 18


 107 0052 0028     		cmp	r0, #0
 108 0054 11D1     		bne	.L5
 861:Generated_Source\PSoC4/CapSense_Structure.c ****     {
 862:Generated_Source\PSoC4/CapSense_Structure.c ****         /* Check parameter type, offset alignment */
 863:Generated_Source\PSoC4/CapSense_Structure.c ****         switch (pData->type)
 109              		.loc 1 863 0
 110 0056 022E     		cmp	r6, #2
 111 0058 04D0     		beq	.L6
 112 005a 032E     		cmp	r6, #3
 113 005c 05D0     		beq	.L7
 114 005e 012E     		cmp	r6, #1
 115 0060 06D1     		bne	.L15
 116 0062 0AE0     		b	.L5
 117              	.L6:
 864:Generated_Source\PSoC4/CapSense_Structure.c ****         {
 865:Generated_Source\PSoC4/CapSense_Structure.c ****         case DS_PARAM_TYPE_UINT16:
 866:Generated_Source\PSoC4/CapSense_Structure.c ****             if (0u != (pData->offset & UINT16_ALIGN_MASK))
 118              		.loc 1 866 0
 119 0064 EB07     		lsls	r3, r5, #31
 120 0066 05D4     		bmi	.L13
 121 0068 07E0     		b	.L5
 122              	.L7:
 867:Generated_Source\PSoC4/CapSense_Structure.c ****             {
 868:Generated_Source\PSoC4/CapSense_Structure.c ****                 result = CYRET_BAD_PARAM;
 869:Generated_Source\PSoC4/CapSense_Structure.c ****             }
 870:Generated_Source\PSoC4/CapSense_Structure.c ****             break;
 871:Generated_Source\PSoC4/CapSense_Structure.c **** 
 872:Generated_Source\PSoC4/CapSense_Structure.c ****         case DS_PARAM_TYPE_UINT32:
 873:Generated_Source\PSoC4/CapSense_Structure.c ****             if (0u != (pData->offset & UINT32_ALIGN_MASK))
 123              		.loc 1 873 0
 124 006a AB07     		lsls	r3, r5, #30
 125 006c 04D1     		bne	.L14
 126 006e 04E0     		b	.L5
 127              	.L15:
 874:Generated_Source\PSoC4/CapSense_Structure.c ****             {
 875:Generated_Source\PSoC4/CapSense_Structure.c ****                 result = CYRET_BAD_PARAM;
 876:Generated_Source\PSoC4/CapSense_Structure.c ****             }
 877:Generated_Source\PSoC4/CapSense_Structure.c ****             break;
 878:Generated_Source\PSoC4/CapSense_Structure.c **** 
 879:Generated_Source\PSoC4/CapSense_Structure.c ****         case DS_PARAM_TYPE_UINT8:
 880:Generated_Source\PSoC4/CapSense_Structure.c ****             break;
 881:Generated_Source\PSoC4/CapSense_Structure.c **** 
 882:Generated_Source\PSoC4/CapSense_Structure.c ****         default:
 883:Generated_Source\PSoC4/CapSense_Structure.c ****             result = CYRET_BAD_PARAM;
 128              		.loc 1 883 0
 129 0070 0120     		movs	r0, #1
 130              	.LVL7:
 131 0072 02E0     		b	.L5
 132              	.LVL8:
 133              	.L13:
 868:Generated_Source\PSoC4/CapSense_Structure.c ****             }
 134              		.loc 1 868 0
 135 0074 0120     		movs	r0, #1
 136              	.LVL9:
 137 0076 00E0     		b	.L5
 138              	.LVL10:
 139              	.L14:
ARM GAS  C:\Users\inspiron\AppData\Local\Temp\cc3AwUZg.s 			page 19


 875:Generated_Source\PSoC4/CapSense_Structure.c ****             }
 140              		.loc 1 875 0
 141 0078 0120     		movs	r0, #1
 142              	.LVL11:
 143              	.L5:
 884:Generated_Source\PSoC4/CapSense_Structure.c ****             break;
 885:Generated_Source\PSoC4/CapSense_Structure.c ****         }
 886:Generated_Source\PSoC4/CapSense_Structure.c ****     }
 887:Generated_Source\PSoC4/CapSense_Structure.c **** 
 888:Generated_Source\PSoC4/CapSense_Structure.c ****     return result;
 889:Generated_Source\PSoC4/CapSense_Structure.c **** }
 144              		.loc 1 889 0
 145              		@ sp needed
 146 007a 70BD     		pop	{r4, r5, r6, pc}
 147              	.L17:
 148              		.align	2
 149              	.L16:
 150 007c 87020000 		.word	647
 151              		.cfi_endproc
 152              	.LFE2:
 153              		.size	DsParseParamId, .-DsParseParamId
 154              		.section	.text.CapSense_DsInitialize,"ax",%progbits
 155              		.align	2
 156              		.global	CapSense_DsInitialize
 157              		.code	16
 158              		.thumb_func
 159              		.type	CapSense_DsInitialize, %function
 160              	CapSense_DsInitialize:
 161              	.LFB1:
 533:Generated_Source\PSoC4/CapSense_Structure.c ****     #if ((CapSense_ENABLE == CapSense_CSX_EN) || \
 162              		.loc 1 533 0
 163              		.cfi_startproc
 164              		@ args = 0, pretend = 0, frame = 0
 165              		@ frame_needed = 0, uses_anonymous_args = 0
 166 0000 70B5     		push	{r4, r5, r6, lr}
 167              		.cfi_def_cfa_offset 16
 168              		.cfi_offset 4, -16
 169              		.cfi_offset 5, -12
 170              		.cfi_offset 6, -8
 171              		.cfi_offset 14, -4
 172              	.LVL12:
 554:Generated_Source\PSoC4/CapSense_Structure.c **** 
 173              		.loc 1 554 0
 174 0002 204C     		ldr	r4, .L23
 175 0004 A222     		movs	r2, #162
 176 0006 9200     		lsls	r2, r2, #2
 177 0008 0021     		movs	r1, #0
 178 000a 2000     		movs	r0, r4
 179 000c FFF7FEFF 		bl	memset
 180              	.LVL13:
 557:Generated_Source\PSoC4/CapSense_Structure.c ****     CapSense_dsRam.deviceId = CapSense_DEVICE_ID;
 181              		.loc 1 557 0
 182 0010 1D4B     		ldr	r3, .L23+4
 183 0012 2380     		strh	r3, [r4]
 558:Generated_Source\PSoC4/CapSense_Structure.c ****     CapSense_dsRam.hwClock = CapSense_HW_CLOCK;
 184              		.loc 1 558 0
 185 0014 9023     		movs	r3, #144
ARM GAS  C:\Users\inspiron\AppData\Local\Temp\cc3AwUZg.s 			page 20


 186 0016 1B01     		lsls	r3, r3, #4
 187 0018 6380     		strh	r3, [r4, #2]
 559:Generated_Source\PSoC4/CapSense_Structure.c **** 
 188              		.loc 1 559 0
 189 001a 1C4B     		ldr	r3, .L23+8
 190 001c A380     		strh	r3, [r4, #4]
 562:Generated_Source\PSoC4/CapSense_Structure.c **** 
 191              		.loc 1 562 0
 192 001e 0823     		movs	r3, #8
 193 0020 6383     		strh	r3, [r4, #26]
 564:Generated_Source\PSoC4/CapSense_Structure.c ****     #if (0u != CapSense_TOTAL_CSD_WIDGETS)
 194              		.loc 1 564 0
 195 0022 0322     		movs	r2, #3
 196 0024 1A4B     		ldr	r3, .L23+12
 197 0026 E254     		strb	r2, [r4, r3]
 575:Generated_Source\PSoC4/CapSense_Structure.c ****         CapSense_dsRam.scanCsxISC = CapSense_CSX_INACTIVE_SNS_CONNECTION;
 198              		.loc 1 575 0
 199 0028 0223     		movs	r3, #2
 200 002a 2377     		strb	r3, [r4, #28]
 579:Generated_Source\PSoC4/CapSense_Structure.c ****         #endif /* #if (0u != CapSense_CSX_COMMON_TX_CLK_EN) */
 201              		.loc 1 579 0
 202 002c 4E33     		adds	r3, r3, #78
 203 002e E383     		strh	r3, [r4, #30]
 640:Generated_Source\PSoC4/CapSense_Structure.c **** 
 204              		.loc 1 640 0
 205 0030 184D     		ldr	r5, .L23+16
 206 0032 2300     		movs	r3, r4
 207 0034 2033     		adds	r3, r3, #32
 208 0036 2A00     		movs	r2, r5
 209 0038 6C32     		adds	r2, r2, #108
 210 003a 43CA     		ldmia	r2!, {r0, r1, r6}
 211 003c 43C3     		stmia	r3!, {r0, r1, r6}
 212 003e 43CA     		ldmia	r2!, {r0, r1, r6}
 213 0040 43C3     		stmia	r3!, {r0, r1, r6}
 644:Generated_Source\PSoC4/CapSense_Structure.c ****     #endif /* ((0u != CapSense_GES_GLOBAL_EN) || (0u != CapSense_BALLISTIC_MULTIPLIER_EN)) */
 214              		.loc 1 644 0
 215 0042 0122     		movs	r2, #1
 216 0044 9E23     		movs	r3, #158
 217 0046 9B00     		lsls	r3, r3, #2
 218 0048 E250     		str	r2, [r4, r3]
 648:Generated_Source\PSoC4/CapSense_Structure.c ****     #endif /* (0u != CapSense_GES_GLOBAL_EN) */
 219              		.loc 1 648 0
 220 004a 134B     		ldr	r3, .L23+20
 221 004c E018     		adds	r0, r4, r3
 222 004e 5532     		adds	r2, r2, #85
 223 0050 1249     		ldr	r1, .L23+24
 224 0052 0431     		adds	r1, r1, #4
 225 0054 FFF7FEFF 		bl	memcpy
 226              	.LVL14:
 550:Generated_Source\PSoC4/CapSense_Structure.c ****     #endif
 227              		.loc 1 550 0
 228 0058 2A00     		movs	r2, r5
 657:Generated_Source\PSoC4/CapSense_Structure.c **** 
 229              		.loc 1 657 0
 230 005a 2C00     		movs	r4, r5
 231 005c 3434     		adds	r4, r4, #52
 659:Generated_Source\PSoC4/CapSense_Structure.c ****         {
ARM GAS  C:\Users\inspiron\AppData\Local\Temp\cc3AwUZg.s 			page 21


 232              		.loc 1 659 0
 233 005e 0123     		movs	r3, #1
 234 0060 0CE0     		b	.L19
 235              	.LVL15:
 236              	.L22:
 661:Generated_Source\PSoC4/CapSense_Structure.c **** 
 237              		.loc 1 661 0
 238 0062 A168     		ldr	r1, [r4, #8]
 239              	.LVL16:
 663:Generated_Source\PSoC4/CapSense_Structure.c ****             {
 240              		.loc 1 663 0
 241 0064 238B     		ldrh	r3, [r4, #24]
 242              	.LVL17:
 243 0066 04E0     		b	.L20
 244              	.LVL18:
 245              	.L21:
 665:Generated_Source\PSoC4/CapSense_Structure.c ****                 ptrIdacInit++;
 246              		.loc 1 665 0
 247 0068 1378     		ldrb	r3, [r2]
 248 006a 4B72     		strb	r3, [r1, #9]
 666:Generated_Source\PSoC4/CapSense_Structure.c **** 
 249              		.loc 1 666 0
 250 006c 0132     		adds	r2, r2, #1
 251              	.LVL19:
 676:Generated_Source\PSoC4/CapSense_Structure.c ****             }
 252              		.loc 1 676 0
 253 006e 0A31     		adds	r1, r1, #10
 254              	.LVL20:
 663:Generated_Source\PSoC4/CapSense_Structure.c ****             {
 255              		.loc 1 663 0
 256 0070 0300     		movs	r3, r0
 257              	.LVL21:
 258              	.L20:
 663:Generated_Source\PSoC4/CapSense_Structure.c ****             {
 259              		.loc 1 663 0 is_stmt 0 discriminator 1
 260 0072 581E     		subs	r0, r3, #1
 261              	.LVL22:
 262 0074 002B     		cmp	r3, #0
 263 0076 F7D1     		bne	.L21
 679:Generated_Source\PSoC4/CapSense_Structure.c ****         }
 264              		.loc 1 679 0 is_stmt 1
 265 0078 3834     		adds	r4, r4, #56
 266              	.LVL23:
 659:Generated_Source\PSoC4/CapSense_Structure.c ****         {
 267              		.loc 1 659 0
 268 007a 2B00     		movs	r3, r5
 269              	.LVL24:
 270              	.L19:
 659:Generated_Source\PSoC4/CapSense_Structure.c ****         {
 271              		.loc 1 659 0 is_stmt 0 discriminator 1
 272 007c 5D1E     		subs	r5, r3, #1
 273              	.LVL25:
 274 007e 002B     		cmp	r3, #0
 275 0080 EFD1     		bne	.L22
 710:Generated_Source\PSoC4/CapSense_Structure.c **** 
 276              		.loc 1 710 0 is_stmt 1
 277              		@ sp needed
ARM GAS  C:\Users\inspiron\AppData\Local\Temp\cc3AwUZg.s 			page 22


 278              	.LVL26:
 279              	.LVL27:
 280 0082 70BD     		pop	{r4, r5, r6, pc}
 281              	.L24:
 282              		.align	2
 283              	.L23:
 284 0084 00000000 		.word	CapSense_dsRam
 285 0088 AC160000 		.word	5804
 286 008c 70170000 		.word	6000
 287 0090 87020000 		.word	647
 288 0094 00000000 		.word	.LANCHOR0
 289 0098 22020000 		.word	546
 290 009c 80000000 		.word	.LANCHOR1
 291              		.cfi_endproc
 292              	.LFE1:
 293              		.size	CapSense_DsInitialize, .-CapSense_DsInitialize
 294              		.section	.text.CapSense_GetParam,"ax",%progbits
 295              		.align	2
 296              		.global	CapSense_GetParam
 297              		.code	16
 298              		.thumb_func
 299              		.type	CapSense_GetParam, %function
 300              	CapSense_GetParam:
 301              	.LFB3:
 890:Generated_Source\PSoC4/CapSense_Structure.c **** 
 891:Generated_Source\PSoC4/CapSense_Structure.c **** /*******************************************************************************
 892:Generated_Source\PSoC4/CapSense_Structure.c **** * Function Name: CapSense_GetParam
 893:Generated_Source\PSoC4/CapSense_Structure.c **** ****************************************************************************//**
 894:Generated_Source\PSoC4/CapSense_Structure.c **** *
 895:Generated_Source\PSoC4/CapSense_Structure.c **** * \brief
 896:Generated_Source\PSoC4/CapSense_Structure.c **** *  Gets the specified parameter value from the \ref group_structures.
 897:Generated_Source\PSoC4/CapSense_Structure.c **** *
 898:Generated_Source\PSoC4/CapSense_Structure.c **** * \details
 899:Generated_Source\PSoC4/CapSense_Structure.c **** *  This function gets the value of the specified parameter by the paramId
 900:Generated_Source\PSoC4/CapSense_Structure.c **** *  argument. The paramId for each register is available in the
 901:Generated_Source\PSoC4/CapSense_Structure.c **** *  CapSense RegisterMap header file as
 902:Generated_Source\PSoC4/CapSense_Structure.c **** *  CapSense_<ParameterName>_PARAM_ID. The paramId is a special
 903:Generated_Source\PSoC4/CapSense_Structure.c **** *  enumerated value generated by the customizer. The format of paramId is as
 904:Generated_Source\PSoC4/CapSense_Structure.c **** *  follows:
 905:Generated_Source\PSoC4/CapSense_Structure.c **** *    1. [ byte 3 byte 2 byte 1 byte 0 ]
 906:Generated_Source\PSoC4/CapSense_Structure.c **** *    2. [ TTWFCCCC UIIIIIII MMMMMMMM LLLLLLLL ]
 907:Generated_Source\PSoC4/CapSense_Structure.c **** *    3. T - encodes the parameter type:
 908:Generated_Source\PSoC4/CapSense_Structure.c **** *      - 01b: uint8
 909:Generated_Source\PSoC4/CapSense_Structure.c **** *      - 10b: uint16
 910:Generated_Source\PSoC4/CapSense_Structure.c **** *      - 11b: uint32
 911:Generated_Source\PSoC4/CapSense_Structure.c **** *    4. W - indicates whether the parameter is writable:
 912:Generated_Source\PSoC4/CapSense_Structure.c **** *      - 0: ReadOnly
 913:Generated_Source\PSoC4/CapSense_Structure.c **** *      - 1: Read/Write
 914:Generated_Source\PSoC4/CapSense_Structure.c **** *    5. C - 4 bit CRC (X^3 + 1) of the whole paramId word, the C bits are
 915:Generated_Source\PSoC4/CapSense_Structure.c **** *       filled with 0s when the CRC is calculated.
 916:Generated_Source\PSoC4/CapSense_Structure.c **** *    6. U - indicates if the parameter affects the RAM Widget Object CRC.
 917:Generated_Source\PSoC4/CapSense_Structure.c **** *    7. I - specifies that the widgetId parameter belongs to
 918:Generated_Source\PSoC4/CapSense_Structure.c **** *    8. M,L - the parameter offset MSB and LSB accordingly in:
 919:Generated_Source\PSoC4/CapSense_Structure.c **** *      - Flash Data Structure if W bit is 0.
 920:Generated_Source\PSoC4/CapSense_Structure.c **** *      - RAM Data Structure if W bit is 1.
 921:Generated_Source\PSoC4/CapSense_Structure.c **** *
 922:Generated_Source\PSoC4/CapSense_Structure.c **** *  Refer to the \ref group_structures section for details of the data structure
ARM GAS  C:\Users\inspiron\AppData\Local\Temp\cc3AwUZg.s 			page 23


 923:Generated_Source\PSoC4/CapSense_Structure.c **** *  organization and examples of its register access.
 924:Generated_Source\PSoC4/CapSense_Structure.c **** *
 925:Generated_Source\PSoC4/CapSense_Structure.c **** * \param paramId
 926:Generated_Source\PSoC4/CapSense_Structure.c **** *  Specifies the ID of parameter to get its value.
 927:Generated_Source\PSoC4/CapSense_Structure.c **** *  A macro for the parameter ID can be found in the CapSense RegisterMap header
 928:Generated_Source\PSoC4/CapSense_Structure.c **** *  file defined as CapSense_<ParameterName>_PARAM_ID.
 929:Generated_Source\PSoC4/CapSense_Structure.c **** *
 930:Generated_Source\PSoC4/CapSense_Structure.c **** * \param value
 931:Generated_Source\PSoC4/CapSense_Structure.c **** *  The pointer to a variable to be updated with the obtained value.
 932:Generated_Source\PSoC4/CapSense_Structure.c **** *
 933:Generated_Source\PSoC4/CapSense_Structure.c **** * \return
 934:Generated_Source\PSoC4/CapSense_Structure.c **** *  Returns the status of the operation:
 935:Generated_Source\PSoC4/CapSense_Structure.c **** *    - CYRET_SUCCESS - The operation is successfully completed.
 936:Generated_Source\PSoC4/CapSense_Structure.c **** *    - CYRET_BAD_PARAM - The input parameter is invalid.
 937:Generated_Source\PSoC4/CapSense_Structure.c **** *
 938:Generated_Source\PSoC4/CapSense_Structure.c **** *******************************************************************************/
 939:Generated_Source\PSoC4/CapSense_Structure.c **** cystatus CapSense_GetParam(uint32 paramId, uint32 *value)
 940:Generated_Source\PSoC4/CapSense_Structure.c **** {
 302              		.loc 1 940 0
 303              		.cfi_startproc
 304              		@ args = 0, pretend = 0, frame = 8
 305              		@ frame_needed = 0, uses_anonymous_args = 0
 306              	.LVL28:
 307 0000 30B5     		push	{r4, r5, lr}
 308              		.cfi_def_cfa_offset 12
 309              		.cfi_offset 4, -12
 310              		.cfi_offset 5, -8
 311              		.cfi_offset 14, -4
 312 0002 83B0     		sub	sp, sp, #12
 313              		.cfi_def_cfa_offset 24
 314 0004 0D00     		movs	r5, r1
 941:Generated_Source\PSoC4/CapSense_Structure.c ****     PARAM_ID_STRUCT pData;
 942:Generated_Source\PSoC4/CapSense_Structure.c ****     cystatus result;
 943:Generated_Source\PSoC4/CapSense_Structure.c **** 
 944:Generated_Source\PSoC4/CapSense_Structure.c ****     union
 945:Generated_Source\PSoC4/CapSense_Structure.c ****     {
 946:Generated_Source\PSoC4/CapSense_Structure.c ****         volatile void   const * ptr;
 947:Generated_Source\PSoC4/CapSense_Structure.c ****         volatile uint8  const * ptrUint8;
 948:Generated_Source\PSoC4/CapSense_Structure.c ****         volatile uint16 const * ptrUint16;
 949:Generated_Source\PSoC4/CapSense_Structure.c ****         volatile uint32 const * ptrUint32;
 950:Generated_Source\PSoC4/CapSense_Structure.c ****     } ptrData;
 951:Generated_Source\PSoC4/CapSense_Structure.c **** 
 952:Generated_Source\PSoC4/CapSense_Structure.c ****     result = DsParseParamId(paramId, &pData);
 315              		.loc 1 952 0
 316 0006 6946     		mov	r1, sp
 317              	.LVL29:
 318 0008 FFF7FEFF 		bl	DsParseParamId
 319              	.LVL30:
 320 000c 041E     		subs	r4, r0, #0
 321              	.LVL31:
 953:Generated_Source\PSoC4/CapSense_Structure.c **** 
 954:Generated_Source\PSoC4/CapSense_Structure.c ****     /* Parse and validate paramId */
 955:Generated_Source\PSoC4/CapSense_Structure.c ****     if (CYRET_SUCCESS == result)
 322              		.loc 1 955 0
 323 000e 1FD1     		bne	.L26
 956:Generated_Source\PSoC4/CapSense_Structure.c ****     {
 957:Generated_Source\PSoC4/CapSense_Structure.c ****         /* Get base address of parameter */
ARM GAS  C:\Users\inspiron\AppData\Local\Temp\cc3AwUZg.s 			page 24


 958:Generated_Source\PSoC4/CapSense_Structure.c ****         if (0u == pData.flash)
 324              		.loc 1 958 0
 325 0010 6B46     		mov	r3, sp
 326 0012 5B79     		ldrb	r3, [r3, #5]
 327 0014 002B     		cmp	r3, #0
 328 0016 01D1     		bne	.L27
 959:Generated_Source\PSoC4/CapSense_Structure.c ****         {
 960:Generated_Source\PSoC4/CapSense_Structure.c ****             ptrData.ptr = &CapSense_dsRam;
 329              		.loc 1 960 0
 330 0018 0F4A     		ldr	r2, .L32
 331              	.LVL32:
 332 001a 02E0     		b	.L28
 333              	.L27:
 961:Generated_Source\PSoC4/CapSense_Structure.c ****         }
 962:Generated_Source\PSoC4/CapSense_Structure.c ****         else
 963:Generated_Source\PSoC4/CapSense_Structure.c ****         {
 964:Generated_Source\PSoC4/CapSense_Structure.c ****             ptrData.ptr = &CapSense_dsFlash;
 334              		.loc 1 964 0
 335 001c 0F4B     		ldr	r3, .L32+4
 336 001e 3433     		adds	r3, r3, #52
 337 0020 1A00     		movs	r2, r3
 338              	.L28:
 965:Generated_Source\PSoC4/CapSense_Structure.c ****         }
 966:Generated_Source\PSoC4/CapSense_Structure.c **** 
 967:Generated_Source\PSoC4/CapSense_Structure.c ****         /* Add offset to base address */
 968:Generated_Source\PSoC4/CapSense_Structure.c ****         ptrData.ptrUint8 += pData.offset;
 339              		.loc 1 968 0
 340 0022 6B46     		mov	r3, sp
 341 0024 1B88     		ldrh	r3, [r3]
 342              	.LVL33:
 343 0026 D318     		adds	r3, r2, r3
 969:Generated_Source\PSoC4/CapSense_Structure.c **** 
 970:Generated_Source\PSoC4/CapSense_Structure.c ****         /* Read data */
 971:Generated_Source\PSoC4/CapSense_Structure.c ****         if (DS_PARAM_TYPE_UINT8 == pData.type)
 344              		.loc 1 971 0
 345 0028 6A46     		mov	r2, sp
 346              	.LVL34:
 347 002a D279     		ldrb	r2, [r2, #7]
 348 002c 012A     		cmp	r2, #1
 349 002e 02D1     		bne	.L29
 972:Generated_Source\PSoC4/CapSense_Structure.c ****         {
 973:Generated_Source\PSoC4/CapSense_Structure.c ****             *value = (uint32) (*ptrData.ptrUint8);
 350              		.loc 1 973 0
 351 0030 1B78     		ldrb	r3, [r3]
 352 0032 2B60     		str	r3, [r5]
 353 0034 0CE0     		b	.L26
 354              	.L29:
 974:Generated_Source\PSoC4/CapSense_Structure.c ****         }
 975:Generated_Source\PSoC4/CapSense_Structure.c ****         else if (DS_PARAM_TYPE_UINT16 == pData.type)
 355              		.loc 1 975 0
 356 0036 022A     		cmp	r2, #2
 357 0038 02D1     		bne	.L30
 976:Generated_Source\PSoC4/CapSense_Structure.c ****         {
 977:Generated_Source\PSoC4/CapSense_Structure.c ****             *value = (uint32) (*ptrData.ptrUint16);
 358              		.loc 1 977 0
 359 003a 1B88     		ldrh	r3, [r3]
 360 003c 2B60     		str	r3, [r5]
ARM GAS  C:\Users\inspiron\AppData\Local\Temp\cc3AwUZg.s 			page 25


 361 003e 07E0     		b	.L26
 362              	.L30:
 978:Generated_Source\PSoC4/CapSense_Structure.c ****         }
 979:Generated_Source\PSoC4/CapSense_Structure.c ****         else if (DS_PARAM_TYPE_UINT32 == pData.type)
 363              		.loc 1 979 0
 364 0040 032A     		cmp	r2, #3
 365 0042 02D1     		bne	.L31
 980:Generated_Source\PSoC4/CapSense_Structure.c ****         {
 981:Generated_Source\PSoC4/CapSense_Structure.c ****             *value = *ptrData.ptrUint32;
 366              		.loc 1 981 0
 367 0044 1B68     		ldr	r3, [r3]
 368 0046 2B60     		str	r3, [r5]
 369 0048 02E0     		b	.L26
 370              	.L31:
 982:Generated_Source\PSoC4/CapSense_Structure.c ****         }
 983:Generated_Source\PSoC4/CapSense_Structure.c ****         else
 984:Generated_Source\PSoC4/CapSense_Structure.c ****         {
 985:Generated_Source\PSoC4/CapSense_Structure.c ****             /* Parameter comes here already validated. */
 986:Generated_Source\PSoC4/CapSense_Structure.c ****             CYASSERT(0u);
 371              		.loc 1 986 0 discriminator 1
 372 004a 0020     		movs	r0, #0
 373              	.LVL35:
 374 004c FFF7FEFF 		bl	CyHalt
 375              	.LVL36:
 376              	.L26:
 987:Generated_Source\PSoC4/CapSense_Structure.c ****         }
 988:Generated_Source\PSoC4/CapSense_Structure.c ****     }
 989:Generated_Source\PSoC4/CapSense_Structure.c **** 
 990:Generated_Source\PSoC4/CapSense_Structure.c ****     return result;
 991:Generated_Source\PSoC4/CapSense_Structure.c **** }
 377              		.loc 1 991 0
 378 0050 2000     		movs	r0, r4
 379 0052 03B0     		add	sp, sp, #12
 380              		@ sp needed
 381              	.LVL37:
 382              	.LVL38:
 383 0054 30BD     		pop	{r4, r5, pc}
 384              	.L33:
 385 0056 C046     		.align	2
 386              	.L32:
 387 0058 00000000 		.word	CapSense_dsRam
 388 005c 00000000 		.word	.LANCHOR0
 389              		.cfi_endproc
 390              	.LFE3:
 391              		.size	CapSense_GetParam, .-CapSense_GetParam
 392              		.section	.text.CapSense_SetParam,"ax",%progbits
 393              		.align	2
 394              		.global	CapSense_SetParam
 395              		.code	16
 396              		.thumb_func
 397              		.type	CapSense_SetParam, %function
 398              	CapSense_SetParam:
 399              	.LFB4:
 992:Generated_Source\PSoC4/CapSense_Structure.c **** 
 993:Generated_Source\PSoC4/CapSense_Structure.c **** 
 994:Generated_Source\PSoC4/CapSense_Structure.c **** /*******************************************************************************
 995:Generated_Source\PSoC4/CapSense_Structure.c **** * Function Name: CapSense_SetParam
ARM GAS  C:\Users\inspiron\AppData\Local\Temp\cc3AwUZg.s 			page 26


 996:Generated_Source\PSoC4/CapSense_Structure.c **** ****************************************************************************//**
 997:Generated_Source\PSoC4/CapSense_Structure.c **** *
 998:Generated_Source\PSoC4/CapSense_Structure.c **** * \brief
 999:Generated_Source\PSoC4/CapSense_Structure.c **** *  Sets a new value for the specified parameter in the \ref group_structures.
1000:Generated_Source\PSoC4/CapSense_Structure.c **** *
1001:Generated_Source\PSoC4/CapSense_Structure.c **** * \details
1002:Generated_Source\PSoC4/CapSense_Structure.c **** *  This function sets the value of the specified parameter by the paramId
1003:Generated_Source\PSoC4/CapSense_Structure.c **** *  argument. The paramId for each register is available in the
1004:Generated_Source\PSoC4/CapSense_Structure.c **** *  CapSense RegisterMap header file as
1005:Generated_Source\PSoC4/CapSense_Structure.c **** *  CapSense_<ParameterName>_PARAM_ID. The paramId is a special
1006:Generated_Source\PSoC4/CapSense_Structure.c **** *  enumerated value generated by the customizer. The format of paramId is as
1007:Generated_Source\PSoC4/CapSense_Structure.c **** *  follows:
1008:Generated_Source\PSoC4/CapSense_Structure.c **** *    1. [ byte 3 byte 2 byte 1 byte 0 ]
1009:Generated_Source\PSoC4/CapSense_Structure.c **** *    2. [ TTWFCCCC UIIIIIII MMMMMMMM LLLLLLLL ]
1010:Generated_Source\PSoC4/CapSense_Structure.c **** *    3. T - encodes the parameter type:
1011:Generated_Source\PSoC4/CapSense_Structure.c **** *      - 01b: uint8
1012:Generated_Source\PSoC4/CapSense_Structure.c **** *      - 10b: uint16
1013:Generated_Source\PSoC4/CapSense_Structure.c **** *      - 11b: uint32
1014:Generated_Source\PSoC4/CapSense_Structure.c **** *    4. W - indicates whether the parameter is writable:
1015:Generated_Source\PSoC4/CapSense_Structure.c **** *      - 0: ReadOnly
1016:Generated_Source\PSoC4/CapSense_Structure.c **** *      - 1: Read/Write
1017:Generated_Source\PSoC4/CapSense_Structure.c **** *    5. C - 4 bit CRC (X^3 + 1) of the whole paramId word, the C bits are
1018:Generated_Source\PSoC4/CapSense_Structure.c **** *       filled with 0s when the CRC is calculated.
1019:Generated_Source\PSoC4/CapSense_Structure.c **** *    6. U - indicates if the parameter affects the RAM Widget Object CRC.
1020:Generated_Source\PSoC4/CapSense_Structure.c **** *    7. I - specifies that the widgetId parameter belongs to
1021:Generated_Source\PSoC4/CapSense_Structure.c **** *    8. M,L - the parameter offset MSB and LSB accordingly in:
1022:Generated_Source\PSoC4/CapSense_Structure.c **** *      - Flash Data Structure if W bit is 0.
1023:Generated_Source\PSoC4/CapSense_Structure.c **** *      - RAM Data Structure if W bit is 1.
1024:Generated_Source\PSoC4/CapSense_Structure.c **** *
1025:Generated_Source\PSoC4/CapSense_Structure.c **** *  Refer to the \ref group_structures section for details of the data structure
1026:Generated_Source\PSoC4/CapSense_Structure.c **** *  organization and examples of its register access.
1027:Generated_Source\PSoC4/CapSense_Structure.c **** *
1028:Generated_Source\PSoC4/CapSense_Structure.c **** *  This function writes specified value into the desired register without
1029:Generated_Source\PSoC4/CapSense_Structure.c **** *  other registers update. It is application layer responsibility to keep all
1030:Generated_Source\PSoC4/CapSense_Structure.c **** *  the data structure registers aligned. Repeated call of
1031:Generated_Source\PSoC4/CapSense_Structure.c **** *  CapSense_Start() function helps aligning dependent register values.
1032:Generated_Source\PSoC4/CapSense_Structure.c **** *
1033:Generated_Source\PSoC4/CapSense_Structure.c **** * \param paramId
1034:Generated_Source\PSoC4/CapSense_Structure.c **** *  Specifies the ID of parameter to set its value.
1035:Generated_Source\PSoC4/CapSense_Structure.c **** *  A macro for the parameter ID can be found in the CapSense RegisterMap header
1036:Generated_Source\PSoC4/CapSense_Structure.c **** *  file defined as CapSense_<ParameterName>_PARAM_ID.
1037:Generated_Source\PSoC4/CapSense_Structure.c **** 
1038:Generated_Source\PSoC4/CapSense_Structure.c **** * \param value
1039:Generated_Source\PSoC4/CapSense_Structure.c **** *  Specifies the new parameter's value.
1040:Generated_Source\PSoC4/CapSense_Structure.c **** *
1041:Generated_Source\PSoC4/CapSense_Structure.c **** * \return
1042:Generated_Source\PSoC4/CapSense_Structure.c **** *  Returns the status of the operation:
1043:Generated_Source\PSoC4/CapSense_Structure.c **** *    - CYRET_SUCCESS - The operation is successfully completed.
1044:Generated_Source\PSoC4/CapSense_Structure.c **** *    - CYRET_BAD_PARAM - The input parameter is invalid.
1045:Generated_Source\PSoC4/CapSense_Structure.c **** *
1046:Generated_Source\PSoC4/CapSense_Structure.c **** *******************************************************************************/
1047:Generated_Source\PSoC4/CapSense_Structure.c **** cystatus CapSense_SetParam(uint32 paramId, uint32 value)
1048:Generated_Source\PSoC4/CapSense_Structure.c **** {
 400              		.loc 1 1048 0
 401              		.cfi_startproc
 402              		@ args = 0, pretend = 0, frame = 8
 403              		@ frame_needed = 0, uses_anonymous_args = 0
ARM GAS  C:\Users\inspiron\AppData\Local\Temp\cc3AwUZg.s 			page 27


 404              	.LVL39:
 405 0000 30B5     		push	{r4, r5, lr}
 406              		.cfi_def_cfa_offset 12
 407              		.cfi_offset 4, -12
 408              		.cfi_offset 5, -8
 409              		.cfi_offset 14, -4
 410 0002 83B0     		sub	sp, sp, #12
 411              		.cfi_def_cfa_offset 24
 412 0004 0D00     		movs	r5, r1
1049:Generated_Source\PSoC4/CapSense_Structure.c ****     cystatus result;
1050:Generated_Source\PSoC4/CapSense_Structure.c ****     PARAM_ID_STRUCT pData;
1051:Generated_Source\PSoC4/CapSense_Structure.c **** 
1052:Generated_Source\PSoC4/CapSense_Structure.c ****     union
1053:Generated_Source\PSoC4/CapSense_Structure.c ****     {
1054:Generated_Source\PSoC4/CapSense_Structure.c ****         volatile void   * ptr;
1055:Generated_Source\PSoC4/CapSense_Structure.c ****         volatile uint8  * ptrUint8;
1056:Generated_Source\PSoC4/CapSense_Structure.c ****         volatile uint16 * ptrUint16;
1057:Generated_Source\PSoC4/CapSense_Structure.c ****         volatile uint32 * ptrUint32;
1058:Generated_Source\PSoC4/CapSense_Structure.c ****     } ptrData;
1059:Generated_Source\PSoC4/CapSense_Structure.c **** 
1060:Generated_Source\PSoC4/CapSense_Structure.c ****     result = DsParseParamId(paramId, &pData);
 413              		.loc 1 1060 0
 414 0006 6946     		mov	r1, sp
 415              	.LVL40:
 416 0008 FFF7FEFF 		bl	DsParseParamId
 417              	.LVL41:
 418 000c 041E     		subs	r4, r0, #0
 419              	.LVL42:
1061:Generated_Source\PSoC4/CapSense_Structure.c **** 
1062:Generated_Source\PSoC4/CapSense_Structure.c ****     /* verify if parameter is writable */
1063:Generated_Source\PSoC4/CapSense_Structure.c ****     if (CYRET_SUCCESS == result)
 420              		.loc 1 1063 0
 421 000e 04D1     		bne	.L35
1064:Generated_Source\PSoC4/CapSense_Structure.c ****     {
1065:Generated_Source\PSoC4/CapSense_Structure.c ****         if (0u == pData.rw)
 422              		.loc 1 1065 0
 423 0010 6B46     		mov	r3, sp
 424 0012 9B79     		ldrb	r3, [r3, #6]
 425 0014 002B     		cmp	r3, #0
 426 0016 00D1     		bne	.L35
1066:Generated_Source\PSoC4/CapSense_Structure.c ****         {
1067:Generated_Source\PSoC4/CapSense_Structure.c ****             result = CYRET_BAD_PARAM;
 427              		.loc 1 1067 0
 428 0018 0134     		adds	r4, r4, #1
 429              	.L35:
 430              	.LVL43:
1068:Generated_Source\PSoC4/CapSense_Structure.c ****         }
1069:Generated_Source\PSoC4/CapSense_Structure.c ****     }
1070:Generated_Source\PSoC4/CapSense_Structure.c **** 
1071:Generated_Source\PSoC4/CapSense_Structure.c ****     /* Parse and validate paramId */
1072:Generated_Source\PSoC4/CapSense_Structure.c ****     if (CYRET_SUCCESS == result)
 431              		.loc 1 1072 0
 432 001a 002C     		cmp	r4, #0
 433 001c 16D1     		bne	.L36
1073:Generated_Source\PSoC4/CapSense_Structure.c ****     {
1074:Generated_Source\PSoC4/CapSense_Structure.c ****         /* Get base address of parameter */
1075:Generated_Source\PSoC4/CapSense_Structure.c ****         ptrData.ptr = &CapSense_dsRam;
ARM GAS  C:\Users\inspiron\AppData\Local\Temp\cc3AwUZg.s 			page 28


1076:Generated_Source\PSoC4/CapSense_Structure.c **** 
1077:Generated_Source\PSoC4/CapSense_Structure.c ****         /* Add offset to base address */
1078:Generated_Source\PSoC4/CapSense_Structure.c ****         ptrData.ptrUint8 += pData.offset;
 434              		.loc 1 1078 0
 435 001e 6B46     		mov	r3, sp
 436 0020 1A88     		ldrh	r2, [r3]
 437 0022 0C4B     		ldr	r3, .L41
 438 0024 D318     		adds	r3, r2, r3
1079:Generated_Source\PSoC4/CapSense_Structure.c **** 
1080:Generated_Source\PSoC4/CapSense_Structure.c ****         /* Write data */
1081:Generated_Source\PSoC4/CapSense_Structure.c ****         if (DS_PARAM_TYPE_UINT8 == pData.type)
 439              		.loc 1 1081 0
 440 0026 6A46     		mov	r2, sp
 441 0028 D279     		ldrb	r2, [r2, #7]
 442 002a 012A     		cmp	r2, #1
 443 002c 02D1     		bne	.L37
1082:Generated_Source\PSoC4/CapSense_Structure.c ****         {
1083:Generated_Source\PSoC4/CapSense_Structure.c ****             *ptrData.ptrUint8 = LO8(value);
 444              		.loc 1 1083 0
 445 002e EDB2     		uxtb	r5, r5
 446              	.LVL44:
 447 0030 1D70     		strb	r5, [r3]
 448 0032 0BE0     		b	.L36
 449              	.LVL45:
 450              	.L37:
1084:Generated_Source\PSoC4/CapSense_Structure.c ****         }
1085:Generated_Source\PSoC4/CapSense_Structure.c ****         else if (DS_PARAM_TYPE_UINT16 == pData.type)
 451              		.loc 1 1085 0
 452 0034 022A     		cmp	r2, #2
 453 0036 02D1     		bne	.L38
1086:Generated_Source\PSoC4/CapSense_Structure.c ****         {
1087:Generated_Source\PSoC4/CapSense_Structure.c ****             *ptrData.ptrUint16 = LO16(value);
 454              		.loc 1 1087 0
 455 0038 ADB2     		uxth	r5, r5
 456              	.LVL46:
 457 003a 1D80     		strh	r5, [r3]
 458 003c 06E0     		b	.L36
 459              	.LVL47:
 460              	.L38:
1088:Generated_Source\PSoC4/CapSense_Structure.c ****         }
1089:Generated_Source\PSoC4/CapSense_Structure.c ****         else if (DS_PARAM_TYPE_UINT32 == pData.type)
 461              		.loc 1 1089 0
 462 003e 032A     		cmp	r2, #3
 463 0040 01D1     		bne	.L39
1090:Generated_Source\PSoC4/CapSense_Structure.c ****         {
1091:Generated_Source\PSoC4/CapSense_Structure.c ****             *ptrData.ptrUint32 = value;
 464              		.loc 1 1091 0
 465 0042 1D60     		str	r5, [r3]
 466 0044 02E0     		b	.L36
 467              	.L39:
1092:Generated_Source\PSoC4/CapSense_Structure.c ****         }
1093:Generated_Source\PSoC4/CapSense_Structure.c ****         else
1094:Generated_Source\PSoC4/CapSense_Structure.c ****         {
1095:Generated_Source\PSoC4/CapSense_Structure.c ****             /* Parameter comes here already validated. */
1096:Generated_Source\PSoC4/CapSense_Structure.c ****             CYASSERT(0u);
 468              		.loc 1 1096 0 discriminator 1
 469 0046 0020     		movs	r0, #0
ARM GAS  C:\Users\inspiron\AppData\Local\Temp\cc3AwUZg.s 			page 29


 470 0048 FFF7FEFF 		bl	CyHalt
 471              	.LVL48:
 472              	.L36:
1097:Generated_Source\PSoC4/CapSense_Structure.c ****         }
1098:Generated_Source\PSoC4/CapSense_Structure.c **** 
1099:Generated_Source\PSoC4/CapSense_Structure.c ****         #if (CapSense_ENABLE == (CapSense_TST_WDGT_CRC_EN || CapSense_TST_GLOBAL_CRC_EN))
1100:Generated_Source\PSoC4/CapSense_Structure.c ****             /* Update widget or global CRC if self-test is enabled and parameter affects it */
1101:Generated_Source\PSoC4/CapSense_Structure.c ****             if (0u != pData.affectsCrc)
1102:Generated_Source\PSoC4/CapSense_Structure.c ****             {
1103:Generated_Source\PSoC4/CapSense_Structure.c ****                 if ((ptrData.ptrUint16 >= &CapSense_dsRam.csd0Config) &&
1104:Generated_Source\PSoC4/CapSense_Structure.c ****                     (ptrData.ptrUint16 <  &CapSense_dsRam.glbCrc))
1105:Generated_Source\PSoC4/CapSense_Structure.c ****                 {
1106:Generated_Source\PSoC4/CapSense_Structure.c **** 
1107:Generated_Source\PSoC4/CapSense_Structure.c ****                     #if (CapSense_ENABLE == CapSense_TST_GLOBAL_CRC_EN)
1108:Generated_Source\PSoC4/CapSense_Structure.c ****                         CapSense_DsUpdateGlobalCrc();
1109:Generated_Source\PSoC4/CapSense_Structure.c ****                     #endif /* (CapSense_ENABLE == CapSense_TST_GLOBAL_CRC_EN) */
1110:Generated_Source\PSoC4/CapSense_Structure.c **** 
1111:Generated_Source\PSoC4/CapSense_Structure.c ****                 }
1112:Generated_Source\PSoC4/CapSense_Structure.c ****                 else
1113:Generated_Source\PSoC4/CapSense_Structure.c ****                 {
1114:Generated_Source\PSoC4/CapSense_Structure.c ****                     #if (CapSense_ENABLE == CapSense_TST_WDGT_CRC_EN)
1115:Generated_Source\PSoC4/CapSense_Structure.c ****                         CapSense_DsUpdateWidgetCrc((uint32)pData.widgetId);
1116:Generated_Source\PSoC4/CapSense_Structure.c ****                     #endif /* (CapSense_ENABLE == CapSense_TST_WDGT_CRC_EN) */
1117:Generated_Source\PSoC4/CapSense_Structure.c ****                 }
1118:Generated_Source\PSoC4/CapSense_Structure.c ****             }
1119:Generated_Source\PSoC4/CapSense_Structure.c ****         #endif /* (CapSense_ENABLE == (CapSense_TST_WDGT_CRC_EN || CapSense_TST_GLOBAL_CRC_EN)) */
1120:Generated_Source\PSoC4/CapSense_Structure.c ****     }
1121:Generated_Source\PSoC4/CapSense_Structure.c **** 
1122:Generated_Source\PSoC4/CapSense_Structure.c ****     return result;
1123:Generated_Source\PSoC4/CapSense_Structure.c **** }
 473              		.loc 1 1123 0
 474 004c 2000     		movs	r0, r4
 475 004e 03B0     		add	sp, sp, #12
 476              		@ sp needed
 477              	.LVL49:
 478 0050 30BD     		pop	{r4, r5, pc}
 479              	.L42:
 480 0052 C046     		.align	2
 481              	.L41:
 482 0054 00000000 		.word	CapSense_dsRam
 483              		.cfi_endproc
 484              	.LFE4:
 485              		.size	CapSense_SetParam, .-CapSense_SetParam
 486              		.section	.text.CapSense_IsAnyWidgetActive,"ax",%progbits
 487              		.align	2
 488              		.global	CapSense_IsAnyWidgetActive
 489              		.code	16
 490              		.thumb_func
 491              		.type	CapSense_IsAnyWidgetActive, %function
 492              	CapSense_IsAnyWidgetActive:
 493              	.LFB5:
1124:Generated_Source\PSoC4/CapSense_Structure.c **** 
1125:Generated_Source\PSoC4/CapSense_Structure.c **** /*******************************************************************************
1126:Generated_Source\PSoC4/CapSense_Structure.c **** * Function Name: CapSense_IsAnyWidgetActive
1127:Generated_Source\PSoC4/CapSense_Structure.c **** ****************************************************************************//**
1128:Generated_Source\PSoC4/CapSense_Structure.c **** *
1129:Generated_Source\PSoC4/CapSense_Structure.c **** * \brief
ARM GAS  C:\Users\inspiron\AppData\Local\Temp\cc3AwUZg.s 			page 30


1130:Generated_Source\PSoC4/CapSense_Structure.c **** *  Reports if any widget has detected a touch.
1131:Generated_Source\PSoC4/CapSense_Structure.c **** *
1132:Generated_Source\PSoC4/CapSense_Structure.c **** * \details
1133:Generated_Source\PSoC4/CapSense_Structure.c **** *  This function reports if any widget has detected a touch or not by extracting
1134:Generated_Source\PSoC4/CapSense_Structure.c **** *  information from the wdgtStatus registers
1135:Generated_Source\PSoC4/CapSense_Structure.c **** *  (CapSense_WDGT_STATUS<X>_VALUE). This function does not process a
1136:Generated_Source\PSoC4/CapSense_Structure.c **** *  widget but extracts processed results from the \ref group_structures.
1137:Generated_Source\PSoC4/CapSense_Structure.c **** *
1138:Generated_Source\PSoC4/CapSense_Structure.c **** * \return
1139:Generated_Source\PSoC4/CapSense_Structure.c **** *   Returns the touch detection status of all the widgets:
1140:Generated_Source\PSoC4/CapSense_Structure.c **** *     - Zero - No touch is detected in all the widgets or sensors.
1141:Generated_Source\PSoC4/CapSense_Structure.c **** *     - Non-zero - At least one widget or sensor detected a touch.
1142:Generated_Source\PSoC4/CapSense_Structure.c **** *
1143:Generated_Source\PSoC4/CapSense_Structure.c **** *******************************************************************************/
1144:Generated_Source\PSoC4/CapSense_Structure.c **** uint32 CapSense_IsAnyWidgetActive(void)
1145:Generated_Source\PSoC4/CapSense_Structure.c **** {
 494              		.loc 1 1145 0
 495              		.cfi_startproc
 496              		@ args = 0, pretend = 0, frame = 0
 497              		@ frame_needed = 0, uses_anonymous_args = 0
 498              		@ link register save eliminated.
 499              	.LVL50:
1146:Generated_Source\PSoC4/CapSense_Structure.c ****     uint32 result = 0Lu;
1147:Generated_Source\PSoC4/CapSense_Structure.c ****     uint32 wdWord;
1148:Generated_Source\PSoC4/CapSense_Structure.c **** 
1149:Generated_Source\PSoC4/CapSense_Structure.c ****     for (wdWord = CapSense_WDGT_STATUS_WORDS; wdWord-- > 0u;)
 500              		.loc 1 1149 0
 501 0000 0123     		movs	r3, #1
1146:Generated_Source\PSoC4/CapSense_Structure.c ****     uint32 result = 0Lu;
 502              		.loc 1 1146 0
 503 0002 0020     		movs	r0, #0
 504              		.loc 1 1149 0
 505 0004 06E0     		b	.L44
 506              	.LVL51:
 507              	.L45:
1150:Generated_Source\PSoC4/CapSense_Structure.c ****     {
1151:Generated_Source\PSoC4/CapSense_Structure.c ****         result |= CapSense_dsRam.wdgtStatus[wdWord];
 508              		.loc 1 1151 0
 509 0006 131D     		adds	r3, r2, #4
 510 0008 9B00     		lsls	r3, r3, #2
 511 000a 0449     		ldr	r1, .L46
 512 000c CB18     		adds	r3, r1, r3
 513 000e 5B68     		ldr	r3, [r3, #4]
 514 0010 1843     		orrs	r0, r3
 515              	.LVL52:
1149:Generated_Source\PSoC4/CapSense_Structure.c ****     {
 516              		.loc 1 1149 0
 517 0012 1300     		movs	r3, r2
 518              	.LVL53:
 519              	.L44:
1149:Generated_Source\PSoC4/CapSense_Structure.c ****     {
 520              		.loc 1 1149 0 is_stmt 0 discriminator 1
 521 0014 5A1E     		subs	r2, r3, #1
 522              	.LVL54:
 523 0016 002B     		cmp	r3, #0
 524 0018 F5D1     		bne	.L45
1152:Generated_Source\PSoC4/CapSense_Structure.c ****     }
ARM GAS  C:\Users\inspiron\AppData\Local\Temp\cc3AwUZg.s 			page 31


1153:Generated_Source\PSoC4/CapSense_Structure.c **** 
1154:Generated_Source\PSoC4/CapSense_Structure.c ****     return result;
1155:Generated_Source\PSoC4/CapSense_Structure.c **** }
 525              		.loc 1 1155 0 is_stmt 1
 526              		@ sp needed
 527 001a 7047     		bx	lr
 528              	.L47:
 529              		.align	2
 530              	.L46:
 531 001c 00000000 		.word	CapSense_dsRam
 532              		.cfi_endproc
 533              	.LFE5:
 534              		.size	CapSense_IsAnyWidgetActive, .-CapSense_IsAnyWidgetActive
 535              		.section	.text.CapSense_IsWidgetActive,"ax",%progbits
 536              		.align	2
 537              		.global	CapSense_IsWidgetActive
 538              		.code	16
 539              		.thumb_func
 540              		.type	CapSense_IsWidgetActive, %function
 541              	CapSense_IsWidgetActive:
 542              	.LFB6:
1156:Generated_Source\PSoC4/CapSense_Structure.c **** 
1157:Generated_Source\PSoC4/CapSense_Structure.c **** 
1158:Generated_Source\PSoC4/CapSense_Structure.c **** /*******************************************************************************
1159:Generated_Source\PSoC4/CapSense_Structure.c **** * Function Name: CapSense_IsWidgetActive
1160:Generated_Source\PSoC4/CapSense_Structure.c **** ****************************************************************************//**
1161:Generated_Source\PSoC4/CapSense_Structure.c **** *
1162:Generated_Source\PSoC4/CapSense_Structure.c **** * \brief
1163:Generated_Source\PSoC4/CapSense_Structure.c **** *  Reports if the specified widget detects a touch on any of its sensors.
1164:Generated_Source\PSoC4/CapSense_Structure.c **** *
1165:Generated_Source\PSoC4/CapSense_Structure.c **** * \details
1166:Generated_Source\PSoC4/CapSense_Structure.c **** *  This function reports if the specified widget has detected a touch or not by
1167:Generated_Source\PSoC4/CapSense_Structure.c **** *  extracting information from the wdgtStatus registers
1168:Generated_Source\PSoC4/CapSense_Structure.c **** *  (CapSense_WDGT_STATUS<X>_VALUE). This function does not process the
1169:Generated_Source\PSoC4/CapSense_Structure.c **** *  widget but extracts processed results from the \ref group_structures.
1170:Generated_Source\PSoC4/CapSense_Structure.c **** *
1171:Generated_Source\PSoC4/CapSense_Structure.c **** * \param widgetId
1172:Generated_Source\PSoC4/CapSense_Structure.c **** *  Specifies the ID number of the widget to get its status.
1173:Generated_Source\PSoC4/CapSense_Structure.c **** *  A macro for the widget ID can be found in the CapSense Configuration header
1174:Generated_Source\PSoC4/CapSense_Structure.c **** *  file defined as CapSense_<WidgetName>_WDGT_ID.
1175:Generated_Source\PSoC4/CapSense_Structure.c **** *
1176:Generated_Source\PSoC4/CapSense_Structure.c **** * \return
1177:Generated_Source\PSoC4/CapSense_Structure.c **** *  Returns the touch detection status of the specified widgets:
1178:Generated_Source\PSoC4/CapSense_Structure.c **** *    - Zero - No touch is detected in the specified widget or a wrong widgetId
1179:Generated_Source\PSoC4/CapSense_Structure.c **** *      is specified.
1180:Generated_Source\PSoC4/CapSense_Structure.c **** *    - Non-zero if at least one sensor of the specified widget is active, i.e.
1181:Generated_Source\PSoC4/CapSense_Structure.c **** *      a touch is detected.
1182:Generated_Source\PSoC4/CapSense_Structure.c **** *
1183:Generated_Source\PSoC4/CapSense_Structure.c **** *******************************************************************************/
1184:Generated_Source\PSoC4/CapSense_Structure.c **** uint32 CapSense_IsWidgetActive(uint32 widgetId)
1185:Generated_Source\PSoC4/CapSense_Structure.c **** {
 543              		.loc 1 1185 0
 544              		.cfi_startproc
 545              		@ args = 0, pretend = 0, frame = 0
 546              		@ frame_needed = 0, uses_anonymous_args = 0
 547              		@ link register save eliminated.
 548              	.LVL55:
ARM GAS  C:\Users\inspiron\AppData\Local\Temp\cc3AwUZg.s 			page 32


1186:Generated_Source\PSoC4/CapSense_Structure.c ****     uint32 result = 0Lu;
1187:Generated_Source\PSoC4/CapSense_Structure.c **** 
1188:Generated_Source\PSoC4/CapSense_Structure.c ****     if (widgetId < CapSense_TOTAL_WIDGETS)
 549              		.loc 1 1188 0
 550 0000 0028     		cmp	r0, #0
 551 0002 0BD1     		bne	.L50
1189:Generated_Source\PSoC4/CapSense_Structure.c ****     {
1190:Generated_Source\PSoC4/CapSense_Structure.c ****         result = CapSense_GET_WIDGET_ACTIVE_STATUS(widgetId);
 552              		.loc 1 1190 0
 553 0004 1F23     		movs	r3, #31
 554 0006 0340     		ands	r3, r0
 555 0008 0122     		movs	r2, #1
 556 000a 9A40     		lsls	r2, r2, r3
 557 000c 4009     		lsrs	r0, r0, #5
 558              	.LVL56:
 559 000e 031D     		adds	r3, r0, #4
 560 0010 9B00     		lsls	r3, r3, #2
 561 0012 0348     		ldr	r0, .L51
 562 0014 C318     		adds	r3, r0, r3
 563 0016 5868     		ldr	r0, [r3, #4]
 564 0018 1040     		ands	r0, r2
 565              	.LVL57:
 566 001a 00E0     		b	.L49
 567              	.LVL58:
 568              	.L50:
1186:Generated_Source\PSoC4/CapSense_Structure.c ****     uint32 result = 0Lu;
 569              		.loc 1 1186 0
 570 001c 0020     		movs	r0, #0
 571              	.LVL59:
 572              	.L49:
1191:Generated_Source\PSoC4/CapSense_Structure.c ****     }
1192:Generated_Source\PSoC4/CapSense_Structure.c ****     return result;
1193:Generated_Source\PSoC4/CapSense_Structure.c **** }
 573              		.loc 1 1193 0
 574              		@ sp needed
 575 001e 7047     		bx	lr
 576              	.L52:
 577              		.align	2
 578              	.L51:
 579 0020 00000000 		.word	CapSense_dsRam
 580              		.cfi_endproc
 581              	.LFE6:
 582              		.size	CapSense_IsWidgetActive, .-CapSense_IsWidgetActive
 583              		.section	.text.CapSense_IsSensorActive,"ax",%progbits
 584              		.align	2
 585              		.global	CapSense_IsSensorActive
 586              		.code	16
 587              		.thumb_func
 588              		.type	CapSense_IsSensorActive, %function
 589              	CapSense_IsSensorActive:
 590              	.LFB7:
1194:Generated_Source\PSoC4/CapSense_Structure.c **** 
1195:Generated_Source\PSoC4/CapSense_Structure.c **** 
1196:Generated_Source\PSoC4/CapSense_Structure.c **** /*******************************************************************************
1197:Generated_Source\PSoC4/CapSense_Structure.c **** * Function Name: CapSense_IsSensorActive
1198:Generated_Source\PSoC4/CapSense_Structure.c **** ****************************************************************************//**
1199:Generated_Source\PSoC4/CapSense_Structure.c **** *
ARM GAS  C:\Users\inspiron\AppData\Local\Temp\cc3AwUZg.s 			page 33


1200:Generated_Source\PSoC4/CapSense_Structure.c **** * \brief
1201:Generated_Source\PSoC4/CapSense_Structure.c **** *  Reports if the specified sensor in the widget detects a touch.
1202:Generated_Source\PSoC4/CapSense_Structure.c **** *
1203:Generated_Source\PSoC4/CapSense_Structure.c **** * \details
1204:Generated_Source\PSoC4/CapSense_Structure.c **** *  This function reports if the specified sensor in the widget has detected a
1205:Generated_Source\PSoC4/CapSense_Structure.c **** *  touch or not by extracting information from the wdgtStatus registers
1206:Generated_Source\PSoC4/CapSense_Structure.c **** *  (CapSense_WDGT_STATUS<X>_VALUE). This function does not process the
1207:Generated_Source\PSoC4/CapSense_Structure.c **** *  widget or sensor but extracts processed results from the \ref group_structures.
1208:Generated_Source\PSoC4/CapSense_Structure.c **** *
1209:Generated_Source\PSoC4/CapSense_Structure.c **** *  For proximity sensors, this function returns the proximity detection status. To
1210:Generated_Source\PSoC4/CapSense_Structure.c **** *  get the finger touch status of proximity sensors, use the
1211:Generated_Source\PSoC4/CapSense_Structure.c **** *  CapSense_IsProximitySensorActive() function.
1212:Generated_Source\PSoC4/CapSense_Structure.c **** *
1213:Generated_Source\PSoC4/CapSense_Structure.c **** * \param widgetId
1214:Generated_Source\PSoC4/CapSense_Structure.c **** *  Specifies the ID number of the widget.
1215:Generated_Source\PSoC4/CapSense_Structure.c **** *  A macro for the widget ID can be found in the CapSense Configuration header
1216:Generated_Source\PSoC4/CapSense_Structure.c **** *  file defined as CapSense_<WidgetName>_WDGT_ID.
1217:Generated_Source\PSoC4/CapSense_Structure.c **** 
1218:Generated_Source\PSoC4/CapSense_Structure.c **** * \param sensorId
1219:Generated_Source\PSoC4/CapSense_Structure.c **** *  Specifies the ID number of the sensor within the widget to get its touch
1220:Generated_Source\PSoC4/CapSense_Structure.c **** *  detection status.
1221:Generated_Source\PSoC4/CapSense_Structure.c **** *  A macro for the sensor ID within the specified widget can be found in the
1222:Generated_Source\PSoC4/CapSense_Structure.c **** *  CapSense Configuration header file defined as
1223:Generated_Source\PSoC4/CapSense_Structure.c **** *  CapSense_<WidgetName>_SNS<SensorNumber>_ID.
1224:Generated_Source\PSoC4/CapSense_Structure.c **** *
1225:Generated_Source\PSoC4/CapSense_Structure.c **** * \return
1226:Generated_Source\PSoC4/CapSense_Structure.c **** *  Returns the touch detection status of the specified sensor / widget:
1227:Generated_Source\PSoC4/CapSense_Structure.c **** *    - Zero if no touch is detected in the specified sensor / widget or a wrong
1228:Generated_Source\PSoC4/CapSense_Structure.c **** *      widget ID / sensor ID is specified.
1229:Generated_Source\PSoC4/CapSense_Structure.c **** *    - Non-zero if the specified sensor is active i.e. touch is detected. If the
1230:Generated_Source\PSoC4/CapSense_Structure.c **** *      specific sensor belongs to a proximity widget, the proximity detection
1231:Generated_Source\PSoC4/CapSense_Structure.c **** *      status is returned.
1232:Generated_Source\PSoC4/CapSense_Structure.c **** *
1233:Generated_Source\PSoC4/CapSense_Structure.c **** *******************************************************************************/
1234:Generated_Source\PSoC4/CapSense_Structure.c **** uint32 CapSense_IsSensorActive(uint32 widgetId, uint32 sensorId)
1235:Generated_Source\PSoC4/CapSense_Structure.c **** {
 591              		.loc 1 1235 0
 592              		.cfi_startproc
 593              		@ args = 0, pretend = 0, frame = 0
 594              		@ frame_needed = 0, uses_anonymous_args = 0
 595              		@ link register save eliminated.
 596              	.LVL60:
1236:Generated_Source\PSoC4/CapSense_Structure.c ****     uint32 result = 0Lu;
1237:Generated_Source\PSoC4/CapSense_Structure.c **** 
1238:Generated_Source\PSoC4/CapSense_Structure.c ****     if ((widgetId < CapSense_TOTAL_WIDGETS) &&
 597              		.loc 1 1238 0
 598 0000 0028     		cmp	r0, #0
 599 0002 0FD1     		bne	.L55
1239:Generated_Source\PSoC4/CapSense_Structure.c ****         (sensorId < CapSense_GET_SENSOR_COUNT(widgetId)))
 600              		.loc 1 1239 0 discriminator 1
 601 0004 C200     		lsls	r2, r0, #3
 602 0006 121A     		subs	r2, r2, r0
 603 0008 D300     		lsls	r3, r2, #3
 604 000a 084A     		ldr	r2, .L57
 605 000c D318     		adds	r3, r2, r3
 606 000e 4C33     		adds	r3, r3, #76
 607 0010 1B88     		ldrh	r3, [r3]
ARM GAS  C:\Users\inspiron\AppData\Local\Temp\cc3AwUZg.s 			page 34


1238:Generated_Source\PSoC4/CapSense_Structure.c ****         (sensorId < CapSense_GET_SENSOR_COUNT(widgetId)))
 608              		.loc 1 1238 0 discriminator 1
 609 0012 8B42     		cmp	r3, r1
 610 0014 08D9     		bls	.L56
1240:Generated_Source\PSoC4/CapSense_Structure.c ****     {
1241:Generated_Source\PSoC4/CapSense_Structure.c ****         #if (CapSense_ENABLE == CapSense_PROXIMITY_WIDGET_EN)
1242:Generated_Source\PSoC4/CapSense_Structure.c ****             if (CapSense_WD_PROXIMITY_E ==
1243:Generated_Source\PSoC4/CapSense_Structure.c ****                 (CapSense_WD_TYPE_ENUM)CapSense_dsFlash.wdgtArray[widgetId].wdgtType)
1244:Generated_Source\PSoC4/CapSense_Structure.c ****             {
1245:Generated_Source\PSoC4/CapSense_Structure.c ****                 sensorId = CapSense_PROX_STS_OFFSET(sensorId);
1246:Generated_Source\PSoC4/CapSense_Structure.c ****             }
1247:Generated_Source\PSoC4/CapSense_Structure.c ****         #endif /* (CapSense_ENABLE != CapSense_PROXIMITY_WIDGET_EN) */
1248:Generated_Source\PSoC4/CapSense_Structure.c ****         result = CapSense_dsRam.snsStatus[widgetId] & (1Lu << sensorId);
 611              		.loc 1 1248 0
 612 0016 064B     		ldr	r3, .L57+4
 613 0018 1818     		adds	r0, r3, r0
 614              	.LVL61:
 615 001a 037E     		ldrb	r3, [r0, #24]
 616 001c 0120     		movs	r0, #1
 617 001e 8840     		lsls	r0, r0, r1
 618 0020 1840     		ands	r0, r3
 619              	.LVL62:
 620 0022 02E0     		b	.L54
 621              	.LVL63:
 622              	.L55:
1236:Generated_Source\PSoC4/CapSense_Structure.c **** 
 623              		.loc 1 1236 0
 624 0024 0020     		movs	r0, #0
 625              	.LVL64:
 626 0026 00E0     		b	.L54
 627              	.LVL65:
 628              	.L56:
 629 0028 0020     		movs	r0, #0
 630              	.LVL66:
 631              	.L54:
1249:Generated_Source\PSoC4/CapSense_Structure.c ****     }
1250:Generated_Source\PSoC4/CapSense_Structure.c **** 
1251:Generated_Source\PSoC4/CapSense_Structure.c ****     return result;
1252:Generated_Source\PSoC4/CapSense_Structure.c **** }
 632              		.loc 1 1252 0
 633              		@ sp needed
 634 002a 7047     		bx	lr
 635              	.L58:
 636              		.align	2
 637              	.L57:
 638 002c 00000000 		.word	.LANCHOR0
 639 0030 00000000 		.word	CapSense_dsRam
 640              		.cfi_endproc
 641              	.LFE7:
 642              		.size	CapSense_IsSensorActive, .-CapSense_IsSensorActive
 643              		.section	.text.CapSense_GetXYCoordinates,"ax",%progbits
 644              		.align	2
 645              		.global	CapSense_GetXYCoordinates
 646              		.code	16
 647              		.thumb_func
 648              		.type	CapSense_GetXYCoordinates, %function
 649              	CapSense_GetXYCoordinates:
ARM GAS  C:\Users\inspiron\AppData\Local\Temp\cc3AwUZg.s 			page 35


 650              	.LFB8:
1253:Generated_Source\PSoC4/CapSense_Structure.c **** 
1254:Generated_Source\PSoC4/CapSense_Structure.c **** #if (0u != CapSense_MATRIX_WIDGET_EN)
1255:Generated_Source\PSoC4/CapSense_Structure.c **** /*******************************************************************************
1256:Generated_Source\PSoC4/CapSense_Structure.c **** * Function Name: CapSense_IsMatrixButtonsActive
1257:Generated_Source\PSoC4/CapSense_Structure.c **** ****************************************************************************//**
1258:Generated_Source\PSoC4/CapSense_Structure.c **** *
1259:Generated_Source\PSoC4/CapSense_Structure.c **** * \brief
1260:Generated_Source\PSoC4/CapSense_Structure.c **** *  Reports the status of the specified matrix button widget.
1261:Generated_Source\PSoC4/CapSense_Structure.c **** *
1262:Generated_Source\PSoC4/CapSense_Structure.c **** * \details
1263:Generated_Source\PSoC4/CapSense_Structure.c **** *  This function reports if the specified matrix widget has detected a touch or
1264:Generated_Source\PSoC4/CapSense_Structure.c **** *  not by extracting information from the wdgtStatus registers
1265:Generated_Source\PSoC4/CapSense_Structure.c **** *  (CapSense_WDGT_STATUS<X>_VALUE for the CSD widgets and
1266:Generated_Source\PSoC4/CapSense_Structure.c **** *  CapSense_SNS_STATUS<WidgetId>_VALUE for CSX widget). In addition, the
1267:Generated_Source\PSoC4/CapSense_Structure.c **** *  function provides details of the active sensor including active rows/columns
1268:Generated_Source\PSoC4/CapSense_Structure.c **** *  for the CSD widgets. This function is used only with the matrix button
1269:Generated_Source\PSoC4/CapSense_Structure.c **** *  widgets. This function does not process the widget but extracts
1270:Generated_Source\PSoC4/CapSense_Structure.c **** *  processed results from the \ref group_structures.
1271:Generated_Source\PSoC4/CapSense_Structure.c **** *
1272:Generated_Source\PSoC4/CapSense_Structure.c **** * \param widgetId
1273:Generated_Source\PSoC4/CapSense_Structure.c **** *  Specifies the ID number of the matrix button widget to check the status of its
1274:Generated_Source\PSoC4/CapSense_Structure.c **** *  sensors.
1275:Generated_Source\PSoC4/CapSense_Structure.c **** *  A macro for the widget ID can be found in the CapSense Configuration header file
1276:Generated_Source\PSoC4/CapSense_Structure.c **** *  defined as CapSense_<WidgetName>_WDGT_ID
1277:Generated_Source\PSoC4/CapSense_Structure.c **** *
1278:Generated_Source\PSoC4/CapSense_Structure.c **** * \return
1279:Generated_Source\PSoC4/CapSense_Structure.c **** *  Returns the touch detection status of the sensors in the specified matrix
1280:Generated_Source\PSoC4/CapSense_Structure.c **** *  buttons widget. Zero indicates that no touch is detected in the specified
1281:Generated_Source\PSoC4/CapSense_Structure.c **** *  widget or a wrong widgetId is specified.
1282:Generated_Source\PSoC4/CapSense_Structure.c **** *    1. For the matrix buttons widgets with the CSD sensing mode:
1283:Generated_Source\PSoC4/CapSense_Structure.c **** *      - Bit [31] if set, indicates that one or more sensors in the widget
1284:Generated_Source\PSoC4/CapSense_Structure.c **** *        detected a touch.
1285:Generated_Source\PSoC4/CapSense_Structure.c **** *      - Bits [30..24] are reserved
1286:Generated_Source\PSoC4/CapSense_Structure.c **** *      - Bits [23..16] indicate the logical sensor number of the sensor that
1287:Generated_Source\PSoC4/CapSense_Structure.c **** *        detected a touch. If more than one sensor detected a touch for the CSD
1288:Generated_Source\PSoC4/CapSense_Structure.c **** *        widget, no status is reported because more than one touch is invalid for the
1289:Generated_Source\PSoC4/CapSense_Structure.c **** *        CSD matrix buttons widgets.
1290:Generated_Source\PSoC4/CapSense_Structure.c **** *      - Bits [15..8] indicate the active row number.
1291:Generated_Source\PSoC4/CapSense_Structure.c **** *      - Bits [7..0] indicate the active column number.
1292:Generated_Source\PSoC4/CapSense_Structure.c **** *    2. For the matrix buttons widgets with the CSX widgets, each bit (31..0)
1293:Generated_Source\PSoC4/CapSense_Structure.c **** *      corresponds to the TX/RX intersection.
1294:Generated_Source\PSoC4/CapSense_Structure.c **** *
1295:Generated_Source\PSoC4/CapSense_Structure.c **** *******************************************************************************/
1296:Generated_Source\PSoC4/CapSense_Structure.c **** uint32 CapSense_IsMatrixButtonsActive(uint32 widgetId)
1297:Generated_Source\PSoC4/CapSense_Structure.c **** {
1298:Generated_Source\PSoC4/CapSense_Structure.c ****     uint32 result = 0Lu;
1299:Generated_Source\PSoC4/CapSense_Structure.c ****     cystatus state = CYRET_SUCCESS;
1300:Generated_Source\PSoC4/CapSense_Structure.c ****     CapSense_FLASH_WD_STRUCT const *ptrFlashWdgt = 0u;
1301:Generated_Source\PSoC4/CapSense_Structure.c **** 
1302:Generated_Source\PSoC4/CapSense_Structure.c ****     #if (0u != CapSense_CSD_MATRIX_WIDGET_EN)
1303:Generated_Source\PSoC4/CapSense_Structure.c ****         CapSense_RAM_WD_CSD_MATRIX_STRUCT *wdCsdMatrix;
1304:Generated_Source\PSoC4/CapSense_Structure.c ****     #endif
1305:Generated_Source\PSoC4/CapSense_Structure.c **** 
1306:Generated_Source\PSoC4/CapSense_Structure.c ****     if (widgetId >= CapSense_TOTAL_WIDGETS)
1307:Generated_Source\PSoC4/CapSense_Structure.c ****     {
1308:Generated_Source\PSoC4/CapSense_Structure.c ****         state = CYRET_BAD_PARAM;
ARM GAS  C:\Users\inspiron\AppData\Local\Temp\cc3AwUZg.s 			page 36


1309:Generated_Source\PSoC4/CapSense_Structure.c ****     }
1310:Generated_Source\PSoC4/CapSense_Structure.c ****     else
1311:Generated_Source\PSoC4/CapSense_Structure.c ****     {
1312:Generated_Source\PSoC4/CapSense_Structure.c ****         ptrFlashWdgt = &CapSense_dsFlash.wdgtArray[widgetId];
1313:Generated_Source\PSoC4/CapSense_Structure.c **** 
1314:Generated_Source\PSoC4/CapSense_Structure.c ****         if ((CapSense_WD_TYPE_ENUM)ptrFlashWdgt->wdgtType != CapSense_WD_MATRIX_BUTTON_E)
1315:Generated_Source\PSoC4/CapSense_Structure.c ****         {
1316:Generated_Source\PSoC4/CapSense_Structure.c ****             state = CYRET_BAD_PARAM;
1317:Generated_Source\PSoC4/CapSense_Structure.c ****         }
1318:Generated_Source\PSoC4/CapSense_Structure.c ****         else if (0u == CapSense_GET_WIDGET_ACTIVE_STATUS(widgetId))
1319:Generated_Source\PSoC4/CapSense_Structure.c ****         {
1320:Generated_Source\PSoC4/CapSense_Structure.c ****             state = CYRET_BAD_PARAM;
1321:Generated_Source\PSoC4/CapSense_Structure.c ****         }
1322:Generated_Source\PSoC4/CapSense_Structure.c ****         else
1323:Generated_Source\PSoC4/CapSense_Structure.c ****         {
1324:Generated_Source\PSoC4/CapSense_Structure.c ****             /* input parameters are OK */
1325:Generated_Source\PSoC4/CapSense_Structure.c ****         }
1326:Generated_Source\PSoC4/CapSense_Structure.c ****     }
1327:Generated_Source\PSoC4/CapSense_Structure.c **** 
1328:Generated_Source\PSoC4/CapSense_Structure.c ****     if (CYRET_SUCCESS == state)
1329:Generated_Source\PSoC4/CapSense_Structure.c ****     {
1330:Generated_Source\PSoC4/CapSense_Structure.c ****         switch(CapSense_GET_SENSE_METHOD(ptrFlashWdgt))
1331:Generated_Source\PSoC4/CapSense_Structure.c ****         {
1332:Generated_Source\PSoC4/CapSense_Structure.c ****         #if (0u != CapSense_CSD_MATRIX_WIDGET_EN)
1333:Generated_Source\PSoC4/CapSense_Structure.c ****             case CapSense_SENSE_METHOD_CSD_E:
1334:Generated_Source\PSoC4/CapSense_Structure.c ****                 wdCsdMatrix = ptrFlashWdgt->ptr2WdgtRam;
1335:Generated_Source\PSoC4/CapSense_Structure.c **** 
1336:Generated_Source\PSoC4/CapSense_Structure.c ****                 result = CapSense_MATRIX_BUTTONS_TOUCHED |
1337:Generated_Source\PSoC4/CapSense_Structure.c ****                          ((uint32)wdCsdMatrix->posSnsId << 16u)  |
1338:Generated_Source\PSoC4/CapSense_Structure.c ****                          ((uint32)wdCsdMatrix->posRow   << 8u)   |
1339:Generated_Source\PSoC4/CapSense_Structure.c ****                          (uint32)wdCsdMatrix->posCol;
1340:Generated_Source\PSoC4/CapSense_Structure.c ****                 break;
1341:Generated_Source\PSoC4/CapSense_Structure.c ****         #endif /* #if (0u != CapSense_CSD_MATRIX_WIDGET_EN) */
1342:Generated_Source\PSoC4/CapSense_Structure.c **** 
1343:Generated_Source\PSoC4/CapSense_Structure.c ****         #if (0u != CapSense_CSX_MATRIX_WIDGET_EN)
1344:Generated_Source\PSoC4/CapSense_Structure.c ****             case CapSense_SENSE_METHOD_CSX_E:
1345:Generated_Source\PSoC4/CapSense_Structure.c ****                 result = CapSense_dsRam.snsStatus[widgetId];
1346:Generated_Source\PSoC4/CapSense_Structure.c ****                 break;
1347:Generated_Source\PSoC4/CapSense_Structure.c ****         #endif /* #if (0u != CapSense_CSX_MATRIX_WIDGET_EN) */
1348:Generated_Source\PSoC4/CapSense_Structure.c **** 
1349:Generated_Source\PSoC4/CapSense_Structure.c ****         default:
1350:Generated_Source\PSoC4/CapSense_Structure.c ****             CYASSERT(0u);
1351:Generated_Source\PSoC4/CapSense_Structure.c ****             break;
1352:Generated_Source\PSoC4/CapSense_Structure.c ****         }
1353:Generated_Source\PSoC4/CapSense_Structure.c ****     }
1354:Generated_Source\PSoC4/CapSense_Structure.c **** 
1355:Generated_Source\PSoC4/CapSense_Structure.c ****     return result;
1356:Generated_Source\PSoC4/CapSense_Structure.c **** }
1357:Generated_Source\PSoC4/CapSense_Structure.c **** #endif /* #if (0u != CapSense_MATRIX_WIDGET_EN) */
1358:Generated_Source\PSoC4/CapSense_Structure.c **** 
1359:Generated_Source\PSoC4/CapSense_Structure.c **** #if (0u != CapSense_PROXIMITY_WIDGET_EN)
1360:Generated_Source\PSoC4/CapSense_Structure.c **** /*******************************************************************************
1361:Generated_Source\PSoC4/CapSense_Structure.c **** * Function Name: CapSense_IsProximitySensorActive
1362:Generated_Source\PSoC4/CapSense_Structure.c **** ****************************************************************************//**
1363:Generated_Source\PSoC4/CapSense_Structure.c **** *
1364:Generated_Source\PSoC4/CapSense_Structure.c **** * \brief
1365:Generated_Source\PSoC4/CapSense_Structure.c **** *  Reports the finger detection status of the specified proximity widget/sensor.
ARM GAS  C:\Users\inspiron\AppData\Local\Temp\cc3AwUZg.s 			page 37


1366:Generated_Source\PSoC4/CapSense_Structure.c **** *
1367:Generated_Source\PSoC4/CapSense_Structure.c **** * \details
1368:Generated_Source\PSoC4/CapSense_Structure.c **** *  This function reports if the specified proximity sensor has detected a touch
1369:Generated_Source\PSoC4/CapSense_Structure.c **** *  or not by extracting information from the wdgtStatus registers
1370:Generated_Source\PSoC4/CapSense_Structure.c **** *  (CapSense_SNS_STATUS<WidgetId>_VALUE). This function is used
1371:Generated_Source\PSoC4/CapSense_Structure.c **** *  only with proximity sensor widgets. This function does not process the
1372:Generated_Source\PSoC4/CapSense_Structure.c **** *  widget but extracts processed results from the \ref group_structures.
1373:Generated_Source\PSoC4/CapSense_Structure.c **** *
1374:Generated_Source\PSoC4/CapSense_Structure.c **** * \param widgetId
1375:Generated_Source\PSoC4/CapSense_Structure.c **** *  Specifies the ID number of the proximity widget.
1376:Generated_Source\PSoC4/CapSense_Structure.c **** *  A macro for the widget ID can be found in the CapSense Configuration header
1377:Generated_Source\PSoC4/CapSense_Structure.c **** *  file defined as CapSense_<WidgetName>_WDGT_ID
1378:Generated_Source\PSoC4/CapSense_Structure.c **** *
1379:Generated_Source\PSoC4/CapSense_Structure.c **** * \param proxId
1380:Generated_Source\PSoC4/CapSense_Structure.c **** *  Specifies the ID number of the proximity sensor within the proximity widget to
1381:Generated_Source\PSoC4/CapSense_Structure.c **** *  get its touch detection status.
1382:Generated_Source\PSoC4/CapSense_Structure.c **** *  A macro for the proximity ID within a specified widget can be found in the
1383:Generated_Source\PSoC4/CapSense_Structure.c **** *  CapSense Configuration header file defined as
1384:Generated_Source\PSoC4/CapSense_Structure.c **** *  CapSense_<WidgetName>_SNS<SensorNumber>_ID
1385:Generated_Source\PSoC4/CapSense_Structure.c **** *
1386:Generated_Source\PSoC4/CapSense_Structure.c **** * \return
1387:Generated_Source\PSoC4/CapSense_Structure.c **** *  Returns the status of the specified sensor of the proximity widget. Zero
1388:Generated_Source\PSoC4/CapSense_Structure.c **** *  indicates that no touch is detected in the specified sensor / widget or a
1389:Generated_Source\PSoC4/CapSense_Structure.c **** *  wrong widgetId / proxId is specified.
1390:Generated_Source\PSoC4/CapSense_Structure.c **** *    - Bits [31..2] are reserved.
1391:Generated_Source\PSoC4/CapSense_Structure.c **** *    - Bit [1] indicates that a touch is detected.
1392:Generated_Source\PSoC4/CapSense_Structure.c **** *    - Bit [0] indicates that a proximity is detected.
1393:Generated_Source\PSoC4/CapSense_Structure.c **** *
1394:Generated_Source\PSoC4/CapSense_Structure.c **** *******************************************************************************/
1395:Generated_Source\PSoC4/CapSense_Structure.c **** uint32 CapSense_IsProximitySensorActive(uint32 widgetId, uint32 proxId)
1396:Generated_Source\PSoC4/CapSense_Structure.c **** {
1397:Generated_Source\PSoC4/CapSense_Structure.c ****     uint32 result = 0Lu;
1398:Generated_Source\PSoC4/CapSense_Structure.c **** 
1399:Generated_Source\PSoC4/CapSense_Structure.c ****     if ((widgetId < CapSense_TOTAL_WIDGETS) && (proxId < CapSense_GET_SENSOR_COUNT(widgetId)) &&
1400:Generated_Source\PSoC4/CapSense_Structure.c ****         (CapSense_WD_PROXIMITY_E ==
1401:Generated_Source\PSoC4/CapSense_Structure.c ****             (CapSense_WD_TYPE_ENUM)CapSense_dsFlash.wdgtArray[widgetId].wdgtType))
1402:Generated_Source\PSoC4/CapSense_Structure.c ****     {
1403:Generated_Source\PSoC4/CapSense_Structure.c ****         result = CapSense_dsRam.snsStatus[widgetId];
1404:Generated_Source\PSoC4/CapSense_Structure.c ****         result >>= CapSense_PROX_STS_OFFSET(proxId);
1405:Generated_Source\PSoC4/CapSense_Structure.c ****         result &=  CapSense_PROX_STS_MASK;
1406:Generated_Source\PSoC4/CapSense_Structure.c ****     }
1407:Generated_Source\PSoC4/CapSense_Structure.c **** 
1408:Generated_Source\PSoC4/CapSense_Structure.c ****     return result;
1409:Generated_Source\PSoC4/CapSense_Structure.c **** }
1410:Generated_Source\PSoC4/CapSense_Structure.c **** #endif /* #if (0u != CapSense_PROXIMITY_WIDGET_EN) */
1411:Generated_Source\PSoC4/CapSense_Structure.c **** 
1412:Generated_Source\PSoC4/CapSense_Structure.c **** 
1413:Generated_Source\PSoC4/CapSense_Structure.c **** #if (0u != CapSense_SLIDER_WIDGET_EN)
1414:Generated_Source\PSoC4/CapSense_Structure.c **** /*******************************************************************************
1415:Generated_Source\PSoC4/CapSense_Structure.c **** * Function Name: CapSense_GetCentroidPos
1416:Generated_Source\PSoC4/CapSense_Structure.c **** ****************************************************************************//**
1417:Generated_Source\PSoC4/CapSense_Structure.c **** *
1418:Generated_Source\PSoC4/CapSense_Structure.c **** * \brief
1419:Generated_Source\PSoC4/CapSense_Structure.c **** *  Reports the centroid position for the specified slider widget.
1420:Generated_Source\PSoC4/CapSense_Structure.c **** *
1421:Generated_Source\PSoC4/CapSense_Structure.c **** * \details
1422:Generated_Source\PSoC4/CapSense_Structure.c **** *  This function reports the centroid value of a specified radial or linear
ARM GAS  C:\Users\inspiron\AppData\Local\Temp\cc3AwUZg.s 			page 38


1423:Generated_Source\PSoC4/CapSense_Structure.c **** *  slider widget by extracting information from the wdgtStatus registers
1424:Generated_Source\PSoC4/CapSense_Structure.c **** *  (CapSense_<WidgetName>_POSITION<X>_VALUE). This function is
1425:Generated_Source\PSoC4/CapSense_Structure.c **** *  used only with radial or linear slider widgets. This function does not
1426:Generated_Source\PSoC4/CapSense_Structure.c **** *  process the widget but extracts processed results from the \ref group_structures.
1427:Generated_Source\PSoC4/CapSense_Structure.c **** *
1428:Generated_Source\PSoC4/CapSense_Structure.c **** * \param widgetId
1429:Generated_Source\PSoC4/CapSense_Structure.c **** *  Specifies the ID number of a slider widget to get the centroid of the
1430:Generated_Source\PSoC4/CapSense_Structure.c **** *  detected touch.
1431:Generated_Source\PSoC4/CapSense_Structure.c **** *  A macro for the widget ID can be found in the
1432:Generated_Source\PSoC4/CapSense_Structure.c **** *  CapSense Configuration header file defined as
1433:Generated_Source\PSoC4/CapSense_Structure.c **** *  CapSense_<WidgetName>_WDGT_ID
1434:Generated_Source\PSoC4/CapSense_Structure.c **** *
1435:Generated_Source\PSoC4/CapSense_Structure.c **** * \return
1436:Generated_Source\PSoC4/CapSense_Structure.c **** *  Returns the centroid position of a specified slider widget:
1437:Generated_Source\PSoC4/CapSense_Structure.c **** *    - The centroid position if a touch is detected.
1438:Generated_Source\PSoC4/CapSense_Structure.c **** *    - CapSense_SLIDER_NO_TOUCH - No touch is detected or a wrong
1439:Generated_Source\PSoC4/CapSense_Structure.c **** *      widgetId is specified.
1440:Generated_Source\PSoC4/CapSense_Structure.c **** *
1441:Generated_Source\PSoC4/CapSense_Structure.c **** *******************************************************************************/
1442:Generated_Source\PSoC4/CapSense_Structure.c **** uint32 CapSense_GetCentroidPos(uint32 widgetId)
1443:Generated_Source\PSoC4/CapSense_Structure.c **** {
1444:Generated_Source\PSoC4/CapSense_Structure.c ****     uint32 result = CapSense_SLIDER_NO_TOUCH;
1445:Generated_Source\PSoC4/CapSense_Structure.c ****     CapSense_RAM_WD_SLIDER_STRUCT *wdSlider;
1446:Generated_Source\PSoC4/CapSense_Structure.c **** 
1447:Generated_Source\PSoC4/CapSense_Structure.c ****     if ((widgetId < CapSense_TOTAL_WIDGETS) &&
1448:Generated_Source\PSoC4/CapSense_Structure.c ****         ((CapSense_WD_LINEAR_SLIDER_E ==
1449:Generated_Source\PSoC4/CapSense_Structure.c ****             (CapSense_WD_TYPE_ENUM)CapSense_dsFlash.wdgtArray[widgetId].wdgtType) ||
1450:Generated_Source\PSoC4/CapSense_Structure.c ****          (CapSense_WD_RADIAL_SLIDER_E ==
1451:Generated_Source\PSoC4/CapSense_Structure.c ****             (CapSense_WD_TYPE_ENUM)CapSense_dsFlash.wdgtArray[widgetId].wdgtType)))
1452:Generated_Source\PSoC4/CapSense_Structure.c ****     {
1453:Generated_Source\PSoC4/CapSense_Structure.c ****         wdSlider = CapSense_dsFlash.wdgtArray[widgetId].ptr2WdgtRam;
1454:Generated_Source\PSoC4/CapSense_Structure.c ****         result = (uint32)wdSlider->position[0u];
1455:Generated_Source\PSoC4/CapSense_Structure.c ****     }
1456:Generated_Source\PSoC4/CapSense_Structure.c **** 
1457:Generated_Source\PSoC4/CapSense_Structure.c ****     return result;
1458:Generated_Source\PSoC4/CapSense_Structure.c **** }
1459:Generated_Source\PSoC4/CapSense_Structure.c **** #endif /* #if (0u != CapSense_SLIDER_WIDGET_EN) */
1460:Generated_Source\PSoC4/CapSense_Structure.c **** 
1461:Generated_Source\PSoC4/CapSense_Structure.c **** 
1462:Generated_Source\PSoC4/CapSense_Structure.c **** #if (0u != CapSense_TOUCHPAD_WIDGET_EN)
1463:Generated_Source\PSoC4/CapSense_Structure.c **** /*******************************************************************************
1464:Generated_Source\PSoC4/CapSense_Structure.c **** * Function Name: CapSense_GetXYCoordinates
1465:Generated_Source\PSoC4/CapSense_Structure.c **** ****************************************************************************//**
1466:Generated_Source\PSoC4/CapSense_Structure.c **** *
1467:Generated_Source\PSoC4/CapSense_Structure.c **** * \brief
1468:Generated_Source\PSoC4/CapSense_Structure.c **** *  Reports the X/Y position detected for the specified touchpad widget.
1469:Generated_Source\PSoC4/CapSense_Structure.c **** *
1470:Generated_Source\PSoC4/CapSense_Structure.c **** * \details
1471:Generated_Source\PSoC4/CapSense_Structure.c **** *  This function reports a touch position (X and Y coordinates) value of a
1472:Generated_Source\PSoC4/CapSense_Structure.c **** *  specified touchpad widget by extracting information from the wdgtStatus
1473:Generated_Source\PSoC4/CapSense_Structure.c **** *  registers (CapSense_<WidgetName>_POS_Y_VALUE). This function should
1474:Generated_Source\PSoC4/CapSense_Structure.c **** *  be used only with the touchpad widgets. This function does not process the
1475:Generated_Source\PSoC4/CapSense_Structure.c **** *  widget but extracts processed results from the \ref group_structures.
1476:Generated_Source\PSoC4/CapSense_Structure.c **** *
1477:Generated_Source\PSoC4/CapSense_Structure.c **** * \param widgetId
1478:Generated_Source\PSoC4/CapSense_Structure.c **** *  Specifies the ID number of a touchpad widget to get the X/Y position of a
1479:Generated_Source\PSoC4/CapSense_Structure.c **** *  detected touch.
ARM GAS  C:\Users\inspiron\AppData\Local\Temp\cc3AwUZg.s 			page 39


1480:Generated_Source\PSoC4/CapSense_Structure.c **** *  A macro for the widget ID can be found in the
1481:Generated_Source\PSoC4/CapSense_Structure.c **** *  CapSense Configuration header file defined as
1482:Generated_Source\PSoC4/CapSense_Structure.c **** *  CapSense_<WidgetName>_WDGT_ID.
1483:Generated_Source\PSoC4/CapSense_Structure.c **** *
1484:Generated_Source\PSoC4/CapSense_Structure.c **** * \return
1485:Generated_Source\PSoC4/CapSense_Structure.c **** *  Returns the touch position of a specified touchpad widget:
1486:Generated_Source\PSoC4/CapSense_Structure.c **** *    1. If a touch is detected:
1487:Generated_Source\PSoC4/CapSense_Structure.c **** *      - Bits [31..16] indicate the Y coordinate.
1488:Generated_Source\PSoC4/CapSense_Structure.c **** *      - Bits [15..0] indicate the X coordinate.
1489:Generated_Source\PSoC4/CapSense_Structure.c **** *    2. If no touch is detected or a wrong widgetId is specified:
1490:Generated_Source\PSoC4/CapSense_Structure.c **** *      - CapSense_TOUCHPAD_NO_TOUCH.
1491:Generated_Source\PSoC4/CapSense_Structure.c **** *
1492:Generated_Source\PSoC4/CapSense_Structure.c **** *******************************************************************************/
1493:Generated_Source\PSoC4/CapSense_Structure.c **** uint32 CapSense_GetXYCoordinates(uint32 widgetId)
1494:Generated_Source\PSoC4/CapSense_Structure.c **** {
 651              		.loc 1 1494 0
 652              		.cfi_startproc
 653              		@ args = 0, pretend = 0, frame = 0
 654              		@ frame_needed = 0, uses_anonymous_args = 0
 655              	.LVL67:
 656 0000 10B5     		push	{r4, lr}
 657              		.cfi_def_cfa_offset 8
 658              		.cfi_offset 4, -8
 659              		.cfi_offset 14, -4
 660              	.LVL68:
1495:Generated_Source\PSoC4/CapSense_Structure.c ****     CapSense_FLASH_WD_STRUCT const *ptrFlashWdgt = NULL;
1496:Generated_Source\PSoC4/CapSense_Structure.c **** 
1497:Generated_Source\PSoC4/CapSense_Structure.c ****     #if (0u != CapSense_CSD_TOUCHPAD_WIDGET_EN)
1498:Generated_Source\PSoC4/CapSense_Structure.c ****         CapSense_RAM_WD_CSD_TOUCHPAD_STRUCT *wdCsdTouchpad;
1499:Generated_Source\PSoC4/CapSense_Structure.c ****     #endif /* #if (0u != CapSense_CSD_TOUCHPAD_WIDGET_EN) */
1500:Generated_Source\PSoC4/CapSense_Structure.c **** 
1501:Generated_Source\PSoC4/CapSense_Structure.c ****     #if (0u != CapSense_CSX_TOUCHPAD_WIDGET_EN)
1502:Generated_Source\PSoC4/CapSense_Structure.c ****         CapSense_RAM_WD_CSX_TOUCHPAD_STRUCT *wdCsxTouchpad;
1503:Generated_Source\PSoC4/CapSense_Structure.c ****     #endif /* #if (0u != CapSense_CSX_TOUCHPAD_WIDGET_EN) */
1504:Generated_Source\PSoC4/CapSense_Structure.c **** 
1505:Generated_Source\PSoC4/CapSense_Structure.c ****     cystatus state = CYRET_SUCCESS;
1506:Generated_Source\PSoC4/CapSense_Structure.c ****     uint32 result = CapSense_TOUCHPAD_NO_TOUCH;
1507:Generated_Source\PSoC4/CapSense_Structure.c **** 
1508:Generated_Source\PSoC4/CapSense_Structure.c ****     if (widgetId >= CapSense_TOTAL_WIDGETS)
 661              		.loc 1 1508 0
 662 0002 0028     		cmp	r0, #0
 663 0004 0BD1     		bne	.L62
1509:Generated_Source\PSoC4/CapSense_Structure.c ****     {
1510:Generated_Source\PSoC4/CapSense_Structure.c ****         state = CYRET_BAD_PARAM;
1511:Generated_Source\PSoC4/CapSense_Structure.c ****     }
1512:Generated_Source\PSoC4/CapSense_Structure.c ****     else
1513:Generated_Source\PSoC4/CapSense_Structure.c ****     {
1514:Generated_Source\PSoC4/CapSense_Structure.c ****         ptrFlashWdgt = &CapSense_dsFlash.wdgtArray[widgetId];
 664              		.loc 1 1514 0
 665 0006 0D4B     		ldr	r3, .L65
 666 0008 3433     		adds	r3, r3, #52
 667 000a 1900     		movs	r1, r3
 668 000c C300     		lsls	r3, r0, #3
 669 000e 1C1A     		subs	r4, r3, r0
 670 0010 E200     		lsls	r2, r4, #3
 671 0012 8A18     		adds	r2, r1, r2
 672              	.LVL69:
ARM GAS  C:\Users\inspiron\AppData\Local\Temp\cc3AwUZg.s 			page 40


1515:Generated_Source\PSoC4/CapSense_Structure.c **** 
1516:Generated_Source\PSoC4/CapSense_Structure.c ****         if ((CapSense_WD_TYPE_ENUM)ptrFlashWdgt->wdgtType != CapSense_WD_TOUCHPAD_E)
 673              		.loc 1 1516 0
 674 0014 937E     		ldrb	r3, [r2, #26]
 675 0016 052B     		cmp	r3, #5
 676 0018 04D1     		bne	.L63
1505:Generated_Source\PSoC4/CapSense_Structure.c ****     uint32 result = CapSense_TOUCHPAD_NO_TOUCH;
 677              		.loc 1 1505 0
 678 001a 0023     		movs	r3, #0
 679 001c 03E0     		b	.L60
 680              	.LVL70:
 681              	.L62:
1510:Generated_Source\PSoC4/CapSense_Structure.c ****     }
 682              		.loc 1 1510 0
 683 001e 0123     		movs	r3, #1
1495:Generated_Source\PSoC4/CapSense_Structure.c **** 
 684              		.loc 1 1495 0
 685 0020 0022     		movs	r2, #0
 686 0022 00E0     		b	.L60
 687              	.LVL71:
 688              	.L63:
1517:Generated_Source\PSoC4/CapSense_Structure.c ****         {
1518:Generated_Source\PSoC4/CapSense_Structure.c ****             state = CYRET_BAD_PARAM;
 689              		.loc 1 1518 0
 690 0024 0123     		movs	r3, #1
 691              	.LVL72:
 692              	.L60:
1519:Generated_Source\PSoC4/CapSense_Structure.c ****         }
1520:Generated_Source\PSoC4/CapSense_Structure.c ****     }
1521:Generated_Source\PSoC4/CapSense_Structure.c **** 
1522:Generated_Source\PSoC4/CapSense_Structure.c ****     if (CYRET_SUCCESS == state)
 693              		.loc 1 1522 0
 694 0026 002B     		cmp	r3, #0
 695 0028 05D1     		bne	.L64
1523:Generated_Source\PSoC4/CapSense_Structure.c ****     {
1524:Generated_Source\PSoC4/CapSense_Structure.c ****         switch(CapSense_GET_SENSE_METHOD(ptrFlashWdgt))
1525:Generated_Source\PSoC4/CapSense_Structure.c ****         {
1526:Generated_Source\PSoC4/CapSense_Structure.c ****         #if (0u != CapSense_CSD_TOUCHPAD_WIDGET_EN)
1527:Generated_Source\PSoC4/CapSense_Structure.c ****             case CapSense_SENSE_METHOD_CSD_E:
1528:Generated_Source\PSoC4/CapSense_Structure.c ****                 wdCsdTouchpad = ptrFlashWdgt->ptr2WdgtRam;
1529:Generated_Source\PSoC4/CapSense_Structure.c ****                 #if (CapSense_ENABLE == CapSense_CENTROID_5X5_CSD_EN)
1530:Generated_Source\PSoC4/CapSense_Structure.c ****                     #if (CapSense_ENABLE == CapSense_CENTROID_3X3_CSD_EN)
1531:Generated_Source\PSoC4/CapSense_Structure.c ****                         if (0 != (ptrFlashWdgt->staticConfig & CapSense_CENTROID_5X5_MASK))
1532:Generated_Source\PSoC4/CapSense_Structure.c ****                         {
1533:Generated_Source\PSoC4/CapSense_Structure.c ****                     #endif
1534:Generated_Source\PSoC4/CapSense_Structure.c ****                         result = ((uint32)wdCsdTouchpad->position.pos[0u].x) |
1535:Generated_Source\PSoC4/CapSense_Structure.c ****                                  ((uint32)wdCsdTouchpad->position.pos[0u].y << 16u);
1536:Generated_Source\PSoC4/CapSense_Structure.c ****                     #if (CapSense_ENABLE == CapSense_CENTROID_3X3_CSD_EN)
1537:Generated_Source\PSoC4/CapSense_Structure.c ****                         }
1538:Generated_Source\PSoC4/CapSense_Structure.c ****                     #endif
1539:Generated_Source\PSoC4/CapSense_Structure.c ****                 #endif
1540:Generated_Source\PSoC4/CapSense_Structure.c **** 
1541:Generated_Source\PSoC4/CapSense_Structure.c ****                 #if (CapSense_ENABLE == CapSense_CENTROID_3X3_CSD_EN)
1542:Generated_Source\PSoC4/CapSense_Structure.c ****                     #if (CapSense_ENABLE == CapSense_CENTROID_5X5_CSD_EN)
1543:Generated_Source\PSoC4/CapSense_Structure.c ****                         if (0 != (ptrFlashWdgt->staticConfig & CapSense_CENTROID_3X3_MASK))
1544:Generated_Source\PSoC4/CapSense_Structure.c ****                         {
1545:Generated_Source\PSoC4/CapSense_Structure.c ****                     #endif
ARM GAS  C:\Users\inspiron\AppData\Local\Temp\cc3AwUZg.s 			page 41


1546:Generated_Source\PSoC4/CapSense_Structure.c ****                         result = ((uint32)wdCsdTouchpad->posX) |
1547:Generated_Source\PSoC4/CapSense_Structure.c ****                                  ((uint32)wdCsdTouchpad->posY << 16u);
1548:Generated_Source\PSoC4/CapSense_Structure.c ****                     #if (CapSense_ENABLE == CapSense_CENTROID_5X5_CSD_EN)
1549:Generated_Source\PSoC4/CapSense_Structure.c ****                         }
1550:Generated_Source\PSoC4/CapSense_Structure.c ****                     #endif
1551:Generated_Source\PSoC4/CapSense_Structure.c ****                 #endif
1552:Generated_Source\PSoC4/CapSense_Structure.c **** 
1553:Generated_Source\PSoC4/CapSense_Structure.c ****                 break;
1554:Generated_Source\PSoC4/CapSense_Structure.c ****         #endif /* #if (0u != CapSense_CSD_TOUCHPAD_WIDGET_EN) */
1555:Generated_Source\PSoC4/CapSense_Structure.c **** 
1556:Generated_Source\PSoC4/CapSense_Structure.c ****         #if (0u != CapSense_CSX_TOUCHPAD_WIDGET_EN)
1557:Generated_Source\PSoC4/CapSense_Structure.c ****             case CapSense_SENSE_METHOD_CSX_E:
1558:Generated_Source\PSoC4/CapSense_Structure.c ****                 wdCsxTouchpad = ptrFlashWdgt->ptr2WdgtRam;
 696              		.loc 1 1558 0
 697 002a 5368     		ldr	r3, [r2, #4]
 698              	.LVL73:
1559:Generated_Source\PSoC4/CapSense_Structure.c **** 
1560:Generated_Source\PSoC4/CapSense_Structure.c ****                 result = ((uint32)wdCsxTouchpad->touch[0u].x) |
 699              		.loc 1 1560 0
 700 002c 1A8A     		ldrh	r2, [r3, #16]
 701              	.LVL74:
1561:Generated_Source\PSoC4/CapSense_Structure.c ****                          ((uint32)wdCsxTouchpad->touch[0u].y << 16u);
 702              		.loc 1 1561 0
 703 002e 588A     		ldrh	r0, [r3, #18]
 704              	.LVL75:
 705 0030 0004     		lsls	r0, r0, #16
1560:Generated_Source\PSoC4/CapSense_Structure.c ****                          ((uint32)wdCsxTouchpad->touch[0u].y << 16u);
 706              		.loc 1 1560 0
 707 0032 1043     		orrs	r0, r2
 708              	.LVL76:
1562:Generated_Source\PSoC4/CapSense_Structure.c ****                 break;
 709              		.loc 1 1562 0
 710 0034 01E0     		b	.L61
 711              	.LVL77:
 712              	.L64:
1506:Generated_Source\PSoC4/CapSense_Structure.c **** 
 713              		.loc 1 1506 0
 714 0036 0120     		movs	r0, #1
 715              	.LVL78:
 716 0038 4042     		rsbs	r0, r0, #0
 717              	.LVL79:
 718              	.L61:
1563:Generated_Source\PSoC4/CapSense_Structure.c ****         #endif /* #if (0u != CapSense_CSX_TOUCHPAD_WIDGET_EN) */
1564:Generated_Source\PSoC4/CapSense_Structure.c **** 
1565:Generated_Source\PSoC4/CapSense_Structure.c ****         default:
1566:Generated_Source\PSoC4/CapSense_Structure.c ****             CYASSERT(0u);
1567:Generated_Source\PSoC4/CapSense_Structure.c ****             break;
1568:Generated_Source\PSoC4/CapSense_Structure.c ****         }
1569:Generated_Source\PSoC4/CapSense_Structure.c ****     }
1570:Generated_Source\PSoC4/CapSense_Structure.c **** 
1571:Generated_Source\PSoC4/CapSense_Structure.c ****     return result;
1572:Generated_Source\PSoC4/CapSense_Structure.c **** }
 719              		.loc 1 1572 0
 720              		@ sp needed
 721 003a 10BD     		pop	{r4, pc}
 722              	.L66:
 723              		.align	2
ARM GAS  C:\Users\inspiron\AppData\Local\Temp\cc3AwUZg.s 			page 42


 724              	.L65:
 725 003c 00000000 		.word	.LANCHOR0
 726              		.cfi_endproc
 727              	.LFE8:
 728              		.size	CapSense_GetXYCoordinates, .-CapSense_GetXYCoordinates
 729              		.global	CapSense_ramGesturesInit
 730              		.global	CapSense_ramIdacInit
 731              		.global	CapSense_ramWidgetInit
 732              		.global	CapSense_ioList
 733              		.global	CapSense_dsFlash
 734              		.comm	CapSense_dsRam,648,4
 735              		.section	.rodata
 736              		.align	2
 737              		.set	.LANCHOR0,. + 0
 738              		.set	.LANCHOR1,. + 128
 739              		.type	CapSense_ramIdacInit, %object
 740              		.size	CapSense_ramIdacInit, 49
 741              	CapSense_ramIdacInit:
 742 0000 20       		.byte	32
 743 0001 20       		.byte	32
 744 0002 20       		.byte	32
 745 0003 20       		.byte	32
 746 0004 20       		.byte	32
 747 0005 20       		.byte	32
 748 0006 20       		.byte	32
 749 0007 20       		.byte	32
 750 0008 20       		.byte	32
 751 0009 20       		.byte	32
 752 000a 20       		.byte	32
 753 000b 20       		.byte	32
 754 000c 20       		.byte	32
 755 000d 20       		.byte	32
 756 000e 20       		.byte	32
 757 000f 20       		.byte	32
 758 0010 20       		.byte	32
 759 0011 20       		.byte	32
 760 0012 20       		.byte	32
 761 0013 20       		.byte	32
 762 0014 20       		.byte	32
 763 0015 20       		.byte	32
 764 0016 20       		.byte	32
 765 0017 20       		.byte	32
 766 0018 20       		.byte	32
 767 0019 20       		.byte	32
 768 001a 20       		.byte	32
 769 001b 20       		.byte	32
 770 001c 20       		.byte	32
 771 001d 20       		.byte	32
 772 001e 20       		.byte	32
 773 001f 20       		.byte	32
 774 0020 20       		.byte	32
 775 0021 20       		.byte	32
 776 0022 20       		.byte	32
 777 0023 20       		.byte	32
 778 0024 20       		.byte	32
 779 0025 20       		.byte	32
 780 0026 20       		.byte	32
ARM GAS  C:\Users\inspiron\AppData\Local\Temp\cc3AwUZg.s 			page 43


 781 0027 20       		.byte	32
 782 0028 20       		.byte	32
 783 0029 20       		.byte	32
 784 002a 20       		.byte	32
 785 002b 20       		.byte	32
 786 002c 20       		.byte	32
 787 002d 20       		.byte	32
 788 002e 20       		.byte	32
 789 002f 20       		.byte	32
 790 0030 20       		.byte	32
 791 0031 000000   		.space	3
 792              		.type	CapSense_dsFlash, %object
 793              		.size	CapSense_dsFlash, 56
 794              	CapSense_dsFlash:
 795 0034 00000000 		.word	CapSense_ioList
 796 0038 20000000 		.word	CapSense_dsRam+32
 797 003c 38000000 		.word	CapSense_dsRam+56
 798 0040 00000000 		.word	0
 799 0044 00000000 		.word	0
 800 0048 80280000 		.word	10368
 801 004c 3100     		.short	49
 802 004e 05       		.byte	5
 803 004f 07       		.byte	7
 804 0050 07       		.byte	7
 805 0051 00       		.space	1
 806 0052 6400     		.short	100
 807 0054 6400     		.short	100
 808 0056 0000     		.space	2
 809 0058 AA100000 		.word	4266
 810 005c AA100000 		.word	4266
 811 0060 04000000 		.word	CapSense_csxTouchpadData_Touchpad0
 812 0064 00000000 		.word	CapSense_posHistoryTouchpad0
 813 0068 80       		.byte	-128
 814 0069 000000   		.space	3
 815              		.type	CapSense_ramWidgetInit, %object
 816              		.size	CapSense_ramWidgetInit, 24
 817              	CapSense_ramWidgetInit:
 818 006c 3200     		.short	50
 819 006e 3C00     		.short	60
 820 0070 2D       		.byte	45
 821 0071 2D       		.byte	45
 822 0072 05       		.byte	5
 823 0073 01       		.byte	1
 824 0074 1E       		.byte	30
 825 0075 02       		.byte	2
 826 0076 00       		.byte	0
 827 0077 00       		.byte	0
 828 0078 C4090000 		.word	2500
 829 007c FFFF     		.short	-1
 830 007e FFFF     		.short	-1
 831 0080 FF       		.byte	-1
 832 0081 28       		.byte	40
 833 0082 0000     		.space	2
 834              		.type	CapSense_ramGesturesInit, %object
 835              		.size	CapSense_ramGesturesInit, 86
 836              	CapSense_ramGesturesInit:
 837 0084 56       		.byte	86
ARM GAS  C:\Users\inspiron\AppData\Local\Temp\cc3AwUZg.s 			page 44


 838 0085 08       		.byte	8
 839 0086 08       		.byte	8
 840 0087 08       		.byte	8
 841 0088 08       		.byte	8
 842 0089 14       		.byte	20
 843 008a 14       		.byte	20
 844 008b 14       		.byte	20
 845 008c 18       		.byte	24
 846 008d 1E       		.byte	30
 847 008e 28       		.byte	40
 848 008f 14       		.byte	20
 849 0090 18       		.byte	24
 850 0091 1E       		.byte	30
 851 0092 28       		.byte	40
 852 0093 03       		.byte	3
 853 0094 05       		.byte	5
 854 0095 07       		.byte	7
 855 0096 09       		.byte	9
 856 0097 03       		.byte	3
 857 0098 14       		.byte	20
 858 0099 18       		.byte	24
 859 009a 1E       		.byte	30
 860 009b 28       		.byte	40
 861 009c 14       		.byte	20
 862 009d 18       		.byte	24
 863 009e 1E       		.byte	30
 864 009f 28       		.byte	40
 865 00a0 03       		.byte	3
 866 00a1 05       		.byte	5
 867 00a2 07       		.byte	7
 868 00a3 09       		.byte	9
 869 00a4 03       		.byte	3
 870 00a5 05       		.byte	5
 871 00a6 32       		.byte	50
 872 00a7 32       		.byte	50
 873 00a8 00       		.byte	0
 874 00a9 32       		.byte	50
 875 00aa 32       		.byte	50
 876 00ab 00       		.byte	0
 877 00ac 0A       		.byte	10
 878 00ad 2D       		.byte	45
 879 00ae 2D       		.byte	45
 880 00af 0F       		.byte	15
 881 00b0 03       		.byte	3
 882 00b1 03       		.byte	3
 883 00b2 03       		.byte	3
 884 00b3 03       		.byte	3
 885 00b4 00       		.byte	0
 886 00b5 00       		.byte	0
 887 00b6 14       		.byte	20
 888 00b7 1E       		.byte	30
 889 00b8 1E       		.byte	30
 890 00b9 00       		.space	1
 891 00ba 0300     		.short	3
 892 00bc 6400     		.short	100
 893 00be 6400     		.short	100
 894 00c0 5000     		.short	80
ARM GAS  C:\Users\inspiron\AppData\Local\Temp\cc3AwUZg.s 			page 45


 895 00c2 D007     		.short	2000
 896 00c4 E803     		.short	1000
 897 00c6 6400     		.short	100
 898 00c8 FA00     		.short	250
 899 00ca 0500     		.short	5
 900 00cc 3200     		.short	50
 901 00ce 0A00     		.short	10
 902 00d0 F0       		.byte	-16
 903 00d1 28       		.byte	40
 904 00d2 29       		.byte	41
 905 00d3 30       		.byte	48
 906 00d4 3F       		.byte	63
 907 00d5 48       		.byte	72
 908 00d6 49       		.byte	73
 909 00d7 90       		.byte	-112
 910 00d8 9F       		.byte	-97
 911 00d9 00       		.space	1
 912 00da 0000     		.space	2
 913              		.type	CapSense_ioList, %object
 914              		.size	CapSense_ioList, 392
 915              	CapSense_ioList:
 916 00dc 00010240 		.word	1073873152
 917 00e0 08010440 		.word	1074004232
 918 00e4 00010440 		.word	1074004224
 919 00e8 04010440 		.word	1074004228
 920 00ec 00000F00 		.word	983040
 921 00f0 10000000 		.word	16
 922 00f4 10       		.byte	16
 923 00f5 04       		.byte	4
 924 00f6 0C       		.byte	12
 925 00f7 00       		.space	1
 926 00f8 00010240 		.word	1073873152
 927 00fc 08010440 		.word	1074004232
 928 0100 00010440 		.word	1074004224
 929 0104 04010440 		.word	1074004228
 930 0108 00F00000 		.word	61440
 931 010c 08000000 		.word	8
 932 0110 0C       		.byte	12
 933 0111 03       		.byte	3
 934 0112 09       		.byte	9
 935 0113 00       		.space	1
 936 0114 00010240 		.word	1073873152
 937 0118 08010440 		.word	1074004232
 938 011c 00010440 		.word	1074004224
 939 0120 04010440 		.word	1074004228
 940 0124 000F0000 		.word	3840
 941 0128 04000000 		.word	4
 942 012c 08       		.byte	8
 943 012d 02       		.byte	2
 944 012e 06       		.byte	6
 945 012f 00       		.space	1
 946 0130 00010240 		.word	1073873152
 947 0134 08010440 		.word	1074004232
 948 0138 00010440 		.word	1074004224
 949 013c 04010440 		.word	1074004228
 950 0140 F0000000 		.word	240
 951 0144 02000000 		.word	2
ARM GAS  C:\Users\inspiron\AppData\Local\Temp\cc3AwUZg.s 			page 46


 952 0148 04       		.byte	4
 953 0149 01       		.byte	1
 954 014a 03       		.byte	3
 955 014b 00       		.space	1
 956 014c 00010240 		.word	1073873152
 957 0150 08010440 		.word	1074004232
 958 0154 00010440 		.word	1074004224
 959 0158 04010440 		.word	1074004228
 960 015c 0F000000 		.word	15
 961 0160 01000000 		.word	1
 962 0164 00       		.byte	0
 963 0165 00       		.byte	0
 964 0166 00       		.byte	0
 965 0167 00       		.space	1
 966 0168 00010240 		.word	1073873152
 967 016c 08010440 		.word	1074004232
 968 0170 00010440 		.word	1074004224
 969 0174 04010440 		.word	1074004228
 970 0178 0000F000 		.word	15728640
 971 017c 20000000 		.word	32
 972 0180 14       		.byte	20
 973 0181 05       		.byte	5
 974 0182 0F       		.byte	15
 975 0183 00       		.space	1
 976 0184 00000240 		.word	1073872896
 977 0188 08000440 		.word	1074003976
 978 018c 00000440 		.word	1074003968
 979 0190 04000440 		.word	1074003972
 980 0194 0F000000 		.word	15
 981 0198 01000000 		.word	1
 982 019c 00       		.byte	0
 983 019d 00       		.byte	0
 984 019e 00       		.byte	0
 985 019f 00       		.space	1
 986 01a0 00000240 		.word	1073872896
 987 01a4 08000440 		.word	1074003976
 988 01a8 00000440 		.word	1074003968
 989 01ac 04000440 		.word	1074003972
 990 01b0 0000000F 		.word	251658240
 991 01b4 40000000 		.word	64
 992 01b8 18       		.byte	24
 993 01b9 06       		.byte	6
 994 01ba 12       		.byte	18
 995 01bb 00       		.space	1
 996 01bc 00000240 		.word	1073872896
 997 01c0 08000440 		.word	1074003976
 998 01c4 00000440 		.word	1074003968
 999 01c8 04000440 		.word	1074003972
 1000 01cc 00F00000 		.word	61440
 1001 01d0 08000000 		.word	8
 1002 01d4 0C       		.byte	12
 1003 01d5 03       		.byte	3
 1004 01d6 09       		.byte	9
 1005 01d7 00       		.space	1
 1006 01d8 00020240 		.word	1073873408
 1007 01dc 08020440 		.word	1074004488
 1008 01e0 00020440 		.word	1074004480
ARM GAS  C:\Users\inspiron\AppData\Local\Temp\cc3AwUZg.s 			page 47


 1009 01e4 04020440 		.word	1074004484
 1010 01e8 00F00000 		.word	61440
 1011 01ec 08000000 		.word	8
 1012 01f0 0C       		.byte	12
 1013 01f1 03       		.byte	3
 1014 01f2 09       		.byte	9
 1015 01f3 00       		.space	1
 1016 01f4 00020240 		.word	1073873408
 1017 01f8 08020440 		.word	1074004488
 1018 01fc 00020440 		.word	1074004480
 1019 0200 04020440 		.word	1074004484
 1020 0204 000F0000 		.word	3840
 1021 0208 04000000 		.word	4
 1022 020c 08       		.byte	8
 1023 020d 02       		.byte	2
 1024 020e 06       		.byte	6
 1025 020f 00       		.space	1
 1026 0210 00020240 		.word	1073873408
 1027 0214 08020440 		.word	1074004488
 1028 0218 00020440 		.word	1074004480
 1029 021c 04020440 		.word	1074004484
 1030 0220 F0000000 		.word	240
 1031 0224 02000000 		.word	2
 1032 0228 04       		.byte	4
 1033 0229 01       		.byte	1
 1034 022a 03       		.byte	3
 1035 022b 00       		.space	1
 1036 022c 00020240 		.word	1073873408
 1037 0230 08020440 		.word	1074004488
 1038 0234 00020440 		.word	1074004480
 1039 0238 04020440 		.word	1074004484
 1040 023c 0F000000 		.word	15
 1041 0240 01000000 		.word	1
 1042 0244 00       		.byte	0
 1043 0245 00       		.byte	0
 1044 0246 00       		.byte	0
 1045 0247 00       		.space	1
 1046 0248 00010240 		.word	1073873152
 1047 024c 08010440 		.word	1074004232
 1048 0250 00010440 		.word	1074004224
 1049 0254 04010440 		.word	1074004228
 1050 0258 000000F0 		.word	-268435456
 1051 025c 80000000 		.word	128
 1052 0260 1C       		.byte	28
 1053 0261 07       		.byte	7
 1054 0262 15       		.byte	21
 1055 0263 00       		.space	1
 1056              		.bss
 1057              		.align	2
 1058              		.type	CapSense_posHistoryTouchpad0, %object
 1059              		.size	CapSense_posHistoryTouchpad0, 4
 1060              	CapSense_posHistoryTouchpad0:
 1061 0000 00000000 		.space	4
 1062              		.type	CapSense_csxTouchpadData_Touchpad0, %object
 1063              		.size	CapSense_csxTouchpadData_Touchpad0, 62
 1064              	CapSense_csxTouchpadData_Touchpad0:
 1065 0004 00000000 		.space	62
ARM GAS  C:\Users\inspiron\AppData\Local\Temp\cc3AwUZg.s 			page 48


 1065      00000000 
 1065      00000000 
 1065      00000000 
 1065      00000000 
 1066              		.text
 1067              	.Letext0:
 1068              		.file 2 "c:\\program files (x86)\\cypress\\psoc creator\\4.4\\psoc creator\\import\\gnu\\arm\\5.4.
 1069              		.file 3 "c:\\program files (x86)\\cypress\\psoc creator\\4.4\\psoc creator\\import\\gnu\\arm\\5.4.
 1070              		.file 4 "Generated_Source\\PSoC4/cytypes.h"
 1071              		.file 5 "Generated_Source\\PSoC4\\CapSense_Configuration.h"
 1072              		.file 6 "Generated_Source\\PSoC4\\CapSense_TMG.h"
 1073              		.file 7 "Generated_Source\\PSoC4\\CapSense_Structure.h"
 1074              		.file 8 "Generated_Source\\PSoC4\\CyLib.h"